                              1 ;--------------------------------------------------------
                              2 ; File Created by SDCC : free open source ANSI-C Compiler
                              3 ; Version 3.5.2 #9293 (MINGW32)
                              4 ; This file was generated Tue Oct 30 17:20:46 2018
                              5 ;--------------------------------------------------------
                              6 	.module game
                              7 	.optsdcc -mz80
                              8 	
                              9 ;--------------------------------------------------------
                             10 ; Public variables in this module
                             11 ;--------------------------------------------------------
                             12 	.globl _main
                             13 	.globl _game_loop
                             14 	.globl _prepare_scr
                             15 	.globl _game_init
                             16 	.globl _flickscreen_do_vertical
                             17 	.globl _flickscreen_do_horizontal
                             18 	.globl _credits
                             19 	.globl _scr_level
                             20 	.globl _scr_the_end
                             21 	.globl _scr_game_over
                             22 	.globl _title
                             23 	.globl _pres
                             24 	.globl _bat_out
                             25 	.globl _bat_in
                             26 	.globl _hud_update
                             27 	.globl _draw_game_frame
                             28 	.globl _enems_move
                             29 	.globl _enems_hit
                             30 	.globl _enems_kill
                             31 	.globl _enems_load
                             32 	.globl _enems_boioiong_init
                             33 	.globl _enems_init_fp
                             34 	.globl _enems_facing
                             35 	.globl _enems_update_unsigned_char_arrays
                             36 	.globl _enems_persistent_deaths_load
                             37 	.globl _player_move
                             38 	.globl _player_kill
                             39 	.globl _player_to_pixels
                             40 	.globl _player_render
                             41 	.globl _player_init
                             42 	.globl _chac_chacs_do
                             43 	.globl _hotspots_create
                             44 	.globl _hotspots_paint
                             45 	.globl _hotspots_load
                             46 	.globl _update_cycle
                             47 	.globl _jump_start
                             48 	.globl _distance
                             49 	.globl _pad_read
                             50 	.globl _collide
                             51 	.globl _collide_in
                             52 	.globl _cm_two_points
                             53 	.globl _pr_str
                             54 	.globl _draw_scr
                             55 	.globl _p_t
                             56 	.globl _ul_putc
                             57 	.globl _cls
                             58 	.globl _clear_update_list
                             59 	.globl _unrle
                             60 	.globl _unpack_bg_patterns
                             61 	.globl _memfill
                             62 	.globl _delay
                             63 	.globl _aPLib_depack_VRAM
                             64 	.globl _PSGStop
                             65 	.globl _SG_doUpdateList
                             66 	.globl _SG_setUpdateList
                             67 	.globl _UNSAFE_SG_copySpritestoSAT
                             68 	.globl _SG_resetPauseRequest
                             69 	.globl _SG_queryPauseRequested
                             70 	.globl _SG_getKeysStatus
                             71 	.globl _SG_getStp
                             72 	.globl _SG_addMetaSprite1x1
                             73 	.globl _SG_initSprites
                             74 	.globl _SG_setTile
                             75 	.globl _SG_waitForVBlank
                             76 	.globl _SG_setSpriteMode
                             77 	.globl _SG_VDPturnOffFeature
                             78 	.globl _SG_VDPturnOnFeature
                             79 	.globl _game_mode
                             80 	.globl _mode_no_resonators
                             81 	.globl _shaker_ct
                             82 	.globl _springs_on
                             83 	.globl _cfx
                             84 	.globl _res_subct
                             85 	.globl _res_ct
                             86 	.globl _res_on
                             87 	.globl _res_disable
                             88 	.globl _chac_chacs_queue_write
                             89 	.globl _chac_chacs_queue_read
                             90 	.globl _chac_chacs_queue
                             91 	.globl _chac_chacs_ct
                             92 	.globl _chac_chacs_idlewait
                             93 	.globl _chac_chacs_state
                             94 	.globl _chac_chacs_yx
                             95 	.globl _max_chac_chacs
                             96 	.globl _ep_dead
                             97 	.globl _en_spr_id
                             98 	.globl _enf_vy
                             99 	.globl _enf_y
                            100 	.globl _enf_vx
                            101 	.globl _enf_x
                            102 	.globl _en_spr_x_mod
                            103 	.globl _en_ct
                            104 	.globl _en_status
                            105 	.globl _en_life
                            106 	.globl _en_cttouched
                            107 	.globl _en_flags
                            108 	.globl _en_state
                            109 	.globl _en_facing
                            110 	.globl _en_s
                            111 	.globl _en_my
                            112 	.globl _en_mx
                            113 	.globl _en_y2
                            114 	.globl _en_x2
                            115 	.globl _en_y1
                            116 	.globl _en_x1
                            117 	.globl _en_y
                            118 	.globl _en_x
                            119 	.globl _en_t
                            120 	.globl _flags
                            121 	.globl _lkact
                            122 	.globl _hact
                            123 	.globl _pctfr
                            124 	.globl _no_ct
                            125 	.globl _oam_index_player
                            126 	.globl _okilled
                            127 	.globl _oammo
                            128 	.globl _oobjs
                            129 	.globl _okeys
                            130 	.globl _olife
                            131 	.globl _flick_override
                            132 	.globl _level_reset
                            133 	.globl _warp_to_level
                            134 	.globl _game_over
                            135 	.globl _win_level
                            136 	.globl _paused
                            137 	.globl _frame_counter
                            138 	.globl _half_life
                            139 	.globl _on_pant
                            140 	.globl _n_pant
                            141 	.globl _c_max_enems
                            142 	.globl _level
                            143 	.globl _first_game
                            144 	.globl _map_buff
                            145 	.globl _fade_delay
                            146 	.globl _fader
                            147 	.globl _update_list
                            148 	.globl _update_index
                            149 	.globl _ntsc_frame
                            150 	.globl _ntsc
                            151 	.globl _c_max_bolts
                            152 	.globl _c_hotspots
                            153 	.globl _c_enems
                            154 	.globl _c_locks
                            155 	.globl _c_decos
                            156 	.globl _c_map
                            157 	.globl _spr_enems
                            158 	.globl _c_behs
                            159 	.globl _c_ts_tmaps
                            160 	.globl _c_map_size
                            161 	.globl _c_map_h
                            162 	.globl _c_map_w
                            163 	.globl _ft
                            164 	.globl _do_process_breakable
                            165 	.globl _hrt
                            166 	.globl _hry
                            167 	.globl _hrx
                            168 	.globl _py_safe
                            169 	.globl _px_safe
                            170 	.globl _n_pant_safe
                            171 	.globl _pfiring
                            172 	.globl _pkilled
                            173 	.globl _pammo
                            174 	.globl _pobjs
                            175 	.globl _pkeys
                            176 	.globl _plife
                            177 	.globl _pcontinues
                            178 	.globl _pnotsafe
                            179 	.globl _pice
                            180 	.globl _pkill
                            181 	.globl _pry_old
                            182 	.globl _prx_old
                            183 	.globl _hith
                            184 	.globl _hitv
                            185 	.globl _pgtmy
                            186 	.globl _pgtmx
                            187 	.globl _phit
                            188 	.globl _pbouncing
                            189 	.globl _pflickering
                            190 	.globl _oppossee
                            191 	.globl _ppossee
                            192 	.globl _pgotten
                            193 	.globl _pctj
                            194 	.globl _pj
                            195 	.globl _b_button
                            196 	.globl _a_button
                            197 	.globl _psprid
                            198 	.globl _pfr
                            199 	.globl _pfacing
                            200 	.globl _pcy
                            201 	.globl _pcx
                            202 	.globl _pry
                            203 	.globl _prx
                            204 	.globl _pvy
                            205 	.globl _pvx
                            206 	.globl _py
                            207 	.globl _px
                            208 	.globl _vertical_engine_type
                            209 	.globl _en_sg_2
                            210 	.globl _en_sg_1
                            211 	.globl __enf_vy
                            212 	.globl __enf_vx
                            213 	.globl __enf_y
                            214 	.globl __enf_x
                            215 	.globl __en_state
                            216 	.globl __en_facing
                            217 	.globl __en_ct
                            218 	.globl __en_my
                            219 	.globl __en_mx
                            220 	.globl __en_y2
                            221 	.globl __en_x2
                            222 	.globl __en_y1
                            223 	.globl __en_x1
                            224 	.globl __en_y
                            225 	.globl __en_x
                            226 	.globl __en_s
                            227 	.globl __en_t
                            228 	.globl _pregotten
                            229 	.globl _en_is_alive
                            230 	.globl _touched
                            231 	.globl _en_spr
                            232 	.globl _en_colly
                            233 	.globl _en_collx
                            234 	.globl _en_fr
                            235 	.globl _en_offs
                            236 	.globl _en_initial
                            237 	.globl _cur_stp
                            238 	.globl _caux
                            239 	.globl _cy2
                            240 	.globl _cy1
                            241 	.globl _cx2
                            242 	.globl _cx1
                            243 	.globl _at2
                            244 	.globl _at1
                            245 	.globl _ticker
                            246 	.globl _rdct
                            247 	.globl _rds
                            248 	.globl _rdm
                            249 	.globl _rdd
                            250 	.globl _rdc
                            251 	.globl _rdb
                            252 	.globl _rda
                            253 	.globl _rdit
                            254 	.globl _rdt
                            255 	.globl _rdy
                            256 	.globl _rdx
                            257 	.globl _gp_addr
                            258 	.globl _gp_ram
                            259 	.globl _gp_tmap
                            260 	.globl _gp_gen
                            261 	.globl _rds16
                            262 	.globl _gpjt
                            263 	.globl _gpit
                            264 	.globl _pad_this_frame
                            265 	.globl _pad0
                            266 	.globl __t
                            267 	.globl __n
                            268 	.globl __y
                            269 	.globl __x
                            270 	.globl _levelnames
                            271 	.globl _level2name
                            272 	.globl _level1name
                            273 	.globl _level0name
                            274 	.globl _l_music
                            275 	.globl _l_hotspots
                            276 	.globl _l_enems
                            277 	.globl _l_n_bolts
                            278 	.globl _l_locks
                            279 	.globl _l_decos
                            280 	.globl _l_map
                            281 	.globl _l_spr_enems
                            282 	.globl _l_spr_patterns
                            283 	.globl _l_behs
                            284 	.globl _l_ts_tmaps
                            285 	.globl _l_ts_colours
                            286 	.globl _l_ts_patterns
                            287 	.globl _l_player_max_enems
                            288 	.globl _l_player_max_objects
                            289 	.globl _l_map_h
                            290 	.globl _l_map_w
                            291 	.globl _l_ini_y
                            292 	.globl _l_ini_x
                            293 	.globl _l_scr_ini
                            294 	.globl _spr_hs
                            295 	.globl _spr_enems2
                            296 	.globl _spr_enems1
                            297 	.globl _spr_enems0
                            298 	.globl _spr_player
                            299 	.globl _behs2
                            300 	.globl _behs1
                            301 	.globl _behs0
                            302 	.globl _jitter
                            303 	.globl _bits
                            304 	.globl _chac_chacs_t3
                            305 	.globl _chac_chacs_t2
                            306 	.globl _chac_chacs_t1
                            307 	.globl _chac_chacs_times
                            308 ;--------------------------------------------------------
                            309 ; special function registers
                            310 ;--------------------------------------------------------
                     00BF   311 _VDPControlPort	=	0x00bf
                     00BF   312 _VDPStatusPort	=	0x00bf
                     00BE   313 _VDPDataPort	=	0x00be
                     007E   314 _VDPVCounterPort	=	0x007e
                     007F   315 _VDPHCounterPort	=	0x007f
                     00DC   316 _IOPortL	=	0x00dc
                     00DD   317 _IOPortH	=	0x00dd
                            318 ;--------------------------------------------------------
                            319 ; ram data
                            320 ;--------------------------------------------------------
                            321 	.area _DATA
   0000                     322 __x::
   0000                     323 	.ds 1
   0001                     324 __y::
   0001                     325 	.ds 1
   0002                     326 __n::
   0002                     327 	.ds 1
   0003                     328 __t::
   0003                     329 	.ds 1
   0004                     330 _pad0::
   0004                     331 	.ds 2
   0006                     332 _pad_this_frame::
   0006                     333 	.ds 2
   0008                     334 _gpit::
   0008                     335 	.ds 1
   0009                     336 _gpjt::
   0009                     337 	.ds 1
   000A                     338 _rds16::
   000A                     339 	.ds 2
   000C                     340 _gp_gen::
   000C                     341 	.ds 2
   000E                     342 _gp_tmap::
   000E                     343 	.ds 2
   0010                     344 _gp_ram::
   0010                     345 	.ds 2
   0012                     346 _gp_addr::
   0012                     347 	.ds 2
   0014                     348 _rdx::
   0014                     349 	.ds 1
   0015                     350 _rdy::
   0015                     351 	.ds 1
   0016                     352 _rdt::
   0016                     353 	.ds 1
   0017                     354 _rdit::
   0017                     355 	.ds 1
   0018                     356 _rda::
   0018                     357 	.ds 1
   0019                     358 _rdb::
   0019                     359 	.ds 1
   001A                     360 _rdc::
   001A                     361 	.ds 1
   001B                     362 _rdd::
   001B                     363 	.ds 1
   001C                     364 _rdm::
   001C                     365 	.ds 1
   001D                     366 _rds::
   001D                     367 	.ds 1
   001E                     368 _rdct::
   001E                     369 	.ds 1
   001F                     370 _ticker::
   001F                     371 	.ds 1
   0020                     372 _at1::
   0020                     373 	.ds 1
   0021                     374 _at2::
   0021                     375 	.ds 1
   0022                     376 _cx1::
   0022                     377 	.ds 1
   0023                     378 _cx2::
   0023                     379 	.ds 1
   0024                     380 _cy1::
   0024                     381 	.ds 1
   0025                     382 _cy2::
   0025                     383 	.ds 1
   0026                     384 _caux::
   0026                     385 	.ds 1
   0027                     386 _cur_stp::
   0027                     387 	.ds 2
   0029                     388 _en_initial::
   0029                     389 	.ds 1
   002A                     390 _en_offs::
   002A                     391 	.ds 1
   002B                     392 _en_fr::
   002B                     393 	.ds 1
   002C                     394 _en_collx::
   002C                     395 	.ds 1
   002D                     396 _en_colly::
   002D                     397 	.ds 1
   002E                     398 _en_spr::
   002E                     399 	.ds 1
   002F                     400 _touched::
   002F                     401 	.ds 1
   0030                     402 _en_is_alive::
   0030                     403 	.ds 1
   0031                     404 _pregotten::
   0031                     405 	.ds 1
   0032                     406 __en_t::
   0032                     407 	.ds 1
   0033                     408 __en_s::
   0033                     409 	.ds 1
   0034                     410 __en_x::
   0034                     411 	.ds 1
   0035                     412 __en_y::
   0035                     413 	.ds 1
   0036                     414 __en_x1::
   0036                     415 	.ds 1
   0037                     416 __en_y1::
   0037                     417 	.ds 1
   0038                     418 __en_x2::
   0038                     419 	.ds 1
   0039                     420 __en_y2::
   0039                     421 	.ds 1
   003A                     422 __en_mx::
   003A                     423 	.ds 1
   003B                     424 __en_my::
   003B                     425 	.ds 1
   003C                     426 __en_ct::
   003C                     427 	.ds 1
   003D                     428 __en_facing::
   003D                     429 	.ds 1
   003E                     430 __en_state::
   003E                     431 	.ds 1
   003F                     432 __enf_x::
   003F                     433 	.ds 2
   0041                     434 __enf_y::
   0041                     435 	.ds 2
   0043                     436 __enf_vx::
   0043                     437 	.ds 2
   0045                     438 __enf_vy::
   0045                     439 	.ds 2
   0047                     440 _en_sg_1::
   0047                     441 	.ds 1
   0048                     442 _en_sg_2::
   0048                     443 	.ds 1
   0049                     444 _vertical_engine_type::
   0049                     445 	.ds 1
   004A                     446 _px::
   004A                     447 	.ds 2
   004C                     448 _py::
   004C                     449 	.ds 2
   004E                     450 _pvx::
   004E                     451 	.ds 2
   0050                     452 _pvy::
   0050                     453 	.ds 2
   0052                     454 _prx::
   0052                     455 	.ds 1
   0053                     456 _pry::
   0053                     457 	.ds 1
   0054                     458 _pcx::
   0054                     459 	.ds 1
   0055                     460 _pcy::
   0055                     461 	.ds 1
   0056                     462 _pfacing::
   0056                     463 	.ds 1
   0057                     464 _pfr::
   0057                     465 	.ds 1
   0058                     466 _psprid::
   0058                     467 	.ds 1
   0059                     468 _a_button::
   0059                     469 	.ds 1
   005A                     470 _b_button::
   005A                     471 	.ds 1
   005B                     472 _pj::
   005B                     473 	.ds 1
   005C                     474 _pctj::
   005C                     475 	.ds 1
   005D                     476 _pgotten::
   005D                     477 	.ds 1
   005E                     478 _ppossee::
   005E                     479 	.ds 1
   005F                     480 _oppossee::
   005F                     481 	.ds 1
   0060                     482 _pflickering::
   0060                     483 	.ds 1
   0061                     484 _pbouncing::
   0061                     485 	.ds 1
   0062                     486 _phit::
   0062                     487 	.ds 1
   0063                     488 _pgtmx::
   0063                     489 	.ds 2
   0065                     490 _pgtmy::
   0065                     491 	.ds 2
   0067                     492 _hitv::
   0067                     493 	.ds 1
   0068                     494 _hith::
   0068                     495 	.ds 1
   0069                     496 _prx_old::
   0069                     497 	.ds 1
   006A                     498 _pry_old::
   006A                     499 	.ds 1
   006B                     500 _pkill::
   006B                     501 	.ds 1
   006C                     502 _pice::
   006C                     503 	.ds 1
   006D                     504 _pnotsafe::
   006D                     505 	.ds 1
   006E                     506 _pcontinues::
   006E                     507 	.ds 1
   006F                     508 _plife::
   006F                     509 	.ds 1
   0070                     510 _pkeys::
   0070                     511 	.ds 1
   0071                     512 _pobjs::
   0071                     513 	.ds 1
   0072                     514 _pammo::
   0072                     515 	.ds 1
   0073                     516 _pkilled::
   0073                     517 	.ds 1
   0074                     518 _pfiring::
   0074                     519 	.ds 1
   0075                     520 _n_pant_safe::
   0075                     521 	.ds 1
   0076                     522 _px_safe::
   0076                     523 	.ds 2
   0078                     524 _py_safe::
   0078                     525 	.ds 2
   007A                     526 _hrx::
   007A                     527 	.ds 1
   007B                     528 _hry::
   007B                     529 	.ds 1
   007C                     530 _hrt::
   007C                     531 	.ds 1
   007D                     532 _do_process_breakable::
   007D                     533 	.ds 1
   007E                     534 _ft::
   007E                     535 	.ds 1
   007F                     536 _c_map_w::
   007F                     537 	.ds 1
   0080                     538 _c_map_h::
   0080                     539 	.ds 1
   0081                     540 _c_map_size::
   0081                     541 	.ds 1
   0082                     542 _c_ts_tmaps::
   0082                     543 	.ds 2
   0084                     544 _c_behs::
   0084                     545 	.ds 2
   0086                     546 _spr_enems::
   0086                     547 	.ds 2
   0088                     548 _c_map::
   0088                     549 	.ds 2
   008A                     550 _c_decos::
   008A                     551 	.ds 1
   008B                     552 _c_locks::
   008B                     553 	.ds 2
   008D                     554 _c_enems::
   008D                     555 	.ds 2
   008F                     556 _c_hotspots::
   008F                     557 	.ds 2
   0091                     558 _c_max_bolts::
   0091                     559 	.ds 1
   0092                     560 _ntsc::
   0092                     561 	.ds 1
   0093                     562 _ntsc_frame::
   0093                     563 	.ds 1
   0094                     564 _update_index::
   0094                     565 	.ds 1
   0095                     566 _update_list::
   0095                     567 	.ds 96
   00F5                     568 _fader::
   00F5                     569 	.ds 1
   00F6                     570 _fade_delay::
   00F6                     571 	.ds 1
   00F7                     572 _map_buff::
   00F7                     573 	.ds 192
   01B7                     574 _first_game::
   01B7                     575 	.ds 1
   01B8                     576 _level::
   01B8                     577 	.ds 1
   01B9                     578 _c_max_enems::
   01B9                     579 	.ds 1
   01BA                     580 _n_pant::
   01BA                     581 	.ds 1
   01BB                     582 _on_pant::
   01BB                     583 	.ds 1
   01BC                     584 _half_life::
   01BC                     585 	.ds 1
   01BD                     586 _frame_counter::
   01BD                     587 	.ds 1
   01BE                     588 _paused::
   01BE                     589 	.ds 1
   01BF                     590 _win_level::
   01BF                     591 	.ds 1
   01C0                     592 _game_over::
   01C0                     593 	.ds 1
   01C1                     594 _warp_to_level::
   01C1                     595 	.ds 1
   01C2                     596 _level_reset::
   01C2                     597 	.ds 1
   01C3                     598 _flick_override::
   01C3                     599 	.ds 1
   01C4                     600 _olife::
   01C4                     601 	.ds 1
   01C5                     602 _okeys::
   01C5                     603 	.ds 1
   01C6                     604 _oobjs::
   01C6                     605 	.ds 1
   01C7                     606 _oammo::
   01C7                     607 	.ds 1
   01C8                     608 _okilled::
   01C8                     609 	.ds 1
   01C9                     610 _oam_index_player::
   01C9                     611 	.ds 1
   01CA                     612 _no_ct::
   01CA                     613 	.ds 1
   01CB                     614 _pctfr::
   01CB                     615 	.ds 1
   01CC                     616 _hact::
   01CC                     617 	.ds 24
   01E4                     618 _lkact::
   01E4                     619 	.ds 16
   01F4                     620 _flags::
   01F4                     621 	.ds 2
   01F6                     622 _en_t::
   01F6                     623 	.ds 3
   01F9                     624 _en_x::
   01F9                     625 	.ds 3
   01FC                     626 _en_y::
   01FC                     627 	.ds 3
   01FF                     628 _en_x1::
   01FF                     629 	.ds 3
   0202                     630 _en_y1::
   0202                     631 	.ds 3
   0205                     632 _en_x2::
   0205                     633 	.ds 3
   0208                     634 _en_y2::
   0208                     635 	.ds 3
   020B                     636 _en_mx::
   020B                     637 	.ds 3
   020E                     638 _en_my::
   020E                     639 	.ds 3
   0211                     640 _en_s::
   0211                     641 	.ds 3
   0214                     642 _en_facing::
   0214                     643 	.ds 3
   0217                     644 _en_state::
   0217                     645 	.ds 3
   021A                     646 _en_flags::
   021A                     647 	.ds 3
   021D                     648 _en_cttouched::
   021D                     649 	.ds 3
   0220                     650 _en_life::
   0220                     651 	.ds 3
   0223                     652 _en_status::
   0223                     653 	.ds 3
   0226                     654 _en_ct::
   0226                     655 	.ds 3
   0229                     656 _en_spr_x_mod::
   0229                     657 	.ds 1
   022A                     658 _enf_x::
   022A                     659 	.ds 6
   0230                     660 _enf_vx::
   0230                     661 	.ds 6
   0236                     662 _enf_y::
   0236                     663 	.ds 6
   023C                     664 _enf_vy::
   023C                     665 	.ds 6
   0242                     666 _en_spr_id::
   0242                     667 	.ds 3
   0245                     668 _ep_dead::
   0245                     669 	.ds 72
   028D                     670 _max_chac_chacs::
   028D                     671 	.ds 1
   028E                     672 _chac_chacs_yx::
   028E                     673 	.ds 4
   0292                     674 _chac_chacs_state::
   0292                     675 	.ds 4
   0296                     676 _chac_chacs_idlewait::
   0296                     677 	.ds 4
   029A                     678 _chac_chacs_ct::
   029A                     679 	.ds 4
   029E                     680 _chac_chacs_queue::
   029E                     681 	.ds 16
   02AE                     682 _chac_chacs_queue_read::
   02AE                     683 	.ds 1
   02AF                     684 _chac_chacs_queue_write::
   02AF                     685 	.ds 1
   02B0                     686 _res_disable::
   02B0                     687 	.ds 1
   02B1                     688 _res_on::
   02B1                     689 	.ds 1
   02B2                     690 _res_ct::
   02B2                     691 	.ds 1
   02B3                     692 _res_subct::
   02B3                     693 	.ds 1
   02B4                     694 _cfx::
   02B4                     695 	.ds 1
   02B5                     696 _springs_on::
   02B5                     697 	.ds 1
   02B6                     698 _shaker_ct::
   02B6                     699 	.ds 1
   02B7                     700 _mode_no_resonators::
   02B7                     701 	.ds 1
   02B8                     702 _game_mode::
   02B8                     703 	.ds 1
                            704 ;--------------------------------------------------------
                            705 ; ram data
                            706 ;--------------------------------------------------------
                            707 	.area _INITIALIZED
                            708 ;--------------------------------------------------------
                            709 ; absolute external ram data
                            710 ;--------------------------------------------------------
                            711 	.area _DABS (ABS)
                            712 ;--------------------------------------------------------
                            713 ; global & static initialisations
                            714 ;--------------------------------------------------------
                            715 	.area _HOME
                            716 	.area _GSINIT
                            717 	.area _GSFINAL
                            718 	.area _GSINIT
                            719 ;--------------------------------------------------------
                            720 ; Home
                            721 ;--------------------------------------------------------
                            722 	.area _HOME
                            723 	.area _HOME
                            724 ;--------------------------------------------------------
                            725 ; code
                            726 ;--------------------------------------------------------
                            727 	.area _CODE
                            728 ;engine/hotspots.h:7: void hotspots_load (void) {
                            729 ;	---------------------------------
                            730 ; Function hotspots_load
                            731 ; ---------------------------------
   0000                     732 _hotspots_load::
                            733 ;engine/hotspots.h:9: gp_gen = (unsigned char *) c_hotspots;
   0000 2Ar8Fr00      [16]  734 	ld	hl,(_c_hotspots)
   0003 22r0Cr00      [16]  735 	ld	(_gp_gen),hl
                            736 ;engine/hotspots.h:11: for (gpit = 0; gpit < MAP_SIZE; gpit ++) {
   0006 21r08r00      [10]  737 	ld	hl,#_gpit + 0
   0009 36 00         [10]  738 	ld	(hl), #0x00
   000B 11rCCr01      [10]  739 	ld	de,#_hact+0
   000E                     740 00102$:
                            741 ;engine/hotspots.h:16: hact [gpit] = 1;
   000E 2Ar08r00      [16]  742 	ld	hl,(_gpit)
   0011 26 00         [ 7]  743 	ld	h,#0x00
   0013 19            [11]  744 	add	hl,de
   0014 36 01         [10]  745 	ld	(hl),#0x01
                            746 ;engine/hotspots.h:11: for (gpit = 0; gpit < MAP_SIZE; gpit ++) {
   0016 21r08r00      [10]  747 	ld	hl, #_gpit+0
   0019 34            [11]  748 	inc	(hl)
   001A 3Ar08r00      [13]  749 	ld	a,(#_gpit + 0)
   001D D6 18         [ 7]  750 	sub	a, #0x18
   001F 38 ED         [12]  751 	jr	C,00102$
   0021 C9            [10]  752 	ret
   0022                     753 _chac_chacs_times:
   0022 00                  754 	.db #0x00	; 0
   0023 10                  755 	.db #0x10	; 16
   0024 01                  756 	.db #0x01	; 1
   0025 32                  757 	.db #0x32	; 50	'2'
   0026 01                  758 	.db #0x01	; 1
   0027 01                  759 	.db #0x01	; 1
   0028                     760 _chac_chacs_t1:
   0028 26                  761 	.db #0x26	; 38
   0029 20                  762 	.db #0x20	; 32
   002A 22                  763 	.db #0x22	; 34
   002B 25                  764 	.db #0x25	; 37
   002C 22                  765 	.db #0x22	; 34
   002D 20                  766 	.db #0x20	; 32
   002E                     767 _chac_chacs_t2:
   002E 26                  768 	.db #0x26	; 38
   002F 26                  769 	.db #0x26	; 38
   0030 26                  770 	.db #0x26	; 38
   0031 24                  771 	.db #0x24	; 36
   0032 26                  772 	.db #0x26	; 38
   0033 26                  773 	.db #0x26	; 38
   0034                     774 _chac_chacs_t3:
   0034 26                  775 	.db #0x26	; 38
   0035 21                  776 	.db #0x21	; 33
   0036 23                  777 	.db #0x23	; 35
   0037 25                  778 	.db #0x25	; 37
   0038 23                  779 	.db #0x23	; 35
   0039 21                  780 	.db #0x21	; 33
   003A                     781 _bits:
   003A 01                  782 	.db #0x01	; 1
   003B 02                  783 	.db #0x02	; 2
   003C 04                  784 	.db #0x04	; 4
   003D 08                  785 	.db #0x08	; 8
   003E 10                  786 	.db #0x10	; 16
   003F 20                  787 	.db #0x20	; 32
   0040 40                  788 	.db #0x40	; 64
   0041 80                  789 	.db #0x80	; 128
   0042                     790 _jitter:
   0042 00                  791 	.db #0x00	; 0
   0043 01                  792 	.db #0x01	; 1
   0044 01                  793 	.db #0x01	; 1
   0045 00                  794 	.db #0x00	; 0
   0046 00                  795 	.db #0x00	; 0
   0047 01                  796 	.db #0x01	; 1
   0048 00                  797 	.db #0x00	; 0
   0049 01                  798 	.db #0x01	; 1
   004A 01                  799 	.db #0x01	; 1
   004B 00                  800 	.db #0x00	; 0
   004C 00                  801 	.db #0x00	; 0
   004D 00                  802 	.db #0x00	; 0
   004E 01                  803 	.db #0x01	; 1
   004F 00                  804 	.db #0x00	; 0
   0050 01                  805 	.db #0x01	; 1
   0051 01                  806 	.db #0x01	; 1
   0052                     807 _behs0:
   0052 00                  808 	.db #0x00	; 0
   0053 00                  809 	.db #0x00	; 0
   0054 00                  810 	.db #0x00	; 0
   0055 00                  811 	.db #0x00	; 0
   0056 08                  812 	.db #0x08	; 8
   0057 08                  813 	.db #0x08	; 8
   0058 08                  814 	.db #0x08	; 8
   0059 08                  815 	.db #0x08	; 8
   005A 00                  816 	.db #0x00	; 0
   005B 08                  817 	.db #0x08	; 8
   005C 00                  818 	.db #0x00	; 0
   005D 00                  819 	.db #0x00	; 0
   005E 01                  820 	.db #0x01	; 1
   005F 08                  821 	.db #0x08	; 8
   0060 04                  822 	.db #0x04	; 4
   0061 0A                  823 	.db #0x0A	; 10
   0062 00                  824 	.db #0x00	; 0
   0063 00                  825 	.db #0x00	; 0
   0064 00                  826 	.db #0x00	; 0
   0065 00                  827 	.db #0x00	; 0
   0066 08                  828 	.db #0x08	; 8
   0067 08                  829 	.db #0x08	; 8
   0068 08                  830 	.db #0x08	; 8
   0069 08                  831 	.db #0x08	; 8
   006A 00                  832 	.db #0x00	; 0
   006B 08                  833 	.db #0x08	; 8
   006C 00                  834 	.db #0x00	; 0
   006D 00                  835 	.db #0x00	; 0
   006E 01                  836 	.db #0x01	; 1
   006F 08                  837 	.db #0x08	; 8
   0070 04                  838 	.db #0x04	; 4
   0071 0A                  839 	.db #0x0A	; 10
   0072                     840 _behs1:
   0072 00                  841 	.db #0x00	; 0
   0073 00                  842 	.db #0x00	; 0
   0074 00                  843 	.db #0x00	; 0
   0075 00                  844 	.db #0x00	; 0
   0076 08                  845 	.db #0x08	; 8
   0077 04                  846 	.db #0x04	; 4
   0078 08                  847 	.db #0x08	; 8
   0079 04                  848 	.db #0x04	; 4
   007A 28                  849 	.db #0x28	; 40
   007B 29                  850 	.db #0x29	; 41
   007C 01                  851 	.db #0x01	; 1
   007D 01                  852 	.db #0x01	; 1
   007E 01                  853 	.db #0x01	; 1
   007F 08                  854 	.db #0x08	; 8
   0080 08                  855 	.db #0x08	; 8
   0081 0A                  856 	.db #0x0A	; 10
   0082 00                  857 	.db #0x00	; 0
   0083 00                  858 	.db #0x00	; 0
   0084 00                  859 	.db #0x00	; 0
   0085 00                  860 	.db #0x00	; 0
   0086 08                  861 	.db #0x08	; 8
   0087 04                  862 	.db #0x04	; 4
   0088 08                  863 	.db #0x08	; 8
   0089 04                  864 	.db #0x04	; 4
   008A 28                  865 	.db #0x28	; 40
   008B 29                  866 	.db #0x29	; 41
   008C 01                  867 	.db #0x01	; 1
   008D 01                  868 	.db #0x01	; 1
   008E 01                  869 	.db #0x01	; 1
   008F 08                  870 	.db #0x08	; 8
   0090 08                  871 	.db #0x08	; 8
   0091 08                  872 	.db #0x08	; 8
   0092                     873 _behs2:
   0092 00                  874 	.db #0x00	; 0
   0093 08                  875 	.db #0x08	; 8
   0094 00                  876 	.db #0x00	; 0
   0095 00                  877 	.db #0x00	; 0
   0096 08                  878 	.db #0x08	; 8
   0097 08                  879 	.db #0x08	; 8
   0098 08                  880 	.db #0x08	; 8
   0099 08                  881 	.db #0x08	; 8
   009A 00                  882 	.db #0x00	; 0
   009B 08                  883 	.db #0x08	; 8
   009C 04                  884 	.db #0x04	; 4
   009D 08                  885 	.db #0x08	; 8
   009E 01                  886 	.db #0x01	; 1
   009F 01                  887 	.db #0x01	; 1
   00A0 08                  888 	.db #0x08	; 8
   00A1 0A                  889 	.db #0x0A	; 10
   00A2 00                  890 	.db #0x00	; 0
   00A3 08                  891 	.db #0x08	; 8
   00A4 00                  892 	.db #0x00	; 0
   00A5 00                  893 	.db #0x00	; 0
   00A6 08                  894 	.db #0x08	; 8
   00A7 08                  895 	.db #0x08	; 8
   00A8 08                  896 	.db #0x08	; 8
   00A9 08                  897 	.db #0x08	; 8
   00AA 00                  898 	.db #0x00	; 0
   00AB 08                  899 	.db #0x08	; 8
   00AC 04                  900 	.db #0x04	; 4
   00AD 08                  901 	.db #0x08	; 8
   00AE 01                  902 	.db #0x01	; 1
   00AF 01                  903 	.db #0x01	; 1
   00B0 08                  904 	.db #0x08	; 8
   00B1 0A                  905 	.db #0x0A	; 10
   00B2 00                  906 	.db #0x00	; 0
   00B3 00                  907 	.db #0x00	; 0
   00B4 01                  908 	.db #0x01	; 1
   00B5 01                  909 	.db #0x01	; 1
   00B6 01                  910 	.db #0x01	; 1
   00B7 01                  911 	.db #0x01	; 1
   00B8 00                  912 	.db #0x00	; 0
   00B9                     913 _spr_player:
   00B9r00r00               914 	.dw _ss_pl_00
   00BBr00r00               915 	.dw _ss_pl_00
   00BDr00r00               916 	.dw _ss_pl_01
   00BFr00r00               917 	.dw _ss_pl_00
   00C1r00r00               918 	.dw _ss_pl_02
   00C3r00r00               919 	.dw _ss_pl_03
   00C5 00 00               920 	.dw #0x0000
   00C7 00 00               921 	.dw #0x0000
   00C9r00r00               922 	.dw _ss_pl_04
   00CBr00r00               923 	.dw _ss_pl_04
   00CDr00r00               924 	.dw _ss_pl_06
   00CFr00r00               925 	.dw _ss_pl_04
   00D1r00r00               926 	.dw _ss_pl_05
   00D3r00r00               927 	.dw _ss_pl_07
   00D5 00 00               928 	.dw #0x0000
   00D7 00 00               929 	.dw #0x0000
   00D9                     930 _spr_enems0:
   00D9r00r00               931 	.dw _ss_en_0_00
   00DBr00r00               932 	.dw _ss_en_0_01
   00DD 00 00               933 	.dw #0x0000
   00DF 00 00               934 	.dw #0x0000
   00E1r00r00               935 	.dw _ss_en_0_02
   00E3r00r00               936 	.dw _ss_en_0_03
   00E5 00 00               937 	.dw #0x0000
   00E7 00 00               938 	.dw #0x0000
   00E9r00r00               939 	.dw _ss_en_0_04
   00EBr00r00               940 	.dw _ss_en_0_05
   00ED 00 00               941 	.dw #0x0000
   00EF 00 00               942 	.dw #0x0000
   00F1r00r00               943 	.dw _ss_en_0_06
   00F3r00r00               944 	.dw _ss_en_0_07
   00F5 00 00               945 	.dw #0x0000
   00F7 00 00               946 	.dw #0x0000
   00F9r00r00               947 	.dw _ss_en_0_08
   00FBr00r00               948 	.dw _ss_en_0_09
   00FD 00 00               949 	.dw #0x0000
   00FF 00 00               950 	.dw #0x0000
   0101r00r00               951 	.dw _ss_en_0_0a
   0103r00r00               952 	.dw _ss_en_0_0b
   0105 00 00               953 	.dw #0x0000
   0107 00 00               954 	.dw #0x0000
   0109r00r00               955 	.dw _ss_plat_00
   010Br00r00               956 	.dw _ss_plat_01
   010D 00 00               957 	.dw #0x0000
   010F 00 00               958 	.dw #0x0000
   0111r00r00               959 	.dw _ss_plat_00
   0113r00r00               960 	.dw _ss_plat_01
   0115 00 00               961 	.dw #0x0000
   0117 00 00               962 	.dw #0x0000
   0119r00r00               963 	.dw _ss_fanty_00
   011Br00r00               964 	.dw _ss_fanty_01
   011D 00 00               965 	.dw #0x0000
   011F 00 00               966 	.dw #0x0000
   0121r00r00               967 	.dw _ss_fanty_02
   0123r00r00               968 	.dw _ss_fanty_03
   0125 00 00               969 	.dw #0x0000
   0127 00 00               970 	.dw #0x0000
   0129r00r00               971 	.dw _ss_it_04
   012B                     972 _spr_enems1:
   012Br00r00               973 	.dw _ss_en_1_00
   012Dr00r00               974 	.dw _ss_en_1_01
   012F 00 00               975 	.dw #0x0000
   0131 00 00               976 	.dw #0x0000
   0133r00r00               977 	.dw _ss_en_1_02
   0135r00r00               978 	.dw _ss_en_1_03
   0137 00 00               979 	.dw #0x0000
   0139 00 00               980 	.dw #0x0000
   013Br00r00               981 	.dw _ss_en_1_04
   013Dr00r00               982 	.dw _ss_en_1_05
   013F 00 00               983 	.dw #0x0000
   0141 00 00               984 	.dw #0x0000
   0143r00r00               985 	.dw _ss_en_1_06
   0145r00r00               986 	.dw _ss_en_1_07
   0147 00 00               987 	.dw #0x0000
   0149 00 00               988 	.dw #0x0000
   014Br00r00               989 	.dw _ss_en_1_08
   014Dr00r00               990 	.dw _ss_en_1_09
   014F 00 00               991 	.dw #0x0000
   0151 00 00               992 	.dw #0x0000
   0153r00r00               993 	.dw _ss_en_1_0a
   0155r00r00               994 	.dw _ss_en_1_0b
   0157 00 00               995 	.dw #0x0000
   0159 00 00               996 	.dw #0x0000
   015Br00r00               997 	.dw _ss_plat_00
   015Dr00r00               998 	.dw _ss_plat_01
   015F 00 00               999 	.dw #0x0000
   0161 00 00              1000 	.dw #0x0000
   0163r00r00              1001 	.dw _ss_plat_00
   0165r00r00              1002 	.dw _ss_plat_01
   0167 00 00              1003 	.dw #0x0000
   0169 00 00              1004 	.dw #0x0000
   016Br00r00              1005 	.dw _ss_fanty_00
   016Dr00r00              1006 	.dw _ss_fanty_01
   016F 00 00              1007 	.dw #0x0000
   0171 00 00              1008 	.dw #0x0000
   0173r00r00              1009 	.dw _ss_fanty_02
   0175r00r00              1010 	.dw _ss_fanty_03
   0177 00 00              1011 	.dw #0x0000
   0179 00 00              1012 	.dw #0x0000
   017Br00r00              1013 	.dw _ss_it_04
   017D                    1014 _spr_enems2:
   017Dr00r00              1015 	.dw _ss_en_2_00
   017Fr00r00              1016 	.dw _ss_en_2_01
   0181 00 00              1017 	.dw #0x0000
   0183 00 00              1018 	.dw #0x0000
   0185r00r00              1019 	.dw _ss_en_2_02
   0187r00r00              1020 	.dw _ss_en_2_03
   0189 00 00              1021 	.dw #0x0000
   018B 00 00              1022 	.dw #0x0000
   018Dr00r00              1023 	.dw _ss_en_2_04
   018Fr00r00              1024 	.dw _ss_en_2_05
   0191 00 00              1025 	.dw #0x0000
   0193 00 00              1026 	.dw #0x0000
   0195r00r00              1027 	.dw _ss_en_2_06
   0197r00r00              1028 	.dw _ss_en_2_07
   0199 00 00              1029 	.dw #0x0000
   019B 00 00              1030 	.dw #0x0000
   019Dr00r00              1031 	.dw _ss_en_2_08
   019Fr00r00              1032 	.dw _ss_en_2_09
   01A1 00 00              1033 	.dw #0x0000
   01A3 00 00              1034 	.dw #0x0000
   01A5r00r00              1035 	.dw _ss_en_2_08
   01A7r00r00              1036 	.dw _ss_en_2_09
   01A9 00 00              1037 	.dw #0x0000
   01AB 00 00              1038 	.dw #0x0000
   01ADr00r00              1039 	.dw _ss_plat_00
   01AFr00r00              1040 	.dw _ss_plat_01
   01B1 00 00              1041 	.dw #0x0000
   01B3 00 00              1042 	.dw #0x0000
   01B5r00r00              1043 	.dw _ss_plat_00
   01B7r00r00              1044 	.dw _ss_plat_01
   01B9 00 00              1045 	.dw #0x0000
   01BB 00 00              1046 	.dw #0x0000
   01BDr00r00              1047 	.dw _ss_fanty_00
   01BFr00r00              1048 	.dw _ss_fanty_01
   01C1 00 00              1049 	.dw #0x0000
   01C3 00 00              1050 	.dw #0x0000
   01C5r00r00              1051 	.dw _ss_fanty_02
   01C7r00r00              1052 	.dw _ss_fanty_03
   01C9 00 00              1053 	.dw #0x0000
   01CB 00 00              1054 	.dw #0x0000
   01CDr00r00              1055 	.dw _ss_it_04
   01CF                    1056 _spr_hs:
   01CF 00 00              1057 	.dw #0x0000
   01D1 00 00              1058 	.dw #0x0000
   01D3r00r00              1059 	.dw _ss_it_01
   01D5r00r00              1060 	.dw _ss_it_00
   01D7r00r00              1061 	.dw _ss_it_02
   01D9r00r00              1062 	.dw _ss_it_03
   01DB                    1063 _l_scr_ini:
   01DB 14                 1064 	.db #0x14	; 20
   01DC 14                 1065 	.db #0x14	; 20
   01DD 08                 1066 	.db #0x08	; 8
   01DE                    1067 _l_ini_x:
   01DE 02                 1068 	.db #0x02	; 2
   01DF 02                 1069 	.db #0x02	; 2
   01E0 02                 1070 	.db #0x02	; 2
   01E1                    1071 _l_ini_y:
   01E1 07                 1072 	.db #0x07	; 7
   01E2 0A                 1073 	.db #0x0A	; 10
   01E3 03                 1074 	.db #0x03	; 3
   01E4                    1075 _l_map_w:
   01E4 04                 1076 	.db #0x04	; 4
   01E5 04                 1077 	.db #0x04	; 4
   01E6 08                 1078 	.db #0x08	; 8
   01E7                    1079 _l_map_h:
   01E7 06                 1080 	.db #0x06	; 6
   01E8 06                 1081 	.db #0x06	; 6
   01E9 03                 1082 	.db #0x03	; 3
   01EA                    1083 _l_player_max_objects:
   01EA 00                 1084 	.db #0x00	; 0
   01EB 00                 1085 	.db #0x00	; 0
   01EC 00                 1086 	.db #0x00	; 0
   01ED                    1087 _l_player_max_enems:
   01ED 36                 1088 	.db #0x36	; 54	'6'
   01EE 31                 1089 	.db #0x31	; 49	'1'
   01EF 2E                 1090 	.db #0x2E	; 46
   01F0                    1091 _l_ts_patterns:
   01F0r00r00              1092 	.dw _ts0_patterns_c
   01F2r00r00              1093 	.dw _ts1_patterns_c
   01F4r00r00              1094 	.dw _ts2_patterns_c
   01F6                    1095 _l_ts_colours:
   01F6r00r00              1096 	.dw _ts0_colours_c
   01F8r00r00              1097 	.dw _ts1_colours_c
   01FAr00r00              1098 	.dw _ts2_colours_c
   01FC                    1099 _l_ts_tmaps:
   01FCr00r00              1100 	.dw _ts0_tmaps
   01FEr00r00              1101 	.dw _ts1_tmaps
   0200r00r00              1102 	.dw _ts2_tmaps
   0202                    1103 _l_behs:
   0202r52r00              1104 	.dw _behs0
   0204r72r00              1105 	.dw _behs1
   0206r92r00              1106 	.dw _behs2
   0208                    1107 _l_spr_patterns:
   0208r00r00              1108 	.dw _ss_en_0_patterns_c
   020Ar00r00              1109 	.dw _ss_en_1_patterns_c
   020Cr00r00              1110 	.dw _ss_en_2_patterns_c
   020E                    1111 _l_spr_enems:
   020ErD9r00              1112 	.dw _spr_enems0
   0210r2Br01              1113 	.dw _spr_enems1
   0212r7Dr01              1114 	.dw _spr_enems2
   0214                    1115 _l_map:
   0214r00r00              1116 	.dw _map_0
   0216r00r00              1117 	.dw _map_1
   0218r00r00              1118 	.dw _map_2
   021A                    1119 _l_decos:
   021A 00                 1120 	.db #0x00	; 0
   021B 01                 1121 	.db #0x01	; 1
   021C 01                 1122 	.db #0x01	; 1
   021D                    1123 _l_locks:
   021Dr00r00              1124 	.dw _map_0_locks
   021Fr00r00              1125 	.dw _map_1_locks
   0221r00r00              1126 	.dw _map_2_locks
   0223                    1127 _l_n_bolts:
   0223 02                 1128 	.db #0x02	; 2
   0224 01                 1129 	.db #0x01	; 1
   0225 02                 1130 	.db #0x02	; 2
   0226                    1131 _l_enems:
   0226r00r00              1132 	.dw _enems_0
   0228r00r00              1133 	.dw _enems_1
   022Ar00r00              1134 	.dw _enems_2
   022C                    1135 _l_hotspots:
   022Cr00r00              1136 	.dw _hotspots_0
   022Er00r00              1137 	.dw _hotspots_1
   0230r00r00              1138 	.dw _hotspots_2
   0232                    1139 _l_music:
   0232 00                 1140 	.db #0x00	; 0
   0233 01                 1141 	.db #0x01	; 1
   0234 02                 1142 	.db #0x02	; 2
                           1143 ;engine/hotspots.h:20: void hotspots_paint (void) {
                           1144 ;	---------------------------------
                           1145 ; Function hotspots_paint
                           1146 ; ---------------------------------
   0235                    1147 _hotspots_paint::
                           1148 ;engine/hotspots.h:30: rda = hrt;
   0235 3Ar7Cr00      [13] 1149 	ld	a,(#_hrt + 0)
   0238 32r18r00      [13] 1150 	ld	(#_rda + 0),a
                           1151 ;engine/hotspots.h:33: if (hrt == HOTSPOT_TYPE_RESONATOR && res_on) rda = HOTSPOT_TYPE_RESONATOR_ON;
   023B 3Ar7Cr00      [13] 1152 	ld	a,(#_hrt + 0)
   023E D6 04         [ 7] 1153 	sub	a, #0x04
   0240 20 0B         [12] 1154 	jr	NZ,00102$
   0242 3ArB1r02      [13] 1155 	ld	a,(#_res_on + 0)
   0245 B7            [ 4] 1156 	or	a, a
   0246 28 05         [12] 1157 	jr	Z,00102$
   0248 21r18r00      [10] 1158 	ld	hl,#_rda + 0
   024B 36 05         [10] 1159 	ld	(hl), #0x05
   024D                    1160 00102$:
                           1161 ;engine/hotspots.h:38: spr_hs [rda]
   024D 11rCFr01      [10] 1162 	ld	de,#_spr_hs+0
   0250 FD 21r18r00   [14] 1163 	ld	iy,#_rda
   0254 FD 6E 00      [19] 1164 	ld	l,0 (iy)
   0257 26 00         [ 7] 1165 	ld	h,#0x00
   0259 29            [11] 1166 	add	hl, hl
   025A 19            [11] 1167 	add	hl,de
   025B 5E            [ 7] 1168 	ld	e,(hl)
   025C 23            [ 6] 1169 	inc	hl
   025D 56            [ 7] 1170 	ld	d,(hl)
                           1171 ;engine/hotspots.h:37: hrx, hry + SPRITE_ADJUST, 
   025E 3Ar7Br00      [13] 1172 	ld	a,(#_hry + 0)
   0261 C6 F7         [ 7] 1173 	add	a, #0xF7
   0263 67            [ 4] 1174 	ld	h,a
   0264 D5            [11] 1175 	push	de
   0265 E5            [11] 1176 	push	hl
   0266 33            [ 6] 1177 	inc	sp
   0267 3Ar7Ar00      [13] 1178 	ld	a,(_hrx)
   026A F5            [11] 1179 	push	af
   026B 33            [ 6] 1180 	inc	sp
   026C CDr00r00      [17] 1181 	call	_SG_addMetaSprite1x1
   026F F1            [10] 1182 	pop	af
   0270 F1            [10] 1183 	pop	af
   0271 C9            [10] 1184 	ret
                           1185 ;engine/hotspots.h:42: void hotspots_create (void) {
                           1186 ;	---------------------------------
                           1187 ; Function hotspots_create
                           1188 ; ---------------------------------
   0272                    1189 _hotspots_create::
                           1190 ;engine/hotspots.h:54: gp_gen = (unsigned char *) (c_hotspots + (n_pant << 1));
   0272 FD 21rBAr01   [14] 1191 	ld	iy,#_n_pant
   0276 FD 6E 00      [19] 1192 	ld	l,0 (iy)
   0279 26 00         [ 7] 1193 	ld	h,#0x00
   027B 29            [11] 1194 	add	hl, hl
   027C 55            [ 4] 1195 	ld	d,l
   027D 5C            [ 4] 1196 	ld	e,h
   027E 21r0Cr00      [10] 1197 	ld	hl,#_gp_gen
   0281 3Ar8Fr00      [13] 1198 	ld	a,(#_c_hotspots + 0)
   0284 82            [ 4] 1199 	add	a, d
   0285 77            [ 7] 1200 	ld	(hl),a
   0286 3Ar90r00      [13] 1201 	ld	a,(#_c_hotspots + 1)
   0289 8B            [ 4] 1202 	adc	a, e
   028A 23            [ 6] 1203 	inc	hl
   028B 77            [ 7] 1204 	ld	(hl),a
                           1205 ;engine/hotspots.h:55: hrt = *gp_gen ++; rda = *gp_gen; 
   028C 2Ar0Cr00      [16] 1206 	ld	hl,(_gp_gen)
   028F 7E            [ 7] 1207 	ld	a,(hl)
   0290 32r7Cr00      [13] 1208 	ld	(#_hrt + 0),a
   0293 21r0Cr00      [10] 1209 	ld	hl, #_gp_gen+0
   0296 34            [11] 1210 	inc	(hl)
   0297 20 04         [12] 1211 	jr	NZ,00115$
   0299 21r0Dr00      [10] 1212 	ld	hl, #_gp_gen+1
   029C 34            [11] 1213 	inc	(hl)
   029D                    1214 00115$:
   029D 2Ar0Cr00      [16] 1215 	ld	hl,(_gp_gen)
   02A0 7E            [ 7] 1216 	ld	a,(hl)
   02A1 32r18r00      [13] 1217 	ld	(#_rda + 0),a
                           1218 ;engine/hotspots.h:56: if (hrt && hact [n_pant]) {
   02A4 3Ar7Cr00      [13] 1219 	ld	a,(#_hrt + 0)
   02A7 B7            [ 4] 1220 	or	a, a
   02A8 28 22         [12] 1221 	jr	Z,00102$
   02AA 11rCCr01      [10] 1222 	ld	de,#_hact+0
   02AD 2ArBAr01      [16] 1223 	ld	hl,(_n_pant)
   02B0 26 00         [ 7] 1224 	ld	h,#0x00
   02B2 19            [11] 1225 	add	hl,de
   02B3 7E            [ 7] 1226 	ld	a,(hl)
   02B4 B7            [ 4] 1227 	or	a, a
   02B5 28 15         [12] 1228 	jr	Z,00102$
                           1229 ;engine/hotspots.h:57: hry = rda & 0xf0; hrx = rda << 4;
   02B7 3Ar18r00      [13] 1230 	ld	a,(#_rda + 0)
   02BA E6 F0         [ 7] 1231 	and	a, #0xF0
   02BC 32r7Br00      [13] 1232 	ld	(#_hry + 0),a
   02BF 3Ar18r00      [13] 1233 	ld	a,(#_rda + 0)
   02C2 07            [ 4] 1234 	rlca
   02C3 07            [ 4] 1235 	rlca
   02C4 07            [ 4] 1236 	rlca
   02C5 07            [ 4] 1237 	rlca
   02C6 E6 F0         [ 7] 1238 	and	a,#0xF0
   02C8 32r7Ar00      [13] 1239 	ld	(#_hrx + 0),a
   02CB C9            [10] 1240 	ret
   02CC                    1241 00102$:
                           1242 ;engine/hotspots.h:58: } else hrt = 0;
   02CC 21r7Cr00      [10] 1243 	ld	hl,#_hrt + 0
   02CF 36 00         [10] 1244 	ld	(hl), #0x00
   02D1 C9            [10] 1245 	ret
                           1246 ;engine/enengine.h:16: void enems_persistent_deaths_load (void) {
                           1247 ;	---------------------------------
                           1248 ; Function enems_persistent_deaths_load
                           1249 ; ---------------------------------
   02D2                    1250 _enems_persistent_deaths_load::
                           1251 ;engine/enengine.h:17: memfill (ep_dead, 0, MAP_SIZE * 3);
   02D2 11r45r02      [10] 1252 	ld	de,#_ep_dead
   02D5 21 48 00      [10] 1253 	ld	hl,#0x0048
   02D8 E5            [11] 1254 	push	hl
   02D9 AF            [ 4] 1255 	xor	a, a
   02DA F5            [11] 1256 	push	af
   02DB 33            [ 6] 1257 	inc	sp
   02DC D5            [11] 1258 	push	de
   02DD CDr00r00      [17] 1259 	call	_memfill
   02E0 F1            [10] 1260 	pop	af
   02E1 F1            [10] 1261 	pop	af
   02E2 33            [ 6] 1262 	inc	sp
   02E3 C9            [10] 1263 	ret
                           1264 ;engine/enengine.h:21: void enems_update_unsigned_char_arrays (void) {
                           1265 ;	---------------------------------
                           1266 ; Function enems_update_unsigned_char_arrays
                           1267 ; ---------------------------------
   02E4                    1268 _enems_update_unsigned_char_arrays::
                           1269 ;engine/enengine.h:22: en_t [gpit] = _en_t;
   02E4 11rF6r01      [10] 1270 	ld	de,#_en_t+0
   02E7 2Ar08r00      [16] 1271 	ld	hl,(_gpit)
   02EA 26 00         [ 7] 1272 	ld	h,#0x00
   02EC 19            [11] 1273 	add	hl,de
   02ED 3Ar32r00      [13] 1274 	ld	a,(#__en_t + 0)
   02F0 77            [ 7] 1275 	ld	(hl),a
                           1276 ;engine/enengine.h:23: en_s [gpit] = _en_s;
   02F1 11r11r02      [10] 1277 	ld	de,#_en_s+0
   02F4 2Ar08r00      [16] 1278 	ld	hl,(_gpit)
   02F7 26 00         [ 7] 1279 	ld	h,#0x00
   02F9 19            [11] 1280 	add	hl,de
   02FA 3Ar33r00      [13] 1281 	ld	a,(#__en_s + 0)
   02FD 77            [ 7] 1282 	ld	(hl),a
                           1283 ;engine/enengine.h:24: en_x [gpit] = _en_x; en_y [gpit] = _en_y;
   02FE 11rF9r01      [10] 1284 	ld	de,#_en_x+0
   0301 2Ar08r00      [16] 1285 	ld	hl,(_gpit)
   0304 26 00         [ 7] 1286 	ld	h,#0x00
   0306 19            [11] 1287 	add	hl,de
   0307 3Ar34r00      [13] 1288 	ld	a,(#__en_x + 0)
   030A 77            [ 7] 1289 	ld	(hl),a
   030B 11rFCr01      [10] 1290 	ld	de,#_en_y+0
   030E 2Ar08r00      [16] 1291 	ld	hl,(_gpit)
   0311 26 00         [ 7] 1292 	ld	h,#0x00
   0313 19            [11] 1293 	add	hl,de
   0314 3Ar35r00      [13] 1294 	ld	a,(#__en_y + 0)
   0317 77            [ 7] 1295 	ld	(hl),a
                           1296 ;engine/enengine.h:25: en_x1 [gpit] = _en_x1; en_y1 [gpit] = _en_y1;
   0318 11rFFr01      [10] 1297 	ld	de,#_en_x1+0
   031B 2Ar08r00      [16] 1298 	ld	hl,(_gpit)
   031E 26 00         [ 7] 1299 	ld	h,#0x00
   0320 19            [11] 1300 	add	hl,de
   0321 3Ar36r00      [13] 1301 	ld	a,(#__en_x1 + 0)
   0324 77            [ 7] 1302 	ld	(hl),a
   0325 11r02r02      [10] 1303 	ld	de,#_en_y1+0
   0328 2Ar08r00      [16] 1304 	ld	hl,(_gpit)
   032B 26 00         [ 7] 1305 	ld	h,#0x00
   032D 19            [11] 1306 	add	hl,de
   032E 3Ar37r00      [13] 1307 	ld	a,(#__en_y1 + 0)
   0331 77            [ 7] 1308 	ld	(hl),a
                           1309 ;engine/enengine.h:26: en_x2 [gpit] = _en_x2; en_y2 [gpit] = _en_y2;
   0332 11r05r02      [10] 1310 	ld	de,#_en_x2+0
   0335 2Ar08r00      [16] 1311 	ld	hl,(_gpit)
   0338 26 00         [ 7] 1312 	ld	h,#0x00
   033A 19            [11] 1313 	add	hl,de
   033B 3Ar38r00      [13] 1314 	ld	a,(#__en_x2 + 0)
   033E 77            [ 7] 1315 	ld	(hl),a
   033F 11r08r02      [10] 1316 	ld	de,#_en_y2+0
   0342 2Ar08r00      [16] 1317 	ld	hl,(_gpit)
   0345 26 00         [ 7] 1318 	ld	h,#0x00
   0347 19            [11] 1319 	add	hl,de
   0348 3Ar39r00      [13] 1320 	ld	a,(#__en_y2 + 0)
   034B 77            [ 7] 1321 	ld	(hl),a
                           1322 ;engine/enengine.h:27: en_mx [gpit] = _en_mx; en_my [gpit] = _en_my;
   034C 11r0Br02      [10] 1323 	ld	de,#_en_mx+0
   034F 2Ar08r00      [16] 1324 	ld	hl,(_gpit)
   0352 26 00         [ 7] 1325 	ld	h,#0x00
   0354 19            [11] 1326 	add	hl,de
   0355 3Ar3Ar00      [13] 1327 	ld	a,(#__en_mx + 0)
   0358 77            [ 7] 1328 	ld	(hl),a
   0359 11r0Er02      [10] 1329 	ld	de,#_en_my+0
   035C 2Ar08r00      [16] 1330 	ld	hl,(_gpit)
   035F 26 00         [ 7] 1331 	ld	h,#0x00
   0361 19            [11] 1332 	add	hl,de
   0362 3Ar3Br00      [13] 1333 	ld	a,(#__en_my + 0)
   0365 77            [ 7] 1334 	ld	(hl),a
                           1335 ;engine/enengine.h:28: en_ct [gpit] = _en_ct;
   0366 11r26r02      [10] 1336 	ld	de,#_en_ct+0
   0369 2Ar08r00      [16] 1337 	ld	hl,(_gpit)
   036C 26 00         [ 7] 1338 	ld	h,#0x00
   036E 19            [11] 1339 	add	hl,de
   036F 3Ar3Cr00      [13] 1340 	ld	a,(#__en_ct + 0)
   0372 77            [ 7] 1341 	ld	(hl),a
                           1342 ;engine/enengine.h:29: en_facing [gpit] = _en_facing;
   0373 11r14r02      [10] 1343 	ld	de,#_en_facing+0
   0376 2Ar08r00      [16] 1344 	ld	hl,(_gpit)
   0379 26 00         [ 7] 1345 	ld	h,#0x00
   037B 19            [11] 1346 	add	hl,de
   037C 3Ar3Dr00      [13] 1347 	ld	a,(#__en_facing + 0)
   037F 77            [ 7] 1348 	ld	(hl),a
                           1349 ;engine/enengine.h:30: en_state [gpit] = _en_state;
   0380 11r17r02      [10] 1350 	ld	de,#_en_state+0
   0383 2Ar08r00      [16] 1351 	ld	hl,(_gpit)
   0386 26 00         [ 7] 1352 	ld	h,#0x00
   0388 19            [11] 1353 	add	hl,de
   0389 3Ar3Er00      [13] 1354 	ld	a,(#__en_state + 0)
   038C 77            [ 7] 1355 	ld	(hl),a
                           1356 ;engine/enengine.h:33: enf_x [gpit] = _enf_x; enf_vx [gpit] = _enf_vx;
   038D FD 21r08r00   [14] 1357 	ld	iy,#_gpit
   0391 FD 6E 00      [19] 1358 	ld	l,0 (iy)
   0394 26 00         [ 7] 1359 	ld	h,#0x00
   0396 29            [11] 1360 	add	hl, hl
   0397 11r2Ar02      [10] 1361 	ld	de,#_enf_x
   039A 19            [11] 1362 	add	hl,de
   039B 3Ar3Fr00      [13] 1363 	ld	a,(#__enf_x + 0)
   039E 77            [ 7] 1364 	ld	(hl),a
   039F 23            [ 6] 1365 	inc	hl
   03A0 3Ar40r00      [13] 1366 	ld	a,(#__enf_x + 1)
   03A3 77            [ 7] 1367 	ld	(hl),a
   03A4 FD 21r08r00   [14] 1368 	ld	iy,#_gpit
   03A8 FD 6E 00      [19] 1369 	ld	l,0 (iy)
   03AB 26 00         [ 7] 1370 	ld	h,#0x00
   03AD 29            [11] 1371 	add	hl, hl
   03AE 11r30r02      [10] 1372 	ld	de,#_enf_vx
   03B1 19            [11] 1373 	add	hl,de
   03B2 3Ar43r00      [13] 1374 	ld	a,(#__enf_vx + 0)
   03B5 77            [ 7] 1375 	ld	(hl),a
   03B6 23            [ 6] 1376 	inc	hl
   03B7 3Ar44r00      [13] 1377 	ld	a,(#__enf_vx + 1)
   03BA 77            [ 7] 1378 	ld	(hl),a
                           1379 ;engine/enengine.h:34: enf_y [gpit] = _enf_y; enf_vy [gpit] = _enf_vy;
   03BB FD 21r08r00   [14] 1380 	ld	iy,#_gpit
   03BF FD 6E 00      [19] 1381 	ld	l,0 (iy)
   03C2 26 00         [ 7] 1382 	ld	h,#0x00
   03C4 29            [11] 1383 	add	hl, hl
   03C5 11r36r02      [10] 1384 	ld	de,#_enf_y
   03C8 19            [11] 1385 	add	hl,de
   03C9 3Ar41r00      [13] 1386 	ld	a,(#__enf_y + 0)
   03CC 77            [ 7] 1387 	ld	(hl),a
   03CD 23            [ 6] 1388 	inc	hl
   03CE 3Ar42r00      [13] 1389 	ld	a,(#__enf_y + 1)
   03D1 77            [ 7] 1390 	ld	(hl),a
   03D2 FD 21r08r00   [14] 1391 	ld	iy,#_gpit
   03D6 FD 6E 00      [19] 1392 	ld	l,0 (iy)
   03D9 26 00         [ 7] 1393 	ld	h,#0x00
   03DB 29            [11] 1394 	add	hl, hl
   03DC 11r3Cr02      [10] 1395 	ld	de,#_enf_vy
   03DF 19            [11] 1396 	add	hl,de
   03E0 3Ar45r00      [13] 1397 	ld	a,(#__enf_vy + 0)
   03E3 77            [ 7] 1398 	ld	(hl),a
   03E4 23            [ 6] 1399 	inc	hl
   03E5 3Ar46r00      [13] 1400 	ld	a,(#__enf_vy + 1)
   03E8 77            [ 7] 1401 	ld	(hl),a
   03E9 C9            [10] 1402 	ret
                           1403 ;engine/enengine.h:38: void enems_facing (void) {
                           1404 ;	---------------------------------
                           1405 ; Function enems_facing
                           1406 ; ---------------------------------
   03EA                    1407 _enems_facing::
                           1408 ;engine/enengine.h:39: _en_facing = rda << 2;
   03EA 3Ar18r00      [13] 1409 	ld	a,(#_rda + 0)
   03ED 87            [ 4] 1410 	add	a, a
   03EE 87            [ 4] 1411 	add	a, a
   03EF 32r3Dr00      [13] 1412 	ld	(#__en_facing + 0),a
   03F2 C9            [10] 1413 	ret
                           1414 ;engine/enengine.h:42: void enems_init_fp (void) {
                           1415 ;	---------------------------------
                           1416 ; Function enems_init_fp
                           1417 ; ---------------------------------
   03F3                    1418 _enems_init_fp::
                           1419 ;engine/enengine.h:43: _enf_x = _en_x << 6;
   03F3 FD 21r34r00   [14] 1420 	ld	iy,#__en_x
   03F7 FD 6E 00      [19] 1421 	ld	l,0 (iy)
   03FA 26 00         [ 7] 1422 	ld	h,#0x00
   03FC 29            [11] 1423 	add	hl, hl
   03FD 29            [11] 1424 	add	hl, hl
   03FE 29            [11] 1425 	add	hl, hl
   03FF 29            [11] 1426 	add	hl, hl
   0400 29            [11] 1427 	add	hl, hl
   0401 29            [11] 1428 	add	hl, hl
   0402 22r3Fr00      [16] 1429 	ld	(__enf_x),hl
                           1430 ;engine/enengine.h:44: _enf_y = _en_y << 6;
   0405 FD 21r35r00   [14] 1431 	ld	iy,#__en_y
   0409 FD 6E 00      [19] 1432 	ld	l,0 (iy)
   040C 26 00         [ 7] 1433 	ld	h,#0x00
   040E 29            [11] 1434 	add	hl, hl
   040F 29            [11] 1435 	add	hl, hl
   0410 29            [11] 1436 	add	hl, hl
   0411 29            [11] 1437 	add	hl, hl
   0412 29            [11] 1438 	add	hl, hl
   0413 29            [11] 1439 	add	hl, hl
   0414 22r41r00      [16] 1440 	ld	(__enf_y),hl
   0417 C9            [10] 1441 	ret
                           1442 ;engine/enengine.h:47: void enems_boioiong_init (void) {
                           1443 ;	---------------------------------
                           1444 ; Function enems_boioiong_init
                           1445 ; ---------------------------------
   0418                    1446 _enems_boioiong_init::
                           1447 ;engine/enengine.h:48: enems_init_fp ();
   0418 CDrF3r03      [17] 1448 	call	_enems_init_fp
                           1449 ;engine/enengine.h:49: _enf_vy = 0; 
   041B 21 00 00      [10] 1450 	ld	hl,#0x0000
   041E 22r45r00      [16] 1451 	ld	(__enf_vy),hl
                           1452 ;engine/enengine.h:50: _enf_vx = ADD_SIGN2 (_en_x2, _en_x1, rdm << FIXBITS);
   0421 3Ar38r00      [13] 1453 	ld	a,(#__en_x2 + 0)
   0424 FD 21r36r00   [14] 1454 	ld	iy,#__en_x1
   0428 FD 96 00      [19] 1455 	sub	a, 0 (iy)
   042B 20 05         [12] 1456 	jr	NZ,00103$
   042D 11 00 00      [10] 1457 	ld	de,#0x0000
   0430 18 23         [12] 1458 	jr	00104$
   0432                    1459 00103$:
   0432 FD 21r1Cr00   [14] 1460 	ld	iy,#_rdm
   0436 FD 6E 00      [19] 1461 	ld	l,0 (iy)
   0439 26 00         [ 7] 1462 	ld	h,#0x00
   043B 29            [11] 1463 	add	hl, hl
   043C 29            [11] 1464 	add	hl, hl
   043D 29            [11] 1465 	add	hl, hl
   043E 29            [11] 1466 	add	hl, hl
   043F 29            [11] 1467 	add	hl, hl
   0440 29            [11] 1468 	add	hl, hl
   0441 EB            [ 4] 1469 	ex	de,hl
   0442 3Ar36r00      [13] 1470 	ld	a,(#__en_x1)
   0445 FD 21r38r00   [14] 1471 	ld	iy,#__en_x2
   0449 FD 96 00      [19] 1472 	sub	a, 0 (iy)
   044C 38 07         [12] 1473 	jr	C,00106$
   044E AF            [ 4] 1474 	xor	a, a
   044F 93            [ 4] 1475 	sub	a, e
   0450 5F            [ 4] 1476 	ld	e,a
   0451 3E 00         [ 7] 1477 	ld	a, #0x00
   0453 9A            [ 4] 1478 	sbc	a, d
   0454 57            [ 4] 1479 	ld	d,a
   0455                    1480 00106$:
   0455                    1481 00104$:
   0455 ED 53r43r00   [20] 1482 	ld	(__enf_vx),de
                           1483 ;engine/enengine.h:54: _en_ct = 0;
   0459 21r3Cr00      [10] 1484 	ld	hl,#__en_ct + 0
   045C 36 00         [10] 1485 	ld	(hl), #0x00
   045E C9            [10] 1486 	ret
                           1487 ;engine/enengine.h:58: void enems_load (void) {
                           1488 ;	---------------------------------
                           1489 ; Function enems_load
                           1490 ; ---------------------------------
   045F                    1491 _enems_load::
                           1492 ;engine/enengine.h:59: gp_gen = (unsigned char *) (c_enems + (n_pant << 2) + (n_pant << 3));
   045F 21rBAr01      [10] 1493 	ld	hl,#_n_pant + 0
   0462 4E            [ 7] 1494 	ld	c, (hl)
   0463 06 00         [ 7] 1495 	ld	b,#0x00
   0465 59            [ 4] 1496 	ld	e, c
   0466 50            [ 4] 1497 	ld	d, b
   0467 CB 23         [ 8] 1498 	sla	e
   0469 CB 12         [ 8] 1499 	rl	d
   046B CB 23         [ 8] 1500 	sla	e
   046D CB 12         [ 8] 1501 	rl	d
   046F 3Ar8Dr00      [13] 1502 	ld	a,(#_c_enems + 0)
   0472 83            [ 4] 1503 	add	a, e
   0473 5F            [ 4] 1504 	ld	e,a
   0474 3Ar8Er00      [13] 1505 	ld	a,(#_c_enems + 1)
   0477 8A            [ 4] 1506 	adc	a, d
   0478 57            [ 4] 1507 	ld	d,a
   0479 CB 21         [ 8] 1508 	sla	c
   047B CB 10         [ 8] 1509 	rl	b
   047D CB 21         [ 8] 1510 	sla	c
   047F CB 10         [ 8] 1511 	rl	b
   0481 CB 21         [ 8] 1512 	sla	c
   0483 CB 10         [ 8] 1513 	rl	b
   0485 7B            [ 4] 1514 	ld	a,e
   0486 21r0Cr00      [10] 1515 	ld	hl,#_gp_gen
   0489 81            [ 4] 1516 	add	a, c
   048A 77            [ 7] 1517 	ld	(hl),a
   048B 7A            [ 4] 1518 	ld	a,d
   048C 88            [ 4] 1519 	adc	a, b
   048D 23            [ 6] 1520 	inc	hl
   048E 77            [ 7] 1521 	ld	(hl),a
                           1522 ;engine/enengine.h:62: en_offs = rdc = (n_pant << 1) + n_pant;
   048F 3ArBAr01      [13] 1523 	ld	a,(#_n_pant + 0)
   0492 87            [ 4] 1524 	add	a, a
   0493 21rBAr01      [10] 1525 	ld	hl,#_n_pant
   0496 86            [ 7] 1526 	add	a, (hl)
   0497 32r1Ar00      [13] 1527 	ld	(#_rdc + 0),a
   049A 32r2Ar00      [13] 1528 	ld	(#_en_offs + 0),a
                           1529 ;engine/enengine.h:65: for (gpit = 0; gpit < 3; gpit ++) {
   049D 21r08r00      [10] 1530 	ld	hl,#_gpit + 0
   04A0 36 00         [10] 1531 	ld	(hl), #0x00
   04A2                    1532 00118$:
                           1533 ;engine/enengine.h:69: if (ep_dead [rdc]) {
   04A2 FD 21r45r02   [14] 1534 	ld	iy,#_ep_dead
   04A6 ED 5Br1Ar00   [20] 1535 	ld	de,(_rdc)
   04AA 16 00         [ 7] 1536 	ld	d,#0x00
   04AC FD 19         [15] 1537 	add	iy, de
   04AE FD 7E 00      [19] 1538 	ld	a, 0 (iy)
   04B1 B7            [ 4] 1539 	or	a, a
   04B2 28 14         [12] 1540 	jr	Z,00115$
                           1541 ;engine/enengine.h:70: _en_t = 0;
   04B4 21r32r00      [10] 1542 	ld	hl,#__en_t + 0
   04B7 36 00         [10] 1543 	ld	(hl), #0x00
                           1544 ;engine/enengine.h:71: gp_gen += 4;
   04B9 21r0Cr00      [10] 1545 	ld	hl,#_gp_gen
   04BC 7E            [ 7] 1546 	ld	a,(hl)
   04BD C6 04         [ 7] 1547 	add	a, #0x04
   04BF 77            [ 7] 1548 	ld	(hl),a
   04C0 23            [ 6] 1549 	inc	hl
   04C1 7E            [ 7] 1550 	ld	a,(hl)
   04C2 CE 00         [ 7] 1551 	adc	a, #0x00
   04C4 77            [ 7] 1552 	ld	(hl),a
   04C5 C3r6Cr06      [10] 1553 	jp	00116$
   04C8                    1554 00115$:
                           1555 ;engine/enengine.h:76: _en_t = *gp_gen ++;
   04C8 2Ar0Cr00      [16] 1556 	ld	hl,(_gp_gen)
   04CB 7E            [ 7] 1557 	ld	a,(hl)
   04CC 32r32r00      [13] 1558 	ld	(#__en_t + 0),a
   04CF 21r0Cr00      [10] 1559 	ld	hl, #_gp_gen+0
   04D2 34            [11] 1560 	inc	(hl)
   04D3 20 04         [12] 1561 	jr	NZ,00190$
   04D5 21r0Dr00      [10] 1562 	ld	hl, #_gp_gen+1
   04D8 34            [11] 1563 	inc	(hl)
   04D9                    1564 00190$:
                           1565 ;engine/enengine.h:79: _en_state = 0;
   04D9 21r3Er00      [10] 1566 	ld	hl,#__en_state + 0
   04DC 36 00         [10] 1567 	ld	(hl), #0x00
                           1568 ;engine/enengine.h:82: rda = *gp_gen ++;
   04DE 2Ar0Cr00      [16] 1569 	ld	hl,(_gp_gen)
   04E1 7E            [ 7] 1570 	ld	a,(hl)
   04E2 32r18r00      [13] 1571 	ld	(#_rda + 0),a
   04E5 21r0Cr00      [10] 1572 	ld	hl, #_gp_gen+0
   04E8 34            [11] 1573 	inc	(hl)
   04E9 20 04         [12] 1574 	jr	NZ,00191$
   04EB 21r0Dr00      [10] 1575 	ld	hl, #_gp_gen+1
   04EE 34            [11] 1576 	inc	(hl)
   04EF                    1577 00191$:
                           1578 ;engine/enengine.h:83: _en_y1 = rda & 0xf0;
   04EF 3Ar18r00      [13] 1579 	ld	a,(#_rda + 0)
   04F2 E6 F0         [ 7] 1580 	and	a, #0xF0
   04F4 32r37r00      [13] 1581 	ld	(#__en_y1 + 0),a
                           1582 ;engine/enengine.h:84: _en_x1 = rda << 4;
   04F7 3Ar18r00      [13] 1583 	ld	a,(#_rda + 0)
   04FA 07            [ 4] 1584 	rlca
   04FB 07            [ 4] 1585 	rlca
   04FC 07            [ 4] 1586 	rlca
   04FD 07            [ 4] 1587 	rlca
   04FE E6 F0         [ 7] 1588 	and	a,#0xF0
   0500 32r36r00      [13] 1589 	ld	(#__en_x1 + 0),a
                           1590 ;engine/enengine.h:87: rda = *gp_gen ++;
   0503 2Ar0Cr00      [16] 1591 	ld	hl,(_gp_gen)
   0506 7E            [ 7] 1592 	ld	a,(hl)
   0507 32r18r00      [13] 1593 	ld	(#_rda + 0),a
   050A 21r0Cr00      [10] 1594 	ld	hl, #_gp_gen+0
   050D 34            [11] 1595 	inc	(hl)
   050E 20 04         [12] 1596 	jr	NZ,00192$
   0510 21r0Dr00      [10] 1597 	ld	hl, #_gp_gen+1
   0513 34            [11] 1598 	inc	(hl)
   0514                    1599 00192$:
                           1600 ;engine/enengine.h:88: _en_y2 = rda & 0xf0;
   0514 3Ar18r00      [13] 1601 	ld	a,(#_rda + 0)
   0517 E6 F0         [ 7] 1602 	and	a, #0xF0
   0519 32r39r00      [13] 1603 	ld	(#__en_y2 + 0),a
                           1604 ;engine/enengine.h:89: _en_x2 = rda << 4;
   051C 3Ar18r00      [13] 1605 	ld	a,(#_rda + 0)
   051F 07            [ 4] 1606 	rlca
   0520 07            [ 4] 1607 	rlca
   0521 07            [ 4] 1608 	rlca
   0522 07            [ 4] 1609 	rlca
   0523 E6 F0         [ 7] 1610 	and	a,#0xF0
   0525 32r38r00      [13] 1611 	ld	(#__en_x2 + 0),a
                           1612 ;engine/enengine.h:92: rda = *gp_gen ++;
   0528 2Ar0Cr00      [16] 1613 	ld	hl,(_gp_gen)
   052B 7E            [ 7] 1614 	ld	a,(hl)
   052C 32r18r00      [13] 1615 	ld	(#_rda + 0),a
   052F 21r0Cr00      [10] 1616 	ld	hl, #_gp_gen+0
   0532 34            [11] 1617 	inc	(hl)
   0533 20 04         [12] 1618 	jr	NZ,00193$
   0535 21r0Dr00      [10] 1619 	ld	hl, #_gp_gen+1
   0538 34            [11] 1620 	inc	(hl)
   0539                    1621 00193$:
                           1622 ;engine/enengine.h:95: rdd = rda & 0xf0; 	// Used for respawn speed!
   0539 3Ar18r00      [13] 1623 	ld	a,(#_rda + 0)
   053C E6 F0         [ 7] 1624 	and	a, #0xF0
   053E 32r1Br00      [13] 1625 	ld	(#_rdd + 0),a
                           1626 ;engine/enengine.h:96: rdm = rda & 0x0f; 	// Actual speed.
   0541 3Ar18r00      [13] 1627 	ld	a,(#_rda + 0)
   0544 E6 0F         [ 7] 1628 	and	a, #0x0F
   0546 32r1Cr00      [13] 1629 	ld	(#_rdm + 0),a
                           1630 ;engine/enengine.h:99: _en_x = _en_x1;
   0549 3Ar36r00      [13] 1631 	ld	a,(#__en_x1 + 0)
   054C 32r34r00      [13] 1632 	ld	(#__en_x + 0),a
                           1633 ;engine/enengine.h:100: _en_y = _en_y1;
   054F 3Ar37r00      [13] 1634 	ld	a,(#__en_y1 + 0)
   0552 32r35r00      [13] 1635 	ld	(#__en_y + 0),a
                           1636 ;engine/enengine.h:102: switch (_en_t & 0x3f) {
   0555 3Ar32r00      [13] 1637 	ld	a,(#__en_t + 0)
   0558 E6 3F         [ 7] 1638 	and	a, #0x3F
   055A 6F            [ 4] 1639 	ld	l,a
   055B 3D            [ 4] 1640 	dec	a
   055C 28 15         [12] 1641 	jr	Z,00104$
   055E 7D            [ 4] 1642 	ld	a,l
   055F FE 02         [ 7] 1643 	cp	a,#0x02
   0561 28 10         [12] 1644 	jr	Z,00104$
   0563 FE 03         [ 7] 1645 	cp	a,#0x03
   0565 28 0C         [12] 1646 	jr	Z,00104$
   0567 FE 04         [ 7] 1647 	cp	a,#0x04
   0569 28 08         [12] 1648 	jr	Z,00104$
   056B D6 06         [ 7] 1649 	sub	a, #0x06
   056D CAr3Dr06      [10] 1650 	jp	Z,00112$
   0570 C3r50r06      [10] 1651 	jp	00113$
                           1652 ;engine/enengine.h:106: case 4:
   0573                    1653 00104$:
                           1654 ;engine/enengine.h:109: _en_ct = 0;			
   0573 21r3Cr00      [10] 1655 	ld	hl,#__en_ct + 0
   0576 36 00         [10] 1656 	ld	(hl), #0x00
                           1657 ;engine/enengine.h:110: _en_s = (_en_t - 1) << 3;
   0578 3Ar32r00      [13] 1658 	ld	a,(#__en_t + 0)
   057B C6 FF         [ 7] 1659 	add	a,#0xFF
   057D 07            [ 4] 1660 	rlca
   057E 07            [ 4] 1661 	rlca
   057F 07            [ 4] 1662 	rlca
   0580 E6 F8         [ 7] 1663 	and	a,#0xF8
   0582 32r33r00      [13] 1664 	ld	(#__en_s + 0),a
                           1665 ;engine/enengine.h:119: _en_mx = ADD_SIGN2 (_en_x2, _en_x1, rdm);
   0585 21r1Cr00      [10] 1666 	ld	hl,#_rdm + 0
   0588 56            [ 7] 1667 	ld	d, (hl)
   0589 AF            [ 4] 1668 	xor	a, a
   058A FD 21r1Cr00   [14] 1669 	ld	iy,#_rdm
   058E FD 96 00      [19] 1670 	sub	a, 0 (iy)
   0591 5F            [ 4] 1671 	ld	e,a
   0592 3Ar38r00      [13] 1672 	ld	a,(#__en_x2 + 0)
   0595 FD 21r36r00   [14] 1673 	ld	iy,#__en_x1
   0599 FD 96 00      [19] 1674 	sub	a, 0 (iy)
   059C 20 04         [12] 1675 	jr	NZ,00122$
   059E 3E 00         [ 7] 1676 	ld	a,#0x00
   05A0 18 10         [12] 1677 	jr	00123$
   05A2                    1678 00122$:
   05A2 3Ar36r00      [13] 1679 	ld	a,(#__en_x1)
   05A5 FD 21r38r00   [14] 1680 	ld	iy,#__en_x2
   05A9 FD 96 00      [19] 1681 	sub	a, 0 (iy)
   05AC 30 03         [12] 1682 	jr	NC,00124$
   05AE 7A            [ 4] 1683 	ld	a,d
   05AF 18 01         [12] 1684 	jr	00125$
   05B1                    1685 00124$:
   05B1 7B            [ 4] 1686 	ld	a,e
   05B2                    1687 00125$:
   05B2                    1688 00123$:
   05B2 32r3Ar00      [13] 1689 	ld	(#__en_mx + 0),a
                           1690 ;engine/enengine.h:120: _en_my = ADD_SIGN2 (_en_y2, _en_y1, rdm);
   05B5 3Ar39r00      [13] 1691 	ld	a,(#__en_y2 + 0)
   05B8 FD 21r37r00   [14] 1692 	ld	iy,#__en_y1
   05BC FD 96 00      [19] 1693 	sub	a, 0 (iy)
   05BF 20 04         [12] 1694 	jr	NZ,00126$
   05C1 1E 00         [ 7] 1695 	ld	e,#0x00
   05C3 18 0D         [12] 1696 	jr	00127$
   05C5                    1697 00126$:
   05C5 3Ar37r00      [13] 1698 	ld	a,(#__en_y1)
   05C8 FD 21r39r00   [14] 1699 	ld	iy,#__en_y2
   05CC FD 96 00      [19] 1700 	sub	a, 0 (iy)
   05CF 30 01         [12] 1701 	jr	NC,00128$
   05D1 5A            [ 4] 1702 	ld	e,d
   05D2                    1703 00128$:
   05D2                    1704 00127$:
   05D2 21r3Br00      [10] 1705 	ld	hl,#__en_my + 0
   05D5 73            [ 7] 1706 	ld	(hl), e
                           1707 ;engine/enengine.h:125: en_status [gpit] = 1; 
   05D6 3Er23         [ 7] 1708 	ld	a,#<(_en_status)
   05D8 21r08r00      [10] 1709 	ld	hl,#_gpit
   05DB 86            [ 7] 1710 	add	a, (hl)
   05DC 5F            [ 4] 1711 	ld	e,a
   05DD 3Es02         [ 7] 1712 	ld	a,#>(_en_status)
   05DF CE 00         [ 7] 1713 	adc	a, #0x00
   05E1 57            [ 4] 1714 	ld	d,a
                           1715 ;engine/enengine.h:124: if (rdm == 1) {
   05E2 3Ar1Cr00      [13] 1716 	ld	a,(#_rdm + 0)
   05E5 3D            [ 4] 1717 	dec	a
   05E6 20 05         [12] 1718 	jr	NZ,00106$
                           1719 ;engine/enengine.h:125: en_status [gpit] = 1; 
   05E8 3E 01         [ 7] 1720 	ld	a,#0x01
   05EA 12            [ 7] 1721 	ld	(de),a
   05EB 18 12         [12] 1722 	jr	00107$
   05ED                    1723 00106$:
                           1724 ;engine/enengine.h:127: en_status [gpit] = 0;
   05ED AF            [ 4] 1725 	xor	a, a
   05EE 12            [ 7] 1726 	ld	(de),a
                           1727 ;engine/enengine.h:128: _en_mx >>= 1;
   05EF 3Ar3Ar00      [13] 1728 	ld	a,(#__en_mx + 0)
   05F2 CB 2F         [ 8] 1729 	sra	a
   05F4 32r3Ar00      [13] 1730 	ld	(#__en_mx + 0),a
                           1731 ;engine/enengine.h:129: _en_my >>= 1;						
   05F7 3Ar3Br00      [13] 1732 	ld	a,(#__en_my + 0)
   05FA CB 2F         [ 8] 1733 	sra	a
   05FC 32r3Br00      [13] 1734 	ld	(#__en_my + 0),a
   05FF                    1735 00107$:
                           1736 ;engine/enengine.h:133: if (_en_x1 > _en_x2) { rda = _en_x1; _en_x1 = _en_x2; _en_x2 = rda; }
   05FF 3Ar38r00      [13] 1737 	ld	a,(#__en_x2)
   0602 FD 21r36r00   [14] 1738 	ld	iy,#__en_x1
   0606 FD 96 00      [19] 1739 	sub	a, 0 (iy)
   0609 30 12         [12] 1740 	jr	NC,00109$
   060B 3Ar36r00      [13] 1741 	ld	a,(#__en_x1 + 0)
   060E 32r18r00      [13] 1742 	ld	(#_rda + 0),a
   0611 3Ar38r00      [13] 1743 	ld	a,(#__en_x2 + 0)
   0614 32r36r00      [13] 1744 	ld	(#__en_x1 + 0),a
   0617 3Ar18r00      [13] 1745 	ld	a,(#_rda + 0)
   061A 32r38r00      [13] 1746 	ld	(#__en_x2 + 0),a
   061D                    1747 00109$:
                           1748 ;engine/enengine.h:134: if (_en_y1 > _en_y2) { rda = _en_y1; _en_y1 = _en_y2; _en_y2 = rda; }
   061D 3Ar39r00      [13] 1749 	ld	a,(#__en_y2)
   0620 FD 21r37r00   [14] 1750 	ld	iy,#__en_y1
   0624 FD 96 00      [19] 1751 	sub	a, 0 (iy)
   0627 30 27         [12] 1752 	jr	NC,00113$
   0629 3Ar37r00      [13] 1753 	ld	a,(#__en_y1 + 0)
   062C 32r18r00      [13] 1754 	ld	(#_rda + 0),a
   062F 3Ar39r00      [13] 1755 	ld	a,(#__en_y2 + 0)
   0632 32r37r00      [13] 1756 	ld	(#__en_y1 + 0),a
   0635 3Ar18r00      [13] 1757 	ld	a,(#_rda + 0)
   0638 32r39r00      [13] 1758 	ld	(#__en_y2 + 0),a
                           1759 ;engine/enengine.h:144: break;
   063B 18 13         [12] 1760 	jr	00113$
                           1761 ;engine/enengine.h:161: case 6:
   063D                    1762 00112$:
                           1763 ;engine/enengine.h:163: enems_init_fp ();
   063D CDrF3r03      [17] 1764 	call	_enems_init_fp
                           1765 ;engine/enengine.h:164: _enf_vx = _enf_vy = 0;
   0640 21 00 00      [10] 1766 	ld	hl,#0x0000
   0643 22r45r00      [16] 1767 	ld	(__enf_vy),hl
   0646 2E 00         [ 7] 1768 	ld	l, #0x00
   0648 22r43r00      [16] 1769 	ld	(__enf_vx),hl
                           1770 ;engine/enengine.h:169: _en_s = FANTY_BASE_SPRID;
   064B 21r33r00      [10] 1771 	ld	hl,#__en_s + 0
   064E 36 20         [10] 1772 	ld	(hl), #0x20
                           1773 ;engine/enengine.h:274: }
   0650                    1774 00113$:
                           1775 ;engine/enengine.h:284: en_cttouched [gpit] = 0;
   0650 3Er1D         [ 7] 1776 	ld	a,#<(_en_cttouched)
   0652 21r08r00      [10] 1777 	ld	hl,#_gpit
   0655 86            [ 7] 1778 	add	a, (hl)
   0656 5F            [ 4] 1779 	ld	e,a
   0657 3Es02         [ 7] 1780 	ld	a,#>(_en_cttouched)
   0659 CE 00         [ 7] 1781 	adc	a, #0x00
   065B 57            [ 4] 1782 	ld	d,a
   065C AF            [ 4] 1783 	xor	a, a
   065D 12            [ 7] 1784 	ld	(de),a
                           1785 ;engine/enengine.h:285: en_flags [gpit] = 0;
   065E 3Er1A         [ 7] 1786 	ld	a,#<(_en_flags)
   0660 21r08r00      [10] 1787 	ld	hl,#_gpit
   0663 86            [ 7] 1788 	add	a, (hl)
   0664 5F            [ 4] 1789 	ld	e,a
   0665 3Es02         [ 7] 1790 	ld	a,#>(_en_flags)
   0667 CE 00         [ 7] 1791 	adc	a, #0x00
   0669 57            [ 4] 1792 	ld	d,a
   066A AF            [ 4] 1793 	xor	a, a
   066B 12            [ 7] 1794 	ld	(de),a
   066C                    1795 00116$:
                           1796 ;engine/enengine.h:288: ++ rdc;
   066C 21r1Ar00      [10] 1797 	ld	hl, #_rdc+0
   066F 34            [11] 1798 	inc	(hl)
                           1799 ;engine/enengine.h:291: enems_update_unsigned_char_arrays ();
   0670 CDrE4r02      [17] 1800 	call	_enems_update_unsigned_char_arrays
                           1801 ;engine/enengine.h:65: for (gpit = 0; gpit < 3; gpit ++) {
   0673 21r08r00      [10] 1802 	ld	hl, #_gpit+0
   0676 34            [11] 1803 	inc	(hl)
   0677 3Ar08r00      [13] 1804 	ld	a,(#_gpit + 0)
   067A D6 03         [ 7] 1805 	sub	a, #0x03
   067C DArA2r04      [10] 1806 	jp	C,00118$
   067F C9            [10] 1807 	ret
                           1808 ;engine/enengine.h:296: void enems_kill () {
                           1809 ;	---------------------------------
                           1810 ; Function enems_kill
                           1811 ; ---------------------------------
   0680                    1812 _enems_kill::
                           1813 ;engine/enengine.h:297: en_flags [gpit] |= EN_STATE_DEAD;
   0680 11r1Ar02      [10] 1814 	ld	de,#_en_flags+0
   0683 2Ar08r00      [16] 1815 	ld	hl,(_gpit)
   0686 26 00         [ 7] 1816 	ld	h,#0x00
   0688 19            [11] 1817 	add	hl,de
   0689 CB C6         [15] 1818 	set	0, (hl)
   068B 7E            [ 7] 1819 	ld	a, (hl)
                           1820 ;engine/enengine.h:303: ep_dead [en_offs + gpit] = 1;
   068C 21r08r00      [10] 1821 	ld	hl,#_gpit
   068F 3Ar2Ar00      [13] 1822 	ld	a,(#_en_offs + 0)
   0692 86            [ 7] 1823 	add	a, (hl)
   0693 5F            [ 4] 1824 	ld	e,a
   0694 21r45r02      [10] 1825 	ld	hl,#_ep_dead
   0697 16 00         [ 7] 1826 	ld	d,#0x00
   0699 19            [11] 1827 	add	hl, de
   069A 36 01         [10] 1828 	ld	(hl),#0x01
                           1829 ;engine/enengine.h:314: ++ pkilled;
   069C 21r73r00      [10] 1830 	ld	hl, #_pkilled+0
   069F 34            [11] 1831 	inc	(hl)
   06A0 C9            [10] 1832 	ret
                           1833 ;engine/enengine.h:321: void enems_hit (void) {
                           1834 ;	---------------------------------
                           1835 ; Function enems_hit
                           1836 ; ---------------------------------
   06A1                    1837 _enems_hit::
                           1838 ;engine/enengine.h:322: _en_facing = ((_en_x < prx) ? 0 : 4);
   06A1 21r52r00      [10] 1839 	ld	hl,#_prx
   06A4 3Ar34r00      [13] 1840 	ld	a,(#__en_x + 0)
   06A7 96            [ 7] 1841 	sub	a, (hl)
   06A8 30 04         [12] 1842 	jr	NC,00103$
   06AA 3E 00         [ 7] 1843 	ld	a,#0x00
   06AC 18 02         [12] 1844 	jr	00104$
   06AE                    1845 00103$:
   06AE 3E 04         [ 7] 1846 	ld	a,#0x04
   06B0                    1847 00104$:
   06B0 32r3Dr00      [13] 1848 	ld	(#__en_facing + 0),a
                           1849 ;engine/enengine.h:323: en_cttouched [gpit] = ENEMS_TOUCHED_FRAMES;
   06B3 11r1Dr02      [10] 1850 	ld	de,#_en_cttouched+0
   06B6 2Ar08r00      [16] 1851 	ld	hl,(_gpit)
   06B9 26 00         [ 7] 1852 	ld	h,#0x00
   06BB 19            [11] 1853 	add	hl,de
   06BC 36 08         [10] 1854 	ld	(hl),#0x08
                           1855 ;engine/enengine.h:339: enems_kill ();
   06BE C3r80r06      [10] 1856 	jp  _enems_kill
                           1857 ;engine/enengine.h:345: void enems_move (void) {
                           1858 ;	---------------------------------
                           1859 ; Function enems_move
                           1860 ; ---------------------------------
   06C1                    1861 _enems_move::
   06C1 DD E5         [15] 1862 	push	ix
   06C3 DD 21 00 00   [14] 1863 	ld	ix,#0
   06C7 DD 39         [15] 1864 	add	ix,sp
   06C9 21 F7 FF      [10] 1865 	ld	hl,#-9
   06CC 39            [11] 1866 	add	hl,sp
   06CD F9            [ 6] 1867 	ld	sp,hl
                           1868 ;engine/enengine.h:347: pgotten = pgtmx = pgtmy = 0;
   06CE 21 00 00      [10] 1869 	ld	hl,#0x0000
   06D1 22r65r00      [16] 1870 	ld	(_pgtmy),hl
   06D4 2E 00         [ 7] 1871 	ld	l, #0x00
   06D6 22r63r00      [16] 1872 	ld	(_pgtmx),hl
   06D9 21r5Dr00      [10] 1873 	ld	hl,#_pgotten + 0
   06DC 36 00         [10] 1874 	ld	(hl), #0x00
                           1875 ;engine/enengine.h:351: touched = 0;
   06DE 21r2Fr00      [10] 1876 	ld	hl,#_touched + 0
   06E1 36 00         [10] 1877 	ld	(hl), #0x00
                           1878 ;engine/enengine.h:352: ++ en_initial; if (en_initial >= 3) en_initial = 0;
   06E3 21r29r00      [10] 1879 	ld	hl, #_en_initial+0
   06E6 34            [11] 1880 	inc	(hl)
   06E7 3Ar29r00      [13] 1881 	ld	a,(#_en_initial + 0)
   06EA D6 03         [ 7] 1882 	sub	a, #0x03
   06EC 38 05         [12] 1883 	jr	C,00102$
   06EE 21r29r00      [10] 1884 	ld	hl,#_en_initial + 0
   06F1 36 00         [10] 1885 	ld	(hl), #0x00
   06F3                    1886 00102$:
                           1887 ;engine/enengine.h:353: gpit = en_initial;
   06F3 3Ar29r00      [13] 1888 	ld	a,(#_en_initial + 0)
   06F6 32r08r00      [13] 1889 	ld	(#_gpit + 0),a
                           1890 ;engine/enengine.h:354: gpjt = 3; while (gpjt --) {
   06F9 21r09r00      [10] 1891 	ld	hl,#_gpjt + 0
   06FC 36 03         [10] 1892 	ld	(hl), #0x03
   06FE                    1893 00233$:
   06FE 21r09r00      [10] 1894 	ld	hl,#_gpjt + 0
   0701 56            [ 7] 1895 	ld	d, (hl)
   0702 21r09r00      [10] 1896 	ld	hl, #_gpjt+0
   0705 35            [11] 1897 	dec	(hl)
   0706 7A            [ 4] 1898 	ld	a,d
   0707 B7            [ 4] 1899 	or	a, a
   0708 CAr26r13      [10] 1900 	jp	Z,00236$
                           1901 ;engine/enengine.h:355: gpit += 2; if (gpit > 2) gpit -=3;
   070B 21r08r00      [10] 1902 	ld	hl, #_gpit+0
   070E 34            [11] 1903 	inc	(hl)
   070F 21r08r00      [10] 1904 	ld	hl, #_gpit+0
   0712 34            [11] 1905 	inc	(hl)
   0713 3E 02         [ 7] 1906 	ld	a,#0x02
   0715 FD 21r08r00   [14] 1907 	ld	iy,#_gpit
   0719 FD 96 00      [19] 1908 	sub	a, 0 (iy)
   071C 30 07         [12] 1909 	jr	NC,00104$
   071E 21r08r00      [10] 1910 	ld	hl,#_gpit
   0721 7E            [ 7] 1911 	ld	a,(hl)
   0722 C6 FD         [ 7] 1912 	add	a,#0xFD
   0724 77            [ 7] 1913 	ld	(hl),a
   0725                    1914 00104$:
                           1915 ;engine/enengine.h:358: _en_t = en_t [gpit];
   0725 3ErF6         [ 7] 1916 	ld	a,#<(_en_t)
   0727 21r08r00      [10] 1917 	ld	hl,#_gpit
   072A 86            [ 7] 1918 	add	a, (hl)
   072B 5F            [ 4] 1919 	ld	e,a
   072C 3Es01         [ 7] 1920 	ld	a,#>(_en_t)
   072E CE 00         [ 7] 1921 	adc	a, #0x00
   0730 57            [ 4] 1922 	ld	d,a
   0731 1A            [ 7] 1923 	ld	a,(de)
   0732 32r32r00      [13] 1924 	ld	(#__en_t + 0),a
                           1925 ;engine/enengine.h:359: _en_s = en_s [gpit];
   0735 3Er11         [ 7] 1926 	ld	a,#<(_en_s)
   0737 21r08r00      [10] 1927 	ld	hl,#_gpit
   073A 86            [ 7] 1928 	add	a, (hl)
   073B 5F            [ 4] 1929 	ld	e,a
   073C 3Es02         [ 7] 1930 	ld	a,#>(_en_s)
   073E CE 00         [ 7] 1931 	adc	a, #0x00
   0740 57            [ 4] 1932 	ld	d,a
   0741 1A            [ 7] 1933 	ld	a,(de)
   0742 32r33r00      [13] 1934 	ld	(#__en_s + 0),a
                           1935 ;engine/enengine.h:360: _en_x = en_x [gpit]; _en_y = en_y [gpit];
   0745 3ErF9         [ 7] 1936 	ld	a,#<(_en_x)
   0747 21r08r00      [10] 1937 	ld	hl,#_gpit
   074A 86            [ 7] 1938 	add	a, (hl)
   074B 5F            [ 4] 1939 	ld	e,a
   074C 3Es01         [ 7] 1940 	ld	a,#>(_en_x)
   074E CE 00         [ 7] 1941 	adc	a, #0x00
   0750 57            [ 4] 1942 	ld	d,a
   0751 1A            [ 7] 1943 	ld	a,(de)
   0752 32r34r00      [13] 1944 	ld	(#__en_x + 0),a
   0755 3ErFC         [ 7] 1945 	ld	a,#<(_en_y)
   0757 21r08r00      [10] 1946 	ld	hl,#_gpit
   075A 86            [ 7] 1947 	add	a, (hl)
   075B 5F            [ 4] 1948 	ld	e,a
   075C 3Es01         [ 7] 1949 	ld	a,#>(_en_y)
   075E CE 00         [ 7] 1950 	adc	a, #0x00
   0760 57            [ 4] 1951 	ld	d,a
   0761 1A            [ 7] 1952 	ld	a,(de)
   0762 32r35r00      [13] 1953 	ld	(#__en_y + 0),a
                           1954 ;engine/enengine.h:361: _en_x1 = en_x1 [gpit]; _en_y1 = en_y1 [gpit];
   0765 3ErFF         [ 7] 1955 	ld	a,#<(_en_x1)
   0767 21r08r00      [10] 1956 	ld	hl,#_gpit
   076A 86            [ 7] 1957 	add	a, (hl)
   076B 5F            [ 4] 1958 	ld	e,a
   076C 3Es01         [ 7] 1959 	ld	a,#>(_en_x1)
   076E CE 00         [ 7] 1960 	adc	a, #0x00
   0770 57            [ 4] 1961 	ld	d,a
   0771 1A            [ 7] 1962 	ld	a,(de)
   0772 32r36r00      [13] 1963 	ld	(#__en_x1 + 0),a
   0775 3Er02         [ 7] 1964 	ld	a,#<(_en_y1)
   0777 21r08r00      [10] 1965 	ld	hl,#_gpit
   077A 86            [ 7] 1966 	add	a, (hl)
   077B 5F            [ 4] 1967 	ld	e,a
   077C 3Es02         [ 7] 1968 	ld	a,#>(_en_y1)
   077E CE 00         [ 7] 1969 	adc	a, #0x00
   0780 57            [ 4] 1970 	ld	d,a
   0781 1A            [ 7] 1971 	ld	a,(de)
   0782 32r37r00      [13] 1972 	ld	(#__en_y1 + 0),a
                           1973 ;engine/enengine.h:362: _en_x2 = en_x2 [gpit]; _en_y2 = en_y2 [gpit];
   0785 3Er05         [ 7] 1974 	ld	a,#<(_en_x2)
   0787 21r08r00      [10] 1975 	ld	hl,#_gpit
   078A 86            [ 7] 1976 	add	a, (hl)
   078B 5F            [ 4] 1977 	ld	e,a
   078C 3Es02         [ 7] 1978 	ld	a,#>(_en_x2)
   078E CE 00         [ 7] 1979 	adc	a, #0x00
   0790 57            [ 4] 1980 	ld	d,a
   0791 1A            [ 7] 1981 	ld	a,(de)
   0792 32r38r00      [13] 1982 	ld	(#__en_x2 + 0),a
   0795 3Er08         [ 7] 1983 	ld	a,#<(_en_y2)
   0797 21r08r00      [10] 1984 	ld	hl,#_gpit
   079A 86            [ 7] 1985 	add	a, (hl)
   079B 5F            [ 4] 1986 	ld	e,a
   079C 3Es02         [ 7] 1987 	ld	a,#>(_en_y2)
   079E CE 00         [ 7] 1988 	adc	a, #0x00
   07A0 57            [ 4] 1989 	ld	d,a
   07A1 1A            [ 7] 1990 	ld	a,(de)
   07A2 32r39r00      [13] 1991 	ld	(#__en_y2 + 0),a
                           1992 ;engine/enengine.h:363: _en_mx = en_mx [gpit]; _en_my = en_my [gpit];
   07A5 3Er0B         [ 7] 1993 	ld	a,#<(_en_mx)
   07A7 21r08r00      [10] 1994 	ld	hl,#_gpit
   07AA 86            [ 7] 1995 	add	a, (hl)
   07AB 5F            [ 4] 1996 	ld	e,a
   07AC 3Es02         [ 7] 1997 	ld	a,#>(_en_mx)
   07AE CE 00         [ 7] 1998 	adc	a, #0x00
   07B0 57            [ 4] 1999 	ld	d,a
   07B1 1A            [ 7] 2000 	ld	a,(de)
   07B2 32r3Ar00      [13] 2001 	ld	(#__en_mx + 0),a
   07B5 3Er0E         [ 7] 2002 	ld	a,#<(_en_my)
   07B7 21r08r00      [10] 2003 	ld	hl,#_gpit
   07BA 86            [ 7] 2004 	add	a, (hl)
   07BB 5F            [ 4] 2005 	ld	e,a
   07BC 3Es02         [ 7] 2006 	ld	a,#>(_en_my)
   07BE CE 00         [ 7] 2007 	adc	a, #0x00
   07C0 57            [ 4] 2008 	ld	d,a
   07C1 1A            [ 7] 2009 	ld	a,(de)
   07C2 32r3Br00      [13] 2010 	ld	(#__en_my + 0),a
                           2011 ;engine/enengine.h:364: _en_ct = en_ct [gpit];
   07C5 3Er26         [ 7] 2012 	ld	a,#<(_en_ct)
   07C7 21r08r00      [10] 2013 	ld	hl,#_gpit
   07CA 86            [ 7] 2014 	add	a, (hl)
   07CB 5F            [ 4] 2015 	ld	e,a
   07CC 3Es02         [ 7] 2016 	ld	a,#>(_en_ct)
   07CE CE 00         [ 7] 2017 	adc	a, #0x00
   07D0 57            [ 4] 2018 	ld	d,a
   07D1 1A            [ 7] 2019 	ld	a,(de)
   07D2 32r3Cr00      [13] 2020 	ld	(#__en_ct + 0),a
                           2021 ;engine/enengine.h:365: _en_facing = en_facing [gpit];
   07D5 3Er14         [ 7] 2022 	ld	a,#<(_en_facing)
   07D7 21r08r00      [10] 2023 	ld	hl,#_gpit
   07DA 86            [ 7] 2024 	add	a, (hl)
   07DB 5F            [ 4] 2025 	ld	e,a
   07DC 3Es02         [ 7] 2026 	ld	a,#>(_en_facing)
   07DE CE 00         [ 7] 2027 	adc	a, #0x00
   07E0 57            [ 4] 2028 	ld	d,a
   07E1 1A            [ 7] 2029 	ld	a,(de)
   07E2 32r3Dr00      [13] 2030 	ld	(#__en_facing + 0),a
                           2031 ;engine/enengine.h:366: _en_state = en_state [gpit];
   07E5 3Er17         [ 7] 2032 	ld	a,#<(_en_state)
   07E7 21r08r00      [10] 2033 	ld	hl,#_gpit
   07EA 86            [ 7] 2034 	add	a, (hl)
   07EB 5F            [ 4] 2035 	ld	e,a
   07EC 3Es02         [ 7] 2036 	ld	a,#>(_en_state)
   07EE CE 00         [ 7] 2037 	adc	a, #0x00
   07F0 57            [ 4] 2038 	ld	d,a
   07F1 1A            [ 7] 2039 	ld	a,(de)
   07F2 32r3Er00      [13] 2040 	ld	(#__en_state + 0),a
                           2041 ;engine/enengine.h:369: _enf_x = enf_x [gpit]; _enf_vx = enf_vx [gpit];
   07F5 FD 21r08r00   [14] 2042 	ld	iy,#_gpit
   07F9 FD 6E 00      [19] 2043 	ld	l,0 (iy)
   07FC 26 00         [ 7] 2044 	ld	h,#0x00
   07FE 29            [11] 2045 	add	hl, hl
   07FF EB            [ 4] 2046 	ex	de,hl
   0800 21r2Ar02      [10] 2047 	ld	hl,#_enf_x
   0803 19            [11] 2048 	add	hl,de
   0804 7E            [ 7] 2049 	ld	a,(hl)
   0805 FD 21r3Fr00   [14] 2050 	ld	iy,#__enf_x
   0809 FD 77 00      [19] 2051 	ld	0 (iy),a
   080C 23            [ 6] 2052 	inc	hl
   080D 7E            [ 7] 2053 	ld	a,(hl)
   080E 32r40r00      [13] 2054 	ld	(#__enf_x + 1),a
   0811 21r30r02      [10] 2055 	ld	hl,#_enf_vx
   0814 19            [11] 2056 	add	hl,de
   0815 7E            [ 7] 2057 	ld	a,(hl)
   0816 FD 21r43r00   [14] 2058 	ld	iy,#__enf_vx
   081A FD 77 00      [19] 2059 	ld	0 (iy),a
   081D 23            [ 6] 2060 	inc	hl
   081E 7E            [ 7] 2061 	ld	a,(hl)
   081F 32r44r00      [13] 2062 	ld	(#__enf_vx + 1),a
                           2063 ;engine/enengine.h:370: _enf_y = enf_y [gpit]; _enf_vy = enf_vy [gpit];
   0822 21r36r02      [10] 2064 	ld	hl,#_enf_y
   0825 19            [11] 2065 	add	hl,de
   0826 7E            [ 7] 2066 	ld	a,(hl)
   0827 FD 21r41r00   [14] 2067 	ld	iy,#__enf_y
   082B FD 77 00      [19] 2068 	ld	0 (iy),a
   082E 23            [ 6] 2069 	inc	hl
   082F 7E            [ 7] 2070 	ld	a,(hl)
   0830 32r42r00      [13] 2071 	ld	(#__enf_y + 1),a
   0833 21r3Cr02      [10] 2072 	ld	hl,#_enf_vy
   0836 19            [11] 2073 	add	hl,de
   0837 7E            [ 7] 2074 	ld	a,(hl)
   0838 FD 21r45r00   [14] 2075 	ld	iy,#__enf_vy
   083C FD 77 00      [19] 2076 	ld	0 (iy),a
   083F 23            [ 6] 2077 	inc	hl
   0840 7E            [ 7] 2078 	ld	a,(hl)
   0841 32r46r00      [13] 2079 	ld	(#__enf_vy + 1),a
                           2080 ;engine/enengine.h:373: if (_en_t == 0) continue;
   0844 3Ar32r00      [13] 2081 	ld	a,(#__en_t + 0)
   0847 B7            [ 4] 2082 	or	a, a
   0848 CArFEr06      [10] 2083 	jp	Z,00233$
                           2084 ;engine/enengine.h:374: en_is_alive = !(en_flags [gpit] & EN_STATE_DEAD);
   084B FD 21r1Ar02   [14] 2085 	ld	iy,#_en_flags
   084F ED 5Br08r00   [20] 2086 	ld	de,(_gpit)
   0853 16 00         [ 7] 2087 	ld	d,#0x00
   0855 FD 19         [15] 2088 	add	iy, de
   0857 FD 7E 00      [19] 2089 	ld	a, 0 (iy)
   085A E6 01         [ 7] 2090 	and	a,#0x01
   085C EE 01         [ 7] 2091 	xor	a,#0x01
   085E 32r30r00      [13] 2092 	ld	(#_en_is_alive + 0),a
                           2093 ;engine/enengine.h:378: en_spr = 0xff;
   0861 21r2Er00      [10] 2094 	ld	hl,#_en_spr + 0
   0864 36 FF         [10] 2095 	ld	(hl), #0xFF
                           2096 ;engine/enengine.h:381: en_spr_x_mod = 0;
   0866 21r29r02      [10] 2097 	ld	hl,#_en_spr_x_mod + 0
   0869 36 00         [10] 2098 	ld	(hl), #0x00
                           2099 ;engine/enengine.h:384: if (en_cttouched [gpit]) {
   086B 3Er1D         [ 7] 2100 	ld	a,#<(_en_cttouched)
   086D 21r08r00      [10] 2101 	ld	hl,#_gpit
   0870 86            [ 7] 2102 	add	a, (hl)
   0871 DD 77 FA      [19] 2103 	ld	-6 (ix),a
   0874 3Es02         [ 7] 2104 	ld	a,#>(_en_cttouched)
   0876 CE 00         [ 7] 2105 	adc	a, #0x00
   0878 DD 77 FB      [19] 2106 	ld	-5 (ix),a
   087B DD 6E FA      [19] 2107 	ld	l,-6 (ix)
   087E DD 66 FB      [19] 2108 	ld	h,-5 (ix)
   0881 7E            [ 7] 2109 	ld	a,(hl)
   0882 DD 77 F9      [19] 2110 	ld	-7 (ix), a
   0885 B7            [ 4] 2111 	or	a, a
   0886 CAr10r09      [10] 2112 	jp	Z,00228$
                           2113 ;engine/enengine.h:385: -- en_cttouched [gpit];
   0889 DD 56 F9      [19] 2114 	ld	d,-7 (ix)
   088C 15            [ 4] 2115 	dec	d
   088D DD 6E FA      [19] 2116 	ld	l,-6 (ix)
   0890 DD 66 FB      [19] 2117 	ld	h,-5 (ix)
   0893 72            [ 7] 2118 	ld	(hl),d
                           2119 ;engine/enengine.h:401: rda = frame_counter & 0xf;
   0894 3ArBDr01      [13] 2120 	ld	a,(#_frame_counter + 0)
   0897 E6 0F         [ 7] 2121 	and	a, #0x0F
   0899 32r18r00      [13] 2122 	ld	(#_rda + 0),a
                           2123 ;engine/enengine.h:405: spr_enems [ENEMS_EXPLODING_CELL]
   089C 2Ar86r00      [16] 2124 	ld	hl,(_spr_enems)
   089F DD 75 FA      [19] 2125 	ld	-6 (ix),l
   08A2 DD 74 FB      [19] 2126 	ld	-5 (ix),h
   08A5 DD 6E FA      [19] 2127 	ld	l,-6 (ix)
   08A8 DD 66 FB      [19] 2128 	ld	h,-5 (ix)
   08AB 11 50 00      [10] 2129 	ld	de, #0x0050
   08AE 19            [11] 2130 	add	hl, de
   08AF 7E            [ 7] 2131 	ld	a,(hl)
   08B0 DD 77 FA      [19] 2132 	ld	-6 (ix),a
   08B3 23            [ 6] 2133 	inc	hl
   08B4 7E            [ 7] 2134 	ld	a,(hl)
   08B5 DD 77 FB      [19] 2135 	ld	-5 (ix),a
                           2136 ;engine/enengine.h:404: _en_y + jitter [15 - rda] + SPRITE_ADJUST, 
   08B8 21r18r00      [10] 2137 	ld	hl,#_rda
   08BB 3E 0F         [ 7] 2138 	ld	a,#0x0F
   08BD 96            [ 7] 2139 	sub	a, (hl)
   08BE C6r42         [ 7] 2140 	add	a,#<(_jitter)
   08C0 DD 77 F7      [19] 2141 	ld	-9 (ix),a
   08C3 3Es00         [ 7] 2142 	ld	a,#>(_jitter)
   08C5 CE 00         [ 7] 2143 	adc	a, #0x00
   08C7 DD 77 F8      [19] 2144 	ld	-8 (ix),a
   08CA E1            [10] 2145 	pop	hl
   08CB E5            [11] 2146 	push	hl
   08CC 7E            [ 7] 2147 	ld	a,(hl)
   08CD DD 77 F7      [19] 2148 	ld	-9 (ix),a
   08D0 3Ar35r00      [13] 2149 	ld	a,(#__en_y + 0)
   08D3 DD 86 F7      [19] 2150 	add	a, -9 (ix)
   08D6 DD 77 F7      [19] 2151 	ld	-9 (ix), a
   08D9 C6 F7         [ 7] 2152 	add	a, #0xF7
   08DB DD 77 F7      [19] 2153 	ld	-9 (ix),a
                           2154 ;engine/enengine.h:403: _en_x + jitter [rda],
   08DE 3Er42         [ 7] 2155 	ld	a,#<(_jitter)
   08E0 21r18r00      [10] 2156 	ld	hl,#_rda
   08E3 86            [ 7] 2157 	add	a, (hl)
   08E4 DD 77 FE      [19] 2158 	ld	-2 (ix),a
   08E7 3Es00         [ 7] 2159 	ld	a,#>(_jitter)
   08E9 CE 00         [ 7] 2160 	adc	a, #0x00
   08EB DD 77 FF      [19] 2161 	ld	-1 (ix),a
   08EE DD 6E FE      [19] 2162 	ld	l,-2 (ix)
   08F1 DD 66 FF      [19] 2163 	ld	h,-1 (ix)
   08F4 66            [ 7] 2164 	ld	h,(hl)
   08F5 3Ar34r00      [13] 2165 	ld	a,(#__en_x + 0)
   08F8 84            [ 4] 2166 	add	a, h
   08F9 57            [ 4] 2167 	ld	d,a
   08FA DD 6E FA      [19] 2168 	ld	l,-6 (ix)
   08FD DD 66 FB      [19] 2169 	ld	h,-5 (ix)
   0900 E5            [11] 2170 	push	hl
   0901 DD 7E F7      [19] 2171 	ld	a,-9 (ix)
   0904 F5            [11] 2172 	push	af
   0905 33            [ 6] 2173 	inc	sp
   0906 D5            [11] 2174 	push	de
   0907 33            [ 6] 2175 	inc	sp
   0908 CDr00r00      [17] 2176 	call	_SG_addMetaSprite1x1
   090B F1            [10] 2177 	pop	af
   090C F1            [10] 2178 	pop	af
   090D C3rF1r12      [10] 2179 	jp	00230$
   0910                    2180 00228$:
                           2181 ;engine/enengine.h:424: if (en_is_alive) {
   0910 3Ar30r00      [13] 2182 	ld	a,(#_en_is_alive + 0)
   0913 B7            [ 4] 2183 	or	a, a
   0914 CArF1r12      [10] 2184 	jp	Z,00230$
                           2185 ;engine/enengine.h:427: pregotten = (prx + 7 >= _en_x && prx <= _en_x + 15);
   0917 21r52r00      [10] 2186 	ld	hl,#_prx + 0
   091A 5E            [ 7] 2187 	ld	e, (hl)
   091B 16 00         [ 7] 2188 	ld	d,#0x00
   091D 21 07 00      [10] 2189 	ld	hl,#0x0007
   0920 19            [11] 2190 	add	hl,de
   0921 4D            [ 4] 2191 	ld	c,l
   0922 44            [ 4] 2192 	ld	b,h
   0923 FD 21r34r00   [14] 2193 	ld	iy,#__en_x
   0927 FD 6E 00      [19] 2194 	ld	l,0 (iy)
   092A 26 00         [ 7] 2195 	ld	h,#0x00
   092C 79            [ 4] 2196 	ld	a,c
   092D 95            [ 4] 2197 	sub	a, l
   092E 78            [ 4] 2198 	ld	a,b
   092F 9C            [ 4] 2199 	sbc	a, h
   0930 E2r35r09      [10] 2200 	jp	PO, 00569$
   0933 EE 80         [ 7] 2201 	xor	a, #0x80
   0935                    2202 00569$:
   0935 FAr48r09      [10] 2203 	jp	M,00238$
   0938 01 0F 00      [10] 2204 	ld	bc,#0x000F
   093B 09            [11] 2205 	add	hl,bc
   093C 7D            [ 4] 2206 	ld	a,l
   093D 93            [ 4] 2207 	sub	a, e
   093E 7C            [ 4] 2208 	ld	a,h
   093F 9A            [ 4] 2209 	sbc	a, d
   0940 E2r45r09      [10] 2210 	jp	PO, 00570$
   0943 EE 80         [ 7] 2211 	xor	a, #0x80
   0945                    2212 00570$:
   0945 F2r4Er09      [10] 2213 	jp	P,00239$
   0948                    2214 00238$:
   0948 DD 36 FE 00   [19] 2215 	ld	-2 (ix),#0x00
   094C 18 04         [12] 2216 	jr	00240$
   094E                    2217 00239$:
   094E DD 36 FE 01   [19] 2218 	ld	-2 (ix),#0x01
   0952                    2219 00240$:
   0952 DD 7E FE      [19] 2220 	ld	a,-2 (ix)
   0955 32r31r00      [13] 2221 	ld	(#_pregotten + 0),a
                           2222 ;engine/enengine.h:430: en_fr = ((((_en_mx) ? _en_x : _en_y)+4) >> 3) & 1;
   0958 3Ar34r00      [13] 2223 	ld	a,(#__en_x + 0)
   095B DD 77 FE      [19] 2224 	ld	-2 (ix),a
   095E 3Ar35r00      [13] 2225 	ld	a,(#__en_y + 0)
   0961 DD 77 F7      [19] 2226 	ld	-9 (ix),a
   0964 3Ar3Ar00      [13] 2227 	ld	a,(#__en_mx + 0)
   0967 B7            [ 4] 2228 	or	a, a
   0968 28 08         [12] 2229 	jr	Z,00241$
   096A DD 7E FE      [19] 2230 	ld	a,-2 (ix)
   096D DD 77 F9      [19] 2231 	ld	-7 (ix),a
   0970 18 06         [12] 2232 	jr	00242$
   0972                    2233 00241$:
   0972 DD 7E F7      [19] 2234 	ld	a,-9 (ix)
   0975 DD 77 F9      [19] 2235 	ld	-7 (ix),a
   0978                    2236 00242$:
   0978 DD 7E F9      [19] 2237 	ld	a,-7 (ix)
   097B DD 77 FA      [19] 2238 	ld	-6 (ix),a
   097E DD 36 FB 00   [19] 2239 	ld	-5 (ix),#0x00
   0982 DD 7E FA      [19] 2240 	ld	a,-6 (ix)
   0985 C6 04         [ 7] 2241 	add	a, #0x04
   0987 DD 77 FA      [19] 2242 	ld	-6 (ix),a
   098A DD 7E FB      [19] 2243 	ld	a,-5 (ix)
   098D CE 00         [ 7] 2244 	adc	a, #0x00
   098F DD 77 FB      [19] 2245 	ld	-5 (ix),a
   0992 DD CB FB 2E   [23] 2246 	sra	-5 (ix)
   0996 DD CB FA 1E   [23] 2247 	rr	-6 (ix)
   099A DD CB FB 2E   [23] 2248 	sra	-5 (ix)
   099E DD CB FA 1E   [23] 2249 	rr	-6 (ix)
   09A2 DD CB FB 2E   [23] 2250 	sra	-5 (ix)
   09A6 DD CB FA 1E   [23] 2251 	rr	-6 (ix)
   09AA DD 7E FA      [19] 2252 	ld	a,-6 (ix)
   09AD E6 01         [ 7] 2253 	and	a, #0x01
   09AF DD 77 FA      [19] 2254 	ld	-6 (ix),a
   09B2 DD 36 FB 00   [19] 2255 	ld	-5 (ix),#0x00
   09B6 DD 7E FA      [19] 2256 	ld	a,-6 (ix)
   09B9 32r2Br00      [13] 2257 	ld	(#_en_fr + 0),a
                           2258 ;engine/enengine.h:433: if (res_on 
   09BC 3ArB1r02      [13] 2259 	ld	a,(#_res_on + 0)
   09BF B7            [ 4] 2260 	or	a, a
   09C0 28 1A         [12] 2261 	jr	Z,00172$
                           2262 ;engine/enengine.h:446: ) {
   09C2 3Ar32r00      [13] 2263 	ld	a,(#__en_t + 0)
   09C5 D6 04         [ 7] 2264 	sub	a, #0x04
   09C7 28 13         [12] 2265 	jr	Z,00172$
                           2266 ;engine/enengine.h:447: en_spr = en_spr_id [gpit];
   09C9 3Er42         [ 7] 2267 	ld	a,#<(_en_spr_id)
   09CB 21r08r00      [10] 2268 	ld	hl,#_gpit
   09CE 86            [ 7] 2269 	add	a, (hl)
   09CF 5F            [ 4] 2270 	ld	e,a
   09D0 3Es02         [ 7] 2271 	ld	a,#>(_en_spr_id)
   09D2 CE 00         [ 7] 2272 	adc	a, #0x00
   09D4 57            [ 4] 2273 	ld	d,a
   09D5 1A            [ 7] 2274 	ld	a,(de)
   09D6 32r2Er00      [13] 2275 	ld	(#_en_spr + 0),a
   09D9 C3rF4r0F      [10] 2276 	jp	00173$
   09DC                    2277 00172$:
                           2278 ;engine/enengine.h:451: switch (_en_t & 63) {
   09DC 3Ar32r00      [13] 2279 	ld	a,(#__en_t + 0)
   09DF E6 3F         [ 7] 2280 	and	a, #0x3F
   09E1 67            [ 4] 2281 	ld	h,a
   09E2 3D            [ 4] 2282 	dec	a
   09E3 28 15         [12] 2283 	jr	Z,00110$
   09E5 7C            [ 4] 2284 	ld	a,h
   09E6 FE 02         [ 7] 2285 	cp	a,#0x02
   09E8 28 10         [12] 2286 	jr	Z,00110$
   09EA FE 03         [ 7] 2287 	cp	a,#0x03
   09EC 28 0C         [12] 2288 	jr	Z,00110$
   09EE FE 04         [ 7] 2289 	cp	a,#0x04
   09F0 28 08         [12] 2290 	jr	Z,00110$
   09F2 D6 06         [ 7] 2291 	sub	a, #0x06
   09F4 CArC9r0A      [10] 2292 	jp	Z,00122$
   09F7 C3rE4r0F      [10] 2293 	jp	00170$
                           2294 ;engine/enengine.h:455: case 4:
   09FA                    2295 00110$:
                           2296 ;engine/../engine/enemmods/enem_linear.h:11: if (!en_status [gpit] || half_life) {
   09FA 3Er23         [ 7] 2297 	ld	a,#<(_en_status)
   09FC 21r08r00      [10] 2298 	ld	hl,#_gpit
   09FF 86            [ 7] 2299 	add	a, (hl)
   0A00 5F            [ 4] 2300 	ld	e,a
   0A01 3Es02         [ 7] 2301 	ld	a,#>(_en_status)
   0A03 CE 00         [ 7] 2302 	adc	a, #0x00
   0A05 57            [ 4] 2303 	ld	d,a
   0A06 1A            [ 7] 2304 	ld	a,(de)
   0A07 B7            [ 4] 2305 	or	a, a
   0A08 28 07         [12] 2306 	jr	Z,00119$
   0A0A 3ArBCr01      [13] 2307 	ld	a,(#_half_life + 0)
   0A0D B7            [ 4] 2308 	or	a, a
   0A0E CAr9Ar0A      [10] 2309 	jp	Z,00120$
   0A11                    2310 00119$:
                           2311 ;engine/../engine/enemmods/enem_linear.h:15: _en_x += _en_mx;
   0A11 3Ar34r00      [13] 2312 	ld	a,(#__en_x + 0)
   0A14 21r3Ar00      [10] 2313 	ld	hl,#__en_mx
   0A17 FD 21r34r00   [14] 2314 	ld	iy,#__en_x
   0A1B 86            [ 7] 2315 	add	a, (hl)
   0A1C FD 77 00      [19] 2316 	ld	0 (iy),a
                           2317 ;engine/../engine/enemmods/enem_linear.h:32: _en_y += _en_my;
   0A1F 3Ar35r00      [13] 2318 	ld	a,(#__en_y + 0)
   0A22 21r3Br00      [10] 2319 	ld	hl,#__en_my
   0A25 FD 21r35r00   [14] 2320 	ld	iy,#__en_y
   0A29 86            [ 7] 2321 	add	a, (hl)
   0A2A FD 77 00      [19] 2322 	ld	0 (iy),a
                           2323 ;engine/../engine/enemmods/enem_linear.h:53: if (_en_x == _en_x1 || _en_x == _en_x2) _en_mx = -_en_mx;
   0A2D 3Ar34r00      [13] 2324 	ld	a,(#__en_x + 0)
   0A30 FD 21r36r00   [14] 2325 	ld	iy,#__en_x1
   0A34 FD 96 00      [19] 2326 	sub	a, 0 (iy)
   0A37 28 0C         [12] 2327 	jr	Z,00111$
   0A39 3Ar34r00      [13] 2328 	ld	a,(#__en_x + 0)
   0A3C FD 21r38r00   [14] 2329 	ld	iy,#__en_x2
   0A40 FD 96 00      [19] 2330 	sub	a, 0 (iy)
   0A43 20 0B         [12] 2331 	jr	NZ,00112$
   0A45                    2332 00111$:
   0A45 AF            [ 4] 2333 	xor	a, a
   0A46 FD 21r3Ar00   [14] 2334 	ld	iy,#__en_mx
   0A4A FD 96 00      [19] 2335 	sub	a, 0 (iy)
   0A4D 32r3Ar00      [13] 2336 	ld	(#__en_mx + 0),a
   0A50                    2337 00112$:
                           2338 ;engine/../engine/enemmods/enem_linear.h:60: if (_en_y <= _en_y1) { _en_y = _en_y1; _en_my = ABS (_en_my); }
   0A50 3Ar3Br00      [13] 2339 	ld	a,(#__en_my + 0)
   0A53 07            [ 4] 2340 	rlca
   0A54 E6 01         [ 7] 2341 	and	a,#0x01
   0A56 4F            [ 4] 2342 	ld	c,a
   0A57 AF            [ 4] 2343 	xor	a, a
   0A58 FD 21r3Br00   [14] 2344 	ld	iy,#__en_my
   0A5C FD 96 00      [19] 2345 	sub	a, 0 (iy)
   0A5F 57            [ 4] 2346 	ld	d,a
   0A60 21r3Br00      [10] 2347 	ld	hl,#__en_my + 0
   0A63 5E            [ 7] 2348 	ld	e, (hl)
   0A64 3Ar37r00      [13] 2349 	ld	a,(#__en_y1)
   0A67 FD 21r35r00   [14] 2350 	ld	iy,#__en_y
   0A6B FD 96 00      [19] 2351 	sub	a, 0 (iy)
   0A6E 38 11         [12] 2352 	jr	C,00117$
   0A70 3Ar37r00      [13] 2353 	ld	a,(#__en_y1 + 0)
   0A73 32r35r00      [13] 2354 	ld	(#__en_y + 0),a
   0A76 79            [ 4] 2355 	ld	a,c
   0A77 B7            [ 4] 2356 	or	a, a
   0A78 28 01         [12] 2357 	jr	Z,00243$
   0A7A 5A            [ 4] 2358 	ld	e,d
   0A7B                    2359 00243$:
   0A7B 21r3Br00      [10] 2360 	ld	hl,#__en_my + 0
   0A7E 73            [ 7] 2361 	ld	(hl), e
   0A7F 18 19         [12] 2362 	jr	00120$
   0A81                    2363 00117$:
                           2364 ;engine/../engine/enemmods/enem_linear.h:61: else if (_en_y >= _en_y2) { _en_y = _en_y2; _en_my = -ABS (_en_my); }
   0A81 21r39r00      [10] 2365 	ld	hl,#__en_y2
   0A84 3Ar35r00      [13] 2366 	ld	a,(#__en_y + 0)
   0A87 96            [ 7] 2367 	sub	a, (hl)
   0A88 38 10         [12] 2368 	jr	C,00120$
   0A8A 3Ar39r00      [13] 2369 	ld	a,(#__en_y2 + 0)
   0A8D 32r35r00      [13] 2370 	ld	(#__en_y + 0),a
   0A90 79            [ 4] 2371 	ld	a,c
   0A91 B7            [ 4] 2372 	or	a, a
   0A92 20 01         [12] 2373 	jr	NZ,00246$
   0A94 53            [ 4] 2374 	ld	d,e
   0A95                    2375 00246$:
   0A95 AF            [ 4] 2376 	xor	a, a
   0A96 92            [ 4] 2377 	sub	a, d
   0A97 32r3Br00      [13] 2378 	ld	(#__en_my + 0),a
   0A9A                    2379 00120$:
                           2380 ;engine/../engine/enemmods/enem_linear.h:77: rda = _en_mx ? (_en_mx < 0) : (_en_my < 0); enems_facing ();
   0A9A 3Ar3Ar00      [13] 2381 	ld	a,(#__en_mx + 0)
   0A9D B7            [ 4] 2382 	or	a, a
   0A9E 28 08         [12] 2383 	jr	Z,00247$
   0AA0 3Ar3Ar00      [13] 2384 	ld	a,(#__en_mx + 0)
   0AA3 07            [ 4] 2385 	rlca
   0AA4 E6 01         [ 7] 2386 	and	a,#0x01
   0AA6 18 06         [12] 2387 	jr	00248$
   0AA8                    2388 00247$:
   0AA8 3Ar3Br00      [13] 2389 	ld	a,(#__en_my + 0)
   0AAB 07            [ 4] 2390 	rlca
   0AAC E6 01         [ 7] 2391 	and	a,#0x01
   0AAE                    2392 00248$:
   0AAE 32r18r00      [13] 2393 	ld	(#_rda + 0),a
   0AB1 CDrEAr03      [17] 2394 	call	_enems_facing
                           2395 ;engine/../engine/enemmods/enem_linear.h:79: en_spr = _en_s + en_fr + _en_facing;
   0AB4 21r2Br00      [10] 2396 	ld	hl,#_en_fr
   0AB7 3Ar33r00      [13] 2397 	ld	a,(#__en_s + 0)
   0ABA 86            [ 7] 2398 	add	a, (hl)
   0ABB 21r3Dr00      [10] 2399 	ld	hl,#__en_facing
   0ABE FD 21r2Er00   [14] 2400 	ld	iy,#_en_spr
   0AC2 86            [ 7] 2401 	add	a, (hl)
   0AC3 FD 77 00      [19] 2402 	ld	0 (iy),a
                           2403 ;engine/enengine.h:464: break;
   0AC6 C3rE4r0F      [10] 2404 	jp	00170$
                           2405 ;engine/enengine.h:479: case 6:
   0AC9                    2406 00122$:
                           2407 ;engine/../engine/enemmods/enem_homing_fanty.h:7: rdx = _en_x; rdy = _en_y; rdt = distance ();
   0AC9 DD 7E FE      [19] 2408 	ld	a,-2 (ix)
   0ACC 32r14r00      [13] 2409 	ld	(#_rdx + 0),a
   0ACF DD 7E F7      [19] 2410 	ld	a,-9 (ix)
   0AD2 32r15r00      [13] 2411 	ld	(#_rdy + 0),a
   0AD5 CDr00r00      [17] 2412 	call	_distance
   0AD8 FD 21r16r00   [14] 2413 	ld	iy,#_rdt
   0ADC FD 75 00      [19] 2414 	ld	0 (iy),l
                           2415 ;engine/../engine/enemmods/enem_homing_fanty.h:35: _enf_y = _en_y << FIXBITS;
   0ADF 3Ar35r00      [13] 2416 	ld	a,(#__en_y + 0)
   0AE2 DD 77 FE      [19] 2417 	ld	-2 (ix),a
   0AE5 DD 36 FF 00   [19] 2418 	ld	-1 (ix),#0x00
                           2419 ;engine/../engine/enemmods/enem_homing_fanty.h:11: switch (_en_state) {
   0AE9 3Ar3Er00      [13] 2420 	ld	a,(#__en_state + 0)
   0AEC B7            [ 4] 2421 	or	a, a
   0AED 28 09         [12] 2422 	jr	Z,00123$
   0AEF 3Ar3Er00      [13] 2423 	ld	a,(#__en_state + 0)
   0AF2 3D            [ 4] 2424 	dec	a
   0AF3 28 67         [12] 2425 	jr	Z,00126$
   0AF5 C3r67r0C      [10] 2426 	jp	00143$
                           2427 ;engine/../engine/enemmods/enem_homing_fanty.h:12: case 0:
   0AF8                    2428 00123$:
                           2429 ;engine/../engine/enemmods/enem_homing_fanty.h:14: _enf_vx = ADD_SIGN2 (_en_x1, _en_x, FANTY_V_RETREAT);
   0AF8 3Ar36r00      [13] 2430 	ld	a,(#__en_x1 + 0)
   0AFB FD 21r34r00   [14] 2431 	ld	iy,#__en_x
   0AFF FD 96 00      [19] 2432 	sub	a, 0 (iy)
   0B02 20 04         [12] 2433 	jr	NZ,00249$
   0B04 3E 00         [ 7] 2434 	ld	a,#0x00
   0B06 18 12         [12] 2435 	jr	00250$
   0B08                    2436 00249$:
   0B08 3Ar34r00      [13] 2437 	ld	a,(#__en_x)
   0B0B FD 21r36r00   [14] 2438 	ld	iy,#__en_x1
   0B0F FD 96 00      [19] 2439 	sub	a, 0 (iy)
   0B12 30 04         [12] 2440 	jr	NC,00251$
   0B14 3E 10         [ 7] 2441 	ld	a,#0x10
   0B16 18 02         [12] 2442 	jr	00252$
   0B18                    2443 00251$:
   0B18 3E F0         [ 7] 2444 	ld	a,#0xF0
   0B1A                    2445 00252$:
   0B1A                    2446 00250$:
   0B1A 32r43r00      [13] 2447 	ld	(#__enf_vx + 0),a
   0B1D 17            [ 4] 2448 	rla
   0B1E 9F            [ 4] 2449 	sbc	a, a
   0B1F 32r44r00      [13] 2450 	ld	(#__enf_vx + 1),a
                           2451 ;engine/../engine/enemmods/enem_homing_fanty.h:15: _enf_vy = ADD_SIGN2 (_en_y1, _en_y, FANTY_V_RETREAT);
   0B22 3Ar37r00      [13] 2452 	ld	a,(#__en_y1 + 0)
   0B25 FD 21r35r00   [14] 2453 	ld	iy,#__en_y
   0B29 FD 96 00      [19] 2454 	sub	a, 0 (iy)
   0B2C 20 04         [12] 2455 	jr	NZ,00253$
   0B2E 3E 00         [ 7] 2456 	ld	a,#0x00
   0B30 18 12         [12] 2457 	jr	00254$
   0B32                    2458 00253$:
   0B32 3Ar35r00      [13] 2459 	ld	a,(#__en_y)
   0B35 FD 21r37r00   [14] 2460 	ld	iy,#__en_y1
   0B39 FD 96 00      [19] 2461 	sub	a, 0 (iy)
   0B3C 30 04         [12] 2462 	jr	NC,00255$
   0B3E 3E 10         [ 7] 2463 	ld	a,#0x10
   0B40 18 02         [12] 2464 	jr	00256$
   0B42                    2465 00255$:
   0B42 3E F0         [ 7] 2466 	ld	a,#0xF0
   0B44                    2467 00256$:
   0B44                    2468 00254$:
   0B44 32r45r00      [13] 2469 	ld	(#__enf_vy + 0),a
   0B47 17            [ 4] 2470 	rla
   0B48 9F            [ 4] 2471 	sbc	a, a
   0B49 32r46r00      [13] 2472 	ld	(#__enf_vy + 1),a
                           2473 ;engine/../engine/enemmods/enem_homing_fanty.h:16: if (rdt < FANTY_DISTANCE) _en_state = 1;
   0B4C 3Ar16r00      [13] 2474 	ld	a,(#_rdt + 0)
   0B4F D6 60         [ 7] 2475 	sub	a, #0x60
   0B51 D2r67r0C      [10] 2476 	jp	NC,00143$
   0B54 21r3Er00      [10] 2477 	ld	hl,#__en_state + 0
   0B57 36 01         [10] 2478 	ld	(hl), #0x01
                           2479 ;engine/../engine/enemmods/enem_homing_fanty.h:17: break;
   0B59 C3r67r0C      [10] 2480 	jp	00143$
                           2481 ;engine/../engine/enemmods/enem_homing_fanty.h:18: case 1:
   0B5C                    2482 00126$:
                           2483 ;engine/../engine/enemmods/enem_homing_fanty.h:20: if (px < _enf_x) {
   0B5C 21r3Fr00      [10] 2484 	ld	hl,#__enf_x
   0B5F 3Ar4Ar00      [13] 2485 	ld	a,(#_px + 0)
   0B62 96            [ 7] 2486 	sub	a, (hl)
   0B63 FD 21r4Ar00   [14] 2487 	ld	iy,#_px
   0B67 FD 7E 01      [19] 2488 	ld	a,1 (iy)
   0B6A 23            [ 6] 2489 	inc	hl
   0B6B 9E            [ 7] 2490 	sbc	a, (hl)
   0B6C E2r71r0B      [10] 2491 	jp	PO, 00586$
   0B6F EE 80         [ 7] 2492 	xor	a, #0x80
   0B71                    2493 00586$:
   0B71 F2r93r0B      [10] 2494 	jp	P,00132$
                           2495 ;engine/../engine/enemmods/enem_homing_fanty.h:21: _enf_vx -= FANTY_A; if (_enf_vx < -FANTY_MAXV) _enf_vx = -FANTY_MAXV;
   0B74 2Ar43r00      [16] 2496 	ld	hl,(__enf_vx)
   0B77 2B            [ 6] 2497 	dec	hl
   0B78 2B            [ 6] 2498 	dec	hl
   0B79 22r43r00      [16] 2499 	ld	(__enf_vx),hl
   0B7C 3Ar43r00      [13] 2500 	ld	a,(#__enf_vx + 0)
   0B7F D6 E0         [ 7] 2501 	sub	a, #0xE0
   0B81 3Ar44r00      [13] 2502 	ld	a,(#__enf_vx + 1)
   0B84 17            [ 4] 2503 	rla
   0B85 3F            [ 4] 2504 	ccf
   0B86 1F            [ 4] 2505 	rra
   0B87 DE 7F         [ 7] 2506 	sbc	a, #0x7F
   0B89 30 34         [12] 2507 	jr	NC,00133$
   0B8B 21 E0 FF      [10] 2508 	ld	hl,#0xFFE0
   0B8E 22r43r00      [16] 2509 	ld	(__enf_vx),hl
   0B91 18 2C         [12] 2510 	jr	00133$
   0B93                    2511 00132$:
                           2512 ;engine/../engine/enemmods/enem_homing_fanty.h:23: _enf_vx += FANTY_A; if (_enf_vx > FANTY_MAXV) _enf_vx = FANTY_MAXV;
   0B93 21r43r00      [10] 2513 	ld	hl,#__enf_vx
   0B96 7E            [ 7] 2514 	ld	a,(hl)
   0B97 C6 02         [ 7] 2515 	add	a, #0x02
   0B99 77            [ 7] 2516 	ld	(hl),a
   0B9A 23            [ 6] 2517 	inc	hl
   0B9B 7E            [ 7] 2518 	ld	a,(hl)
   0B9C CE 00         [ 7] 2519 	adc	a, #0x00
   0B9E 77            [ 7] 2520 	ld	(hl),a
   0B9F 3E 20         [ 7] 2521 	ld	a,#0x20
   0BA1 FD 21r43r00   [14] 2522 	ld	iy,#__enf_vx
   0BA5 FD BE 00      [19] 2523 	cp	a, 0 (iy)
   0BA8 3E 00         [ 7] 2524 	ld	a,#0x00
   0BAA FD 21r43r00   [14] 2525 	ld	iy,#__enf_vx
   0BAE FD 9E 01      [19] 2526 	sbc	a, 1 (iy)
   0BB1 E2rB6r0B      [10] 2527 	jp	PO, 00587$
   0BB4 EE 80         [ 7] 2528 	xor	a, #0x80
   0BB6                    2529 00587$:
   0BB6 F2rBFr0B      [10] 2530 	jp	P,00133$
   0BB9 21 20 00      [10] 2531 	ld	hl,#0x0020
   0BBC 22r43r00      [16] 2532 	ld	(__enf_vx),hl
   0BBF                    2533 00133$:
                           2534 ;engine/../engine/enemmods/enem_homing_fanty.h:26: if (py < _enf_y) {
   0BBF 21r41r00      [10] 2535 	ld	hl,#__enf_y
   0BC2 3Ar4Cr00      [13] 2536 	ld	a,(#_py + 0)
   0BC5 96            [ 7] 2537 	sub	a, (hl)
   0BC6 FD 21r4Cr00   [14] 2538 	ld	iy,#_py
   0BCA FD 7E 01      [19] 2539 	ld	a,1 (iy)
   0BCD 23            [ 6] 2540 	inc	hl
   0BCE 9E            [ 7] 2541 	sbc	a, (hl)
   0BCF E2rD4r0B      [10] 2542 	jp	PO, 00588$
   0BD2 EE 80         [ 7] 2543 	xor	a, #0x80
   0BD4                    2544 00588$:
   0BD4 F2rF6r0B      [10] 2545 	jp	P,00139$
                           2546 ;engine/../engine/enemmods/enem_homing_fanty.h:27: _enf_vy -= FANTY_A; if (_enf_vy < -FANTY_MAXV) _enf_vy = -FANTY_MAXV;
   0BD7 2Ar45r00      [16] 2547 	ld	hl,(__enf_vy)
   0BDA 2B            [ 6] 2548 	dec	hl
   0BDB 2B            [ 6] 2549 	dec	hl
   0BDC 22r45r00      [16] 2550 	ld	(__enf_vy),hl
   0BDF 3Ar45r00      [13] 2551 	ld	a,(#__enf_vy + 0)
   0BE2 D6 E0         [ 7] 2552 	sub	a, #0xE0
   0BE4 3Ar46r00      [13] 2553 	ld	a,(#__enf_vy + 1)
   0BE7 17            [ 4] 2554 	rla
   0BE8 3F            [ 4] 2555 	ccf
   0BE9 1F            [ 4] 2556 	rra
   0BEA DE 7F         [ 7] 2557 	sbc	a, #0x7F
   0BEC 30 34         [12] 2558 	jr	NC,00140$
   0BEE 21 E0 FF      [10] 2559 	ld	hl,#0xFFE0
   0BF1 22r45r00      [16] 2560 	ld	(__enf_vy),hl
   0BF4 18 2C         [12] 2561 	jr	00140$
   0BF6                    2562 00139$:
                           2563 ;engine/../engine/enemmods/enem_homing_fanty.h:29: _enf_vy += FANTY_A; if (_enf_vy > FANTY_MAXV) _enf_vy = FANTY_MAXV;
   0BF6 21r45r00      [10] 2564 	ld	hl,#__enf_vy
   0BF9 7E            [ 7] 2565 	ld	a,(hl)
   0BFA C6 02         [ 7] 2566 	add	a, #0x02
   0BFC 77            [ 7] 2567 	ld	(hl),a
   0BFD 23            [ 6] 2568 	inc	hl
   0BFE 7E            [ 7] 2569 	ld	a,(hl)
   0BFF CE 00         [ 7] 2570 	adc	a, #0x00
   0C01 77            [ 7] 2571 	ld	(hl),a
   0C02 3E 20         [ 7] 2572 	ld	a,#0x20
   0C04 FD 21r45r00   [14] 2573 	ld	iy,#__enf_vy
   0C08 FD BE 00      [19] 2574 	cp	a, 0 (iy)
   0C0B 3E 00         [ 7] 2575 	ld	a,#0x00
   0C0D FD 21r45r00   [14] 2576 	ld	iy,#__enf_vy
   0C11 FD 9E 01      [19] 2577 	sbc	a, 1 (iy)
   0C14 E2r19r0C      [10] 2578 	jp	PO, 00589$
   0C17 EE 80         [ 7] 2579 	xor	a, #0x80
   0C19                    2580 00589$:
   0C19 F2r22r0C      [10] 2581 	jp	P,00140$
   0C1C 21 20 00      [10] 2582 	ld	hl,#0x0020
   0C1F 22r45r00      [16] 2583 	ld	(__enf_vy),hl
   0C22                    2584 00140$:
                           2585 ;engine/../engine/enemmods/enem_homing_fanty.h:32: if (rdt > FANTY_DISTANCE) {
   0C22 3E 60         [ 7] 2586 	ld	a,#0x60
   0C24 FD 21r16r00   [14] 2587 	ld	iy,#_rdt
   0C28 FD 96 00      [19] 2588 	sub	a, 0 (iy)
   0C2B 30 3A         [12] 2589 	jr	NC,00143$
                           2590 ;engine/../engine/enemmods/enem_homing_fanty.h:34: _enf_x = _en_x << FIXBITS;
   0C2D FD 21r34r00   [14] 2591 	ld	iy,#__en_x
   0C31 FD 6E 00      [19] 2592 	ld	l,0 (iy)
   0C34 26 00         [ 7] 2593 	ld	h,#0x00
   0C36 29            [11] 2594 	add	hl, hl
   0C37 29            [11] 2595 	add	hl, hl
   0C38 29            [11] 2596 	add	hl, hl
   0C39 29            [11] 2597 	add	hl, hl
   0C3A 29            [11] 2598 	add	hl, hl
   0C3B 29            [11] 2599 	add	hl, hl
   0C3C 22r3Fr00      [16] 2600 	ld	(__enf_x),hl
                           2601 ;engine/../engine/enemmods/enem_homing_fanty.h:35: _enf_y = _en_y << FIXBITS;
   0C3F DD 7E FE      [19] 2602 	ld	a,-2 (ix)
   0C42 32r41r00      [13] 2603 	ld	(#__enf_y + 0),a
   0C45 DD 7E FF      [19] 2604 	ld	a,-1 (ix)
   0C48 32r42r00      [13] 2605 	ld	(#__enf_y + 1),a
   0C4B 3E 07         [ 7] 2606 	ld	a,#0x06+1
   0C4D 18 10         [12] 2607 	jr	00591$
   0C4F                    2608 00590$:
   0C4F FD 21r41r00   [14] 2609 	ld	iy,#__enf_y
   0C53 FD CB 00 26   [23] 2610 	sla	0 (iy)
   0C57 FD 21r41r00   [14] 2611 	ld	iy,#__enf_y
   0C5B FD CB 01 16   [23] 2612 	rl	1 (iy)
   0C5F                    2613 00591$:
   0C5F 3D            [ 4] 2614 	dec	a
   0C60 20 ED         [12] 2615 	jr	NZ,00590$
                           2616 ;engine/../engine/enemmods/enem_homing_fanty.h:36: _en_state = 0;
   0C62 21r3Er00      [10] 2617 	ld	hl,#__en_state + 0
   0C65 36 00         [10] 2618 	ld	(hl), #0x00
                           2619 ;engine/../engine/enemmods/enem_homing_fanty.h:39: }
   0C67                    2620 00143$:
                           2621 ;engine/../engine/enemmods/enem_homing_fanty.h:43: _enf_x += _enf_vx; 
   0C67 21r43r00      [10] 2622 	ld	hl,#__enf_vx
   0C6A D5            [11] 2623 	push	de
   0C6B FD 21r3Fr00   [14] 2624 	ld	iy,#__enf_x
   0C6F FD E5         [15] 2625 	push	iy
   0C71 D1            [10] 2626 	pop	de
   0C72 1A            [ 7] 2627 	ld	a,(de)
   0C73 86            [ 7] 2628 	add	a, (hl)
   0C74 12            [ 7] 2629 	ld	(de),a
   0C75 13            [ 6] 2630 	inc	de
   0C76 1A            [ 7] 2631 	ld	a,(de)
   0C77 23            [ 6] 2632 	inc	hl
   0C78 8E            [ 7] 2633 	adc	a, (hl)
   0C79 12            [ 7] 2634 	ld	(de),a
   0C7A D1            [10] 2635 	pop	de
                           2636 ;engine/../engine/enemmods/enem_homing_fanty.h:44: if (_enf_x < 0) _enf_x = 0;
   0C7B 3Ar40r00      [13] 2637 	ld	a,(#__enf_x + 1)
   0C7E CB 7F         [ 8] 2638 	bit	7,a
   0C80 28 06         [12] 2639 	jr	Z,00145$
   0C82 21 00 00      [10] 2640 	ld	hl,#0x0000
   0C85 22r3Fr00      [16] 2641 	ld	(__enf_x),hl
   0C88                    2642 00145$:
                           2643 ;engine/../engine/enemmods/enem_homing_fanty.h:45: if (_enf_x > 15360) _enf_x = 15360;
   0C88 AF            [ 4] 2644 	xor	a, a
   0C89 FD 21r3Fr00   [14] 2645 	ld	iy,#__enf_x
   0C8D FD BE 00      [19] 2646 	cp	a, 0 (iy)
   0C90 3E 3C         [ 7] 2647 	ld	a,#0x3C
   0C92 FD 21r3Fr00   [14] 2648 	ld	iy,#__enf_x
   0C96 FD 9E 01      [19] 2649 	sbc	a, 1 (iy)
   0C99 E2r9Er0C      [10] 2650 	jp	PO, 00592$
   0C9C EE 80         [ 7] 2651 	xor	a, #0x80
   0C9E                    2652 00592$:
   0C9E F2rA7r0C      [10] 2653 	jp	P,00147$
   0CA1 21 00 3C      [10] 2654 	ld	hl,#0x3C00
   0CA4 22r3Fr00      [16] 2655 	ld	(__enf_x),hl
   0CA7                    2656 00147$:
                           2657 ;engine/../engine/enemmods/enem_homing_fanty.h:46: _en_x = _enf_x >> 6;
   0CA7 2Ar3Fr00      [16] 2658 	ld	hl,(__enf_x)
   0CAA CB 2C         [ 8] 2659 	sra	h
   0CAC CB 1D         [ 8] 2660 	rr	l
   0CAE CB 2C         [ 8] 2661 	sra	h
   0CB0 CB 1D         [ 8] 2662 	rr	l
   0CB2 CB 2C         [ 8] 2663 	sra	h
   0CB4 CB 1D         [ 8] 2664 	rr	l
   0CB6 CB 2C         [ 8] 2665 	sra	h
   0CB8 CB 1D         [ 8] 2666 	rr	l
   0CBA CB 2C         [ 8] 2667 	sra	h
   0CBC CB 1D         [ 8] 2668 	rr	l
   0CBE CB 2C         [ 8] 2669 	sra	h
   0CC0 CB 1D         [ 8] 2670 	rr	l
   0CC2 FD 21r34r00   [14] 2671 	ld	iy,#__en_x
   0CC6 FD 75 00      [19] 2672 	ld	0 (iy),l
                           2673 ;engine/../engine/enemmods/enem_homing_fanty.h:50: if (_enf_vx) {
   0CC9 3Ar44r00      [13] 2674 	ld	a,(#__enf_vx + 1)
   0CCC 21r43r00      [10] 2675 	ld	hl,#__enf_vx + 0
   0CCF B6            [ 7] 2676 	or	a,(hl)
   0CD0 CArD3r0D      [10] 2677 	jp	Z,00155$
                           2678 ;engine/../engine/enemmods/enem_homing_fanty.h:51: cy1 = (_en_y + 4) >> 4;
   0CD3 DD 7E FE      [19] 2679 	ld	a,-2 (ix)
   0CD6 C6 04         [ 7] 2680 	add	a, #0x04
   0CD8 6F            [ 4] 2681 	ld	l,a
   0CD9 DD 7E FF      [19] 2682 	ld	a,-1 (ix)
   0CDC CE 00         [ 7] 2683 	adc	a, #0x00
   0CDE 67            [ 4] 2684 	ld	h,a
   0CDF CB 2C         [ 8] 2685 	sra	h
   0CE1 CB 1D         [ 8] 2686 	rr	l
   0CE3 CB 2C         [ 8] 2687 	sra	h
   0CE5 CB 1D         [ 8] 2688 	rr	l
   0CE7 CB 2C         [ 8] 2689 	sra	h
   0CE9 CB 1D         [ 8] 2690 	rr	l
   0CEB CB 2C         [ 8] 2691 	sra	h
   0CED CB 1D         [ 8] 2692 	rr	l
   0CEF FD 21r24r00   [14] 2693 	ld	iy,#_cy1
   0CF3 FD 75 00      [19] 2694 	ld	0 (iy),l
                           2695 ;engine/../engine/enemmods/enem_homing_fanty.h:52: cy2 = (_en_y + 11) >> 4;
   0CF6 DD 7E FE      [19] 2696 	ld	a,-2 (ix)
   0CF9 C6 0B         [ 7] 2697 	add	a, #0x0B
   0CFB 67            [ 4] 2698 	ld	h,a
   0CFC DD 7E FF      [19] 2699 	ld	a,-1 (ix)
   0CFF CE 00         [ 7] 2700 	adc	a, #0x00
   0D01 6F            [ 4] 2701 	ld	l,a
   0D02 CB 2D         [ 8] 2702 	sra	l
   0D04 CB 1C         [ 8] 2703 	rr	h
   0D06 CB 2D         [ 8] 2704 	sra	l
   0D08 CB 1C         [ 8] 2705 	rr	h
   0D0A CB 2D         [ 8] 2706 	sra	l
   0D0C CB 1C         [ 8] 2707 	rr	h
   0D0E CB 2D         [ 8] 2708 	sra	l
   0D10 CB 1C         [ 8] 2709 	rr	h
   0D12 FD 21r25r00   [14] 2710 	ld	iy,#_cy2
   0D16 FD 74 00      [19] 2711 	ld	0 (iy),h
                           2712 ;engine/enengine.h:427: pregotten = (prx + 7 >= _en_x && prx <= _en_x + 15);
   0D19 FD 21r34r00   [14] 2713 	ld	iy,#__en_x
   0D1D FD 4E 00      [19] 2714 	ld	c,0 (iy)
   0D20 06 00         [ 7] 2715 	ld	b,#0x00
                           2716 ;engine/../engine/enemmods/enem_homing_fanty.h:54: if (_enf_vx > 0) {
   0D22 AF            [ 4] 2717 	xor	a, a
   0D23 FD 21r43r00   [14] 2718 	ld	iy,#__enf_vx
   0D27 FD BE 00      [19] 2719 	cp	a, 0 (iy)
   0D2A FD 21r43r00   [14] 2720 	ld	iy,#__enf_vx
   0D2E FD 9E 01      [19] 2721 	sbc	a, 1 (iy)
   0D31 E2r36r0D      [10] 2722 	jp	PO, 00593$
   0D34 EE 80         [ 7] 2723 	xor	a, #0x80
   0D36                    2724 00593$:
   0D36 F2r67r0D      [10] 2725 	jp	P,00149$
                           2726 ;engine/../engine/enemmods/enem_homing_fanty.h:55: cx1 = cx2 = (_en_x + 11) >> 4;
   0D39 21 0B 00      [10] 2727 	ld	hl,#0x000B
   0D3C 09            [11] 2728 	add	hl,bc
   0D3D CB 2C         [ 8] 2729 	sra	h
   0D3F CB 1D         [ 8] 2730 	rr	l
   0D41 CB 2C         [ 8] 2731 	sra	h
   0D43 CB 1D         [ 8] 2732 	rr	l
   0D45 CB 2C         [ 8] 2733 	sra	h
   0D47 CB 1D         [ 8] 2734 	rr	l
   0D49 CB 2C         [ 8] 2735 	sra	h
   0D4B CB 1D         [ 8] 2736 	rr	l
   0D4D 7D            [ 4] 2737 	ld	a,l
   0D4E 32r23r00      [13] 2738 	ld	(#_cx2 + 0),a
   0D51 32r22r00      [13] 2739 	ld	(#_cx1 + 0),a
                           2740 ;engine/../engine/enemmods/enem_homing_fanty.h:56: rda = ((cx2 - 1) << 4) + 4;
   0D54 3Ar23r00      [13] 2741 	ld	a,(#_cx2 + 0)
   0D57 C6 FF         [ 7] 2742 	add	a,#0xFF
   0D59 07            [ 4] 2743 	rlca
   0D5A 07            [ 4] 2744 	rlca
   0D5B 07            [ 4] 2745 	rlca
   0D5C 07            [ 4] 2746 	rlca
   0D5D E6 F0         [ 7] 2747 	and	a,#0xF0
   0D5F 21r18r00      [10] 2748 	ld	hl,#_rda
   0D62 C6 04         [ 7] 2749 	add	a, #0x04
   0D64 77            [ 7] 2750 	ld	(hl),a
   0D65 18 2C         [12] 2751 	jr	00150$
   0D67                    2752 00149$:
                           2753 ;engine/../engine/enemmods/enem_homing_fanty.h:58: cx1 = cx2 = (_en_x + 4) >> 4;
   0D67 03            [ 6] 2754 	inc	bc
   0D68 03            [ 6] 2755 	inc	bc
   0D69 03            [ 6] 2756 	inc	bc
   0D6A 03            [ 6] 2757 	inc	bc
   0D6B CB 28         [ 8] 2758 	sra	b
   0D6D CB 19         [ 8] 2759 	rr	c
   0D6F CB 28         [ 8] 2760 	sra	b
   0D71 CB 19         [ 8] 2761 	rr	c
   0D73 CB 28         [ 8] 2762 	sra	b
   0D75 CB 19         [ 8] 2763 	rr	c
   0D77 CB 28         [ 8] 2764 	sra	b
   0D79 CB 19         [ 8] 2765 	rr	c
   0D7B 21r23r00      [10] 2766 	ld	hl,#_cx2 + 0
   0D7E 71            [ 7] 2767 	ld	(hl), c
   0D7F 21r22r00      [10] 2768 	ld	hl,#_cx1 + 0
   0D82 71            [ 7] 2769 	ld	(hl), c
                           2770 ;engine/../engine/enemmods/enem_homing_fanty.h:59: rda = ((cx1 + 1) << 4) - 4;
   0D83 3Ar22r00      [13] 2771 	ld	a,(#_cx1 + 0)
   0D86 3C            [ 4] 2772 	inc	a
   0D87 07            [ 4] 2773 	rlca
   0D88 07            [ 4] 2774 	rlca
   0D89 07            [ 4] 2775 	rlca
   0D8A 07            [ 4] 2776 	rlca
   0D8B E6 F0         [ 7] 2777 	and	a,#0xF0
   0D8D 21r18r00      [10] 2778 	ld	hl,#_rda
   0D90 C6 FC         [ 7] 2779 	add	a,#0xFC
   0D92 77            [ 7] 2780 	ld	(hl),a
   0D93                    2781 00150$:
                           2782 ;engine/../engine/enemmods/enem_homing_fanty.h:61: cm_two_points ();
   0D93 CDr00r00      [17] 2783 	call	_cm_two_points
                           2784 ;engine/../engine/enemmods/enem_homing_fanty.h:62: if ((at1 & 8) || (at2 & 8)) {
   0D96 21r20r00      [10] 2785 	ld	hl,#_at1+0
   0D99 CB 5E         [12] 2786 	bit	3, (hl)
   0D9B 20 07         [12] 2787 	jr	NZ,00151$
   0D9D 21r21r00      [10] 2788 	ld	hl,#_at2+0
   0DA0 CB 5E         [12] 2789 	bit	3, (hl)
   0DA2 28 2F         [12] 2790 	jr	Z,00155$
   0DA4                    2791 00151$:
                           2792 ;engine/../engine/enemmods/enem_homing_fanty.h:63: _enf_vx = -_enf_vx;
   0DA4 AF            [ 4] 2793 	xor	a, a
   0DA5 FD 21r43r00   [14] 2794 	ld	iy,#__enf_vx
   0DA9 FD 96 00      [19] 2795 	sub	a, 0 (iy)
   0DAC 32r43r00      [13] 2796 	ld	(#__enf_vx + 0),a
   0DAF 3E 00         [ 7] 2797 	ld	a, #0x00
   0DB1 FD 21r43r00   [14] 2798 	ld	iy,#__enf_vx
   0DB5 FD 9E 01      [19] 2799 	sbc	a, 1 (iy)
   0DB8 32r44r00      [13] 2800 	ld	(#__enf_vx + 1),a
                           2801 ;engine/../engine/enemmods/enem_homing_fanty.h:64: _en_x = rda; 
   0DBB 3Ar18r00      [13] 2802 	ld	a,(#_rda + 0)
   0DBE 32r34r00      [13] 2803 	ld	(#__en_x + 0),a
                           2804 ;engine/../engine/enemmods/enem_homing_fanty.h:65: _enf_x = rda << FIXBITS;
   0DC1 FD 21r18r00   [14] 2805 	ld	iy,#_rda
   0DC5 FD 6E 00      [19] 2806 	ld	l,0 (iy)
   0DC8 26 00         [ 7] 2807 	ld	h,#0x00
   0DCA 29            [11] 2808 	add	hl, hl
   0DCB 29            [11] 2809 	add	hl, hl
   0DCC 29            [11] 2810 	add	hl, hl
   0DCD 29            [11] 2811 	add	hl, hl
   0DCE 29            [11] 2812 	add	hl, hl
   0DCF 29            [11] 2813 	add	hl, hl
   0DD0 22r3Fr00      [16] 2814 	ld	(__enf_x),hl
   0DD3                    2815 00155$:
                           2816 ;engine/../engine/enemmods/enem_homing_fanty.h:73: _enf_y += _enf_vy; 
   0DD3 21r45r00      [10] 2817 	ld	hl,#__enf_vy
   0DD6 D5            [11] 2818 	push	de
   0DD7 FD 21r41r00   [14] 2819 	ld	iy,#__enf_y
   0DDB FD E5         [15] 2820 	push	iy
   0DDD D1            [10] 2821 	pop	de
   0DDE 1A            [ 7] 2822 	ld	a,(de)
   0DDF 86            [ 7] 2823 	add	a, (hl)
   0DE0 12            [ 7] 2824 	ld	(de),a
   0DE1 13            [ 6] 2825 	inc	de
   0DE2 1A            [ 7] 2826 	ld	a,(de)
   0DE3 23            [ 6] 2827 	inc	hl
   0DE4 8E            [ 7] 2828 	adc	a, (hl)
   0DE5 12            [ 7] 2829 	ld	(de),a
   0DE6 D1            [10] 2830 	pop	de
                           2831 ;engine/../engine/enemmods/enem_homing_fanty.h:74: if (_enf_y < 0) _enf_y = 0;
   0DE7 3Ar42r00      [13] 2832 	ld	a,(#__enf_y + 1)
   0DEA CB 7F         [ 8] 2833 	bit	7,a
   0DEC 28 06         [12] 2834 	jr	Z,00157$
   0DEE 21 00 00      [10] 2835 	ld	hl,#0x0000
   0DF1 22r41r00      [16] 2836 	ld	(__enf_y),hl
   0DF4                    2837 00157$:
                           2838 ;engine/../engine/enemmods/enem_homing_fanty.h:75: if (_enf_y > 11264) _enf_y = 11264;
   0DF4 AF            [ 4] 2839 	xor	a, a
   0DF5 FD 21r41r00   [14] 2840 	ld	iy,#__enf_y
   0DF9 FD BE 00      [19] 2841 	cp	a, 0 (iy)
   0DFC 3E 2C         [ 7] 2842 	ld	a,#0x2C
   0DFE FD 21r41r00   [14] 2843 	ld	iy,#__enf_y
   0E02 FD 9E 01      [19] 2844 	sbc	a, 1 (iy)
   0E05 E2r0Ar0E      [10] 2845 	jp	PO, 00597$
   0E08 EE 80         [ 7] 2846 	xor	a, #0x80
   0E0A                    2847 00597$:
   0E0A F2r13r0E      [10] 2848 	jp	P,00159$
   0E0D 21 00 2C      [10] 2849 	ld	hl,#0x2C00
   0E10 22r41r00      [16] 2850 	ld	(__enf_y),hl
   0E13                    2851 00159$:
                           2852 ;engine/../engine/enemmods/enem_homing_fanty.h:76: _en_y = _enf_y >> 6;
   0E13 2Ar41r00      [16] 2853 	ld	hl,(__enf_y)
   0E16 CB 2C         [ 8] 2854 	sra	h
   0E18 CB 1D         [ 8] 2855 	rr	l
   0E1A CB 2C         [ 8] 2856 	sra	h
   0E1C CB 1D         [ 8] 2857 	rr	l
   0E1E CB 2C         [ 8] 2858 	sra	h
   0E20 CB 1D         [ 8] 2859 	rr	l
   0E22 CB 2C         [ 8] 2860 	sra	h
   0E24 CB 1D         [ 8] 2861 	rr	l
   0E26 CB 2C         [ 8] 2862 	sra	h
   0E28 CB 1D         [ 8] 2863 	rr	l
   0E2A CB 2C         [ 8] 2864 	sra	h
   0E2C CB 1D         [ 8] 2865 	rr	l
   0E2E FD 21r35r00   [14] 2866 	ld	iy,#__en_y
   0E32 FD 75 00      [19] 2867 	ld	0 (iy),l
                           2868 ;engine/../engine/enemmods/enem_homing_fanty.h:80: if (_enf_vy) {
   0E35 3Ar46r00      [13] 2869 	ld	a,(#__enf_vy + 1)
   0E38 21r45r00      [10] 2870 	ld	hl,#__enf_vy + 0
   0E3B B6            [ 7] 2871 	or	a,(hl)
   0E3C CAr4Br0F      [10] 2872 	jp	Z,00167$
                           2873 ;engine/../engine/enemmods/enem_homing_fanty.h:81: cx1 = (_en_x + 4) >> 4;
   0E3F 21r34r00      [10] 2874 	ld	hl,#__en_x + 0
   0E42 5E            [ 7] 2875 	ld	e, (hl)
   0E43 16 00         [ 7] 2876 	ld	d,#0x00
   0E45 21 04 00      [10] 2877 	ld	hl,#0x0004
   0E48 19            [11] 2878 	add	hl,de
   0E49 CB 2C         [ 8] 2879 	sra	h
   0E4B CB 1D         [ 8] 2880 	rr	l
   0E4D CB 2C         [ 8] 2881 	sra	h
   0E4F CB 1D         [ 8] 2882 	rr	l
   0E51 CB 2C         [ 8] 2883 	sra	h
   0E53 CB 1D         [ 8] 2884 	rr	l
   0E55 CB 2C         [ 8] 2885 	sra	h
   0E57 CB 1D         [ 8] 2886 	rr	l
   0E59 FD 21r22r00   [14] 2887 	ld	iy,#_cx1
   0E5D FD 75 00      [19] 2888 	ld	0 (iy),l
                           2889 ;engine/../engine/enemmods/enem_homing_fanty.h:82: cx2 = (_en_x + 11) >> 4;
   0E60 21 0B 00      [10] 2890 	ld	hl,#0x000B
   0E63 19            [11] 2891 	add	hl,de
   0E64 CB 2C         [ 8] 2892 	sra	h
   0E66 CB 1D         [ 8] 2893 	rr	l
   0E68 CB 2C         [ 8] 2894 	sra	h
   0E6A CB 1D         [ 8] 2895 	rr	l
   0E6C CB 2C         [ 8] 2896 	sra	h
   0E6E CB 1D         [ 8] 2897 	rr	l
   0E70 CB 2C         [ 8] 2898 	sra	h
   0E72 CB 1D         [ 8] 2899 	rr	l
   0E74 FD 21r23r00   [14] 2900 	ld	iy,#_cx2
   0E78 FD 75 00      [19] 2901 	ld	0 (iy),l
                           2902 ;engine/../engine/enemmods/enem_homing_fanty.h:35: _enf_y = _en_y << FIXBITS;
   0E7B FD 21r35r00   [14] 2903 	ld	iy,#__en_y
   0E7F FD 4E 00      [19] 2904 	ld	c,0 (iy)
   0E82 06 00         [ 7] 2905 	ld	b,#0x00
                           2906 ;engine/../engine/enemmods/enem_homing_fanty.h:84: if (_enf_vy > 0) {
   0E84 AF            [ 4] 2907 	xor	a, a
   0E85 FD 21r45r00   [14] 2908 	ld	iy,#__enf_vy
   0E89 FD BE 00      [19] 2909 	cp	a, 0 (iy)
   0E8C FD 21r45r00   [14] 2910 	ld	iy,#__enf_vy
   0E90 FD 9E 01      [19] 2911 	sbc	a, 1 (iy)
   0E93 E2r98r0E      [10] 2912 	jp	PO, 00598$
   0E96 EE 80         [ 7] 2913 	xor	a, #0x80
   0E98                    2914 00598$:
   0E98 F2rCEr0E      [10] 2915 	jp	P,00161$
                           2916 ;engine/../engine/enemmods/enem_homing_fanty.h:85: rdb = 12;
   0E9B 21r19r00      [10] 2917 	ld	hl,#_rdb + 0
   0E9E 36 0C         [10] 2918 	ld	(hl), #0x0C
                           2919 ;engine/../engine/enemmods/enem_homing_fanty.h:86: cy1 = cy2 = (_en_y + 11) >> 4;
   0EA0 21 0B 00      [10] 2920 	ld	hl,#0x000B
   0EA3 09            [11] 2921 	add	hl,bc
   0EA4 CB 2C         [ 8] 2922 	sra	h
   0EA6 CB 1D         [ 8] 2923 	rr	l
   0EA8 CB 2C         [ 8] 2924 	sra	h
   0EAA CB 1D         [ 8] 2925 	rr	l
   0EAC CB 2C         [ 8] 2926 	sra	h
   0EAE CB 1D         [ 8] 2927 	rr	l
   0EB0 CB 2C         [ 8] 2928 	sra	h
   0EB2 CB 1D         [ 8] 2929 	rr	l
   0EB4 7D            [ 4] 2930 	ld	a,l
   0EB5 32r25r00      [13] 2931 	ld	(#_cy2 + 0),a
   0EB8 32r24r00      [13] 2932 	ld	(#_cy1 + 0),a
                           2933 ;engine/../engine/enemmods/enem_homing_fanty.h:87: rda = ((cy2 - 1) << 4) + 4;
   0EBB 3Ar25r00      [13] 2934 	ld	a,(#_cy2 + 0)
   0EBE C6 FF         [ 7] 2935 	add	a,#0xFF
   0EC0 07            [ 4] 2936 	rlca
   0EC1 07            [ 4] 2937 	rlca
   0EC2 07            [ 4] 2938 	rlca
   0EC3 07            [ 4] 2939 	rlca
   0EC4 E6 F0         [ 7] 2940 	and	a,#0xF0
   0EC6 21r18r00      [10] 2941 	ld	hl,#_rda
   0EC9 C6 04         [ 7] 2942 	add	a, #0x04
   0ECB 77            [ 7] 2943 	ld	(hl),a
   0ECC 18 31         [12] 2944 	jr	00162$
   0ECE                    2945 00161$:
                           2946 ;engine/../engine/enemmods/enem_homing_fanty.h:89: rdb = 8;
   0ECE 21r19r00      [10] 2947 	ld	hl,#_rdb + 0
   0ED1 36 08         [10] 2948 	ld	(hl), #0x08
                           2949 ;engine/../engine/enemmods/enem_homing_fanty.h:90: cy1 = cy2 = (_en_y + 4) >> 4;
   0ED3 03            [ 6] 2950 	inc	bc
   0ED4 03            [ 6] 2951 	inc	bc
   0ED5 03            [ 6] 2952 	inc	bc
   0ED6 03            [ 6] 2953 	inc	bc
   0ED7 CB 28         [ 8] 2954 	sra	b
   0ED9 CB 19         [ 8] 2955 	rr	c
   0EDB CB 28         [ 8] 2956 	sra	b
   0EDD CB 19         [ 8] 2957 	rr	c
   0EDF CB 28         [ 8] 2958 	sra	b
   0EE1 CB 19         [ 8] 2959 	rr	c
   0EE3 CB 28         [ 8] 2960 	sra	b
   0EE5 CB 19         [ 8] 2961 	rr	c
   0EE7 21r25r00      [10] 2962 	ld	hl,#_cy2 + 0
   0EEA 71            [ 7] 2963 	ld	(hl), c
   0EEB 21r24r00      [10] 2964 	ld	hl,#_cy1 + 0
   0EEE 71            [ 7] 2965 	ld	(hl), c
                           2966 ;engine/../engine/enemmods/enem_homing_fanty.h:91: rda = ((cy1 + 1) << 4) - 4;
   0EEF 3Ar24r00      [13] 2967 	ld	a,(#_cy1 + 0)
   0EF2 3C            [ 4] 2968 	inc	a
   0EF3 07            [ 4] 2969 	rlca
   0EF4 07            [ 4] 2970 	rlca
   0EF5 07            [ 4] 2971 	rlca
   0EF6 07            [ 4] 2972 	rlca
   0EF7 E6 F0         [ 7] 2973 	and	a,#0xF0
   0EF9 21r18r00      [10] 2974 	ld	hl,#_rda
   0EFC C6 FC         [ 7] 2975 	add	a,#0xFC
   0EFE 77            [ 7] 2976 	ld	(hl),a
   0EFF                    2977 00162$:
                           2978 ;engine/../engine/enemmods/enem_homing_fanty.h:94: cm_two_points ();
   0EFF CDr00r00      [17] 2979 	call	_cm_two_points
                           2980 ;engine/../engine/enemmods/enem_homing_fanty.h:95: if ((at1 & rdb) || (at2 & rdb)) {
   0F02 3Ar20r00      [13] 2981 	ld	a,(#_at1 + 0)
   0F05 FD 21r19r00   [14] 2982 	ld	iy,#_rdb
   0F09 FD A6 00      [19] 2983 	and	a, 0 (iy)
   0F0C B7            [ 4] 2984 	or	a, a
   0F0D 20 0D         [12] 2985 	jr	NZ,00163$
   0F0F 3Ar21r00      [13] 2986 	ld	a,(#_at2 + 0)
   0F12 FD 21r19r00   [14] 2987 	ld	iy,#_rdb
   0F16 FD A6 00      [19] 2988 	and	a, 0 (iy)
   0F19 B7            [ 4] 2989 	or	a, a
   0F1A 28 2F         [12] 2990 	jr	Z,00167$
   0F1C                    2991 00163$:
                           2992 ;engine/../engine/enemmods/enem_homing_fanty.h:96: _enf_vy = -_enf_vy;
   0F1C AF            [ 4] 2993 	xor	a, a
   0F1D FD 21r45r00   [14] 2994 	ld	iy,#__enf_vy
   0F21 FD 96 00      [19] 2995 	sub	a, 0 (iy)
   0F24 32r45r00      [13] 2996 	ld	(#__enf_vy + 0),a
   0F27 3E 00         [ 7] 2997 	ld	a, #0x00
   0F29 FD 21r45r00   [14] 2998 	ld	iy,#__enf_vy
   0F2D FD 9E 01      [19] 2999 	sbc	a, 1 (iy)
   0F30 32r46r00      [13] 3000 	ld	(#__enf_vy + 1),a
                           3001 ;engine/../engine/enemmods/enem_homing_fanty.h:97: _en_y = rda;
   0F33 3Ar18r00      [13] 3002 	ld	a,(#_rda + 0)
   0F36 32r35r00      [13] 3003 	ld	(#__en_y + 0),a
                           3004 ;engine/../engine/enemmods/enem_homing_fanty.h:98: _enf_y = rda << FIXBITS;
   0F39 FD 21r18r00   [14] 3005 	ld	iy,#_rda
   0F3D FD 6E 00      [19] 3006 	ld	l,0 (iy)
   0F40 26 00         [ 7] 3007 	ld	h,#0x00
   0F42 29            [11] 3008 	add	hl, hl
   0F43 29            [11] 3009 	add	hl, hl
   0F44 29            [11] 3010 	add	hl, hl
   0F45 29            [11] 3011 	add	hl, hl
   0F46 29            [11] 3012 	add	hl, hl
   0F47 29            [11] 3013 	add	hl, hl
   0F48 22r41r00      [16] 3014 	ld	(__enf_y),hl
   0F4B                    3015 00167$:
                           3016 ;engine/../engine/enemmods/enem_homing_fanty.h:105: cx1 = (_en_x + 8) >> 4;
   0F4B FD 21r34r00   [14] 3017 	ld	iy,#__en_x
   0F4F FD 6E 00      [19] 3018 	ld	l,0 (iy)
   0F52 26 00         [ 7] 3019 	ld	h,#0x00
   0F54 01 08 00      [10] 3020 	ld	bc,#0x0008
   0F57 09            [11] 3021 	add	hl,bc
   0F58 CB 2C         [ 8] 3022 	sra	h
   0F5A CB 1D         [ 8] 3023 	rr	l
   0F5C CB 2C         [ 8] 3024 	sra	h
   0F5E CB 1D         [ 8] 3025 	rr	l
   0F60 CB 2C         [ 8] 3026 	sra	h
   0F62 CB 1D         [ 8] 3027 	rr	l
   0F64 CB 2C         [ 8] 3028 	sra	h
   0F66 CB 1D         [ 8] 3029 	rr	l
   0F68 FD 21r22r00   [14] 3030 	ld	iy,#_cx1
   0F6C FD 75 00      [19] 3031 	ld	0 (iy),l
                           3032 ;engine/../engine/enemmods/enem_homing_fanty.h:106: cy1 = (_en_y + 8) >> 4;
   0F6F FD 21r35r00   [14] 3033 	ld	iy,#__en_y
   0F73 FD 6E 00      [19] 3034 	ld	l,0 (iy)
   0F76 26 00         [ 7] 3035 	ld	h,#0x00
   0F78 01 08 00      [10] 3036 	ld	bc,#0x0008
   0F7B 09            [11] 3037 	add	hl,bc
   0F7C CB 2C         [ 8] 3038 	sra	h
   0F7E CB 1D         [ 8] 3039 	rr	l
   0F80 CB 2C         [ 8] 3040 	sra	h
   0F82 CB 1D         [ 8] 3041 	rr	l
   0F84 CB 2C         [ 8] 3042 	sra	h
   0F86 CB 1D         [ 8] 3043 	rr	l
   0F88 CB 2C         [ 8] 3044 	sra	h
   0F8A CB 1D         [ 8] 3045 	rr	l
   0F8C FD 21r24r00   [14] 3046 	ld	iy,#_cy1
   0F90 FD 75 00      [19] 3047 	ld	0 (iy),l
                           3048 ;engine/../engine/enemmods/enem_homing_fanty.h:107: cm_two_points ();
   0F93 CDr00r00      [17] 3049 	call	_cm_two_points
                           3050 ;engine/../engine/enemmods/enem_homing_fanty.h:108: if (at1 & 1) {
   0F96 21r20r00      [10] 3051 	ld	hl,#_at1+0
   0F99 CB 46         [12] 3052 	bit	0, (hl)
   0F9B 28 11         [12] 3053 	jr	Z,00169$
                           3054 ;engine/../engine/enemmods/enem_homing_fanty.h:109: en_cttouched [gpit] = 8;
   0F9D 3Er1D         [ 7] 3055 	ld	a,#<(_en_cttouched)
   0F9F 21r08r00      [10] 3056 	ld	hl,#_gpit
   0FA2 86            [ 7] 3057 	add	a, (hl)
   0FA3 6F            [ 4] 3058 	ld	l, a
   0FA4 3Es02         [ 7] 3059 	ld	a, #>(_en_cttouched)
   0FA6 CE 00         [ 7] 3060 	adc	a, #0x00
   0FA8 67            [ 4] 3061 	ld	h, a
   0FA9 36 08         [10] 3062 	ld	(hl),#0x08
                           3063 ;engine/../engine/enemmods/enem_homing_fanty.h:110: enems_kill ();
   0FAB CDr80r06      [17] 3064 	call	_enems_kill
   0FAE                    3065 00169$:
                           3066 ;engine/../engine/enemmods/enem_homing_fanty.h:117: en_fr = (_en_x >> 3) & 1;
   0FAE 3Ar34r00      [13] 3067 	ld	a,(#__en_x + 0)
   0FB1 0F            [ 4] 3068 	rrca
   0FB2 0F            [ 4] 3069 	rrca
   0FB3 0F            [ 4] 3070 	rrca
   0FB4 E6 1F         [ 7] 3071 	and	a,#0x1F
   0FB6 E6 01         [ 7] 3072 	and	a, #0x01
   0FB8 32r2Br00      [13] 3073 	ld	(#_en_fr + 0),a
                           3074 ;engine/../engine/enemmods/enem_homing_fanty.h:122: rda = (prx < _en_x); enems_facing ();
   0FBB 21r34r00      [10] 3075 	ld	hl,#__en_x
   0FBE D5            [11] 3076 	push	de
   0FBF FD 21r18r00   [14] 3077 	ld	iy,#_rda
   0FC3 FD E5         [15] 3078 	push	iy
   0FC5 D1            [10] 3079 	pop	de
   0FC6 3Ar52r00      [13] 3080 	ld	a,(#_prx + 0)
   0FC9 96            [ 7] 3081 	sub	a, (hl)
   0FCA 3E 00         [ 7] 3082 	ld	a,#0x00
   0FCC 17            [ 4] 3083 	rla
   0FCD 12            [ 7] 3084 	ld	(de),a
   0FCE D1            [10] 3085 	pop	de
   0FCF CDrEAr03      [17] 3086 	call	_enems_facing
                           3087 ;engine/../engine/enemmods/enem_homing_fanty.h:123: en_spr = _en_s + en_fr + _en_facing;
   0FD2 21r2Br00      [10] 3088 	ld	hl,#_en_fr
   0FD5 3Ar33r00      [13] 3089 	ld	a,(#__en_s + 0)
   0FD8 86            [ 7] 3090 	add	a, (hl)
   0FD9 21r3Dr00      [10] 3091 	ld	hl,#__en_facing
   0FDC FD 21r2Er00   [14] 3092 	ld	iy,#_en_spr
   0FE0 86            [ 7] 3093 	add	a, (hl)
   0FE1 FD 77 00      [19] 3094 	ld	0 (iy),a
                           3095 ;engine/enengine.h:543: }
   0FE4                    3096 00170$:
                           3097 ;engine/enengine.h:547: en_spr_id [gpit] = en_spr;
   0FE4 3Er42         [ 7] 3098 	ld	a,#<(_en_spr_id)
   0FE6 21r08r00      [10] 3099 	ld	hl,#_gpit
   0FE9 86            [ 7] 3100 	add	a, (hl)
   0FEA 5F            [ 4] 3101 	ld	e,a
   0FEB 3Es02         [ 7] 3102 	ld	a,#>(_en_spr_id)
   0FED CE 00         [ 7] 3103 	adc	a, #0x00
   0FEF 57            [ 4] 3104 	ld	d,a
   0FF0 3Ar2Er00      [13] 3105 	ld	a,(#_en_spr + 0)
   0FF3 12            [ 7] 3106 	ld	(de),a
   0FF4                    3107 00173$:
                           3108 ;engine/enengine.h:446: ) {
   0FF4 3Ar32r00      [13] 3109 	ld	a,(#__en_t + 0)
   0FF7 D6 04         [ 7] 3110 	sub	a, #0x04
   0FF9 20 04         [12] 3111 	jr	NZ,00600$
   0FFB 3E 01         [ 7] 3112 	ld	a,#0x01
   0FFD 18 01         [12] 3113 	jr	00601$
   0FFF                    3114 00600$:
   0FFF AF            [ 4] 3115 	xor	a,a
   1000                    3116 00601$:
   1000 DD 77 FE      [19] 3117 	ld	-2 (ix),a
                           3118 ;engine/../engine/enemmods/enem_homing_fanty.h:35: _enf_y = _en_y << FIXBITS;
   1003 21r35r00      [10] 3119 	ld	hl,#__en_y + 0
   1006 46            [ 7] 3120 	ld	b, (hl)
   1007 0E 00         [ 7] 3121 	ld	c,#0x00
                           3122 ;engine/enengine.h:584: if (_en_t == 4 && pregotten && !pgotten && !pj) {
   1009 DD 7E FE      [19] 3123 	ld	a,-2 (ix)
   100C B7            [ 4] 3124 	or	a, a
   100D CArC6r11      [10] 3125 	jp	Z,00188$
   1010 3Ar31r00      [13] 3126 	ld	a,(#_pregotten + 0)
   1013 B7            [ 4] 3127 	or	a, a
   1014 CArC6r11      [10] 3128 	jp	Z,00188$
   1017 3Ar5Dr00      [13] 3129 	ld	a,(#_pgotten + 0)
   101A B7            [ 4] 3130 	or	a, a
   101B C2rC6r11      [10] 3131 	jp	NZ,00188$
   101E 3Ar5Br00      [13] 3132 	ld	a,(#_pj + 0)
   1021 B7            [ 4] 3133 	or	a, a
   1022 C2rC6r11      [10] 3134 	jp	NZ,00188$
                           3135 ;engine/../engine/enemmods/enem_linear.h:11: if (!en_status [gpit] || half_life) {
   1025 3Er23         [ 7] 3136 	ld	a,#<(_en_status)
   1027 21r08r00      [10] 3137 	ld	hl,#_gpit
   102A 86            [ 7] 3138 	add	a, (hl)
   102B DD 77 F7      [19] 3139 	ld	-9 (ix),a
   102E 3Es02         [ 7] 3140 	ld	a,#>(_en_status)
   1030 CE 00         [ 7] 3141 	adc	a, #0x00
   1032 DD 77 F8      [19] 3142 	ld	-8 (ix),a
                           3143 ;engine/enengine.h:592: py = (_en_y - 16) << 6; pry = py >> 6;
   1035 78            [ 4] 3144 	ld	a,b
   1036 C6 F0         [ 7] 3145 	add	a,#0xF0
   1038 6F            [ 4] 3146 	ld	l,a
   1039 79            [ 4] 3147 	ld	a,c
   103A CE FF         [ 7] 3148 	adc	a,#0xFF
   103C 67            [ 4] 3149 	ld	h,a
   103D 29            [11] 3150 	add	hl, hl
   103E 29            [11] 3151 	add	hl, hl
   103F 29            [11] 3152 	add	hl, hl
   1040 29            [11] 3153 	add	hl, hl
   1041 29            [11] 3154 	add	hl, hl
   1042 29            [11] 3155 	add	hl, hl
   1043 DD 75 FA      [19] 3156 	ld	-6 (ix),l
   1046 DD 74 FB      [19] 3157 	ld	-5 (ix),h
                           3158 ;engine/enengine.h:588: if (_en_mx) {
   1049 3Ar3Ar00      [13] 3159 	ld	a,(#__en_mx + 0)
   104C B7            [ 4] 3160 	or	a, a
   104D CArE0r10      [10] 3161 	jp	Z,00179$
                           3162 ;engine/enengine.h:589: if (pry + 16 >= _en_y && pry + 12 <= _en_y) {
   1050 FD 21r53r00   [14] 3163 	ld	iy,#_pry
   1054 FD 5E 00      [19] 3164 	ld	e,0 (iy)
   1057 16 00         [ 7] 3165 	ld	d,#0x00
   1059 21 10 00      [10] 3166 	ld	hl,#0x0010
   105C 19            [11] 3167 	add	hl,de
   105D 7D            [ 4] 3168 	ld	a,l
   105E 90            [ 4] 3169 	sub	a, b
   105F 7C            [ 4] 3170 	ld	a,h
   1060 99            [ 4] 3171 	sbc	a, c
   1061 E2r66r10      [10] 3172 	jp	PO, 00602$
   1064 EE 80         [ 7] 3173 	xor	a, #0x80
   1066                    3174 00602$:
   1066 FArE0r10      [10] 3175 	jp	M,00179$
   1069 21 0C 00      [10] 3176 	ld	hl,#0x000C
   106C 19            [11] 3177 	add	hl,de
   106D 78            [ 4] 3178 	ld	a,b
   106E 95            [ 4] 3179 	sub	a, l
   106F 79            [ 4] 3180 	ld	a,c
   1070 9C            [ 4] 3181 	sbc	a, h
   1071 E2r76r10      [10] 3182 	jp	PO, 00603$
   1074 EE 80         [ 7] 3183 	xor	a, #0x80
   1076                    3184 00603$:
   1076 FArE0r10      [10] 3185 	jp	M,00179$
                           3186 ;engine/enengine.h:590: pgotten = 1;
   1079 21r5Dr00      [10] 3187 	ld	hl,#_pgotten + 0
   107C 36 01         [10] 3188 	ld	(hl), #0x01
                           3189 ;engine/enengine.h:591: pgtmx = _en_mx << (6 - en_status [gpit]);
   107E 21r3Ar00      [10] 3190 	ld	hl,#__en_mx + 0
   1081 56            [ 7] 3191 	ld	d, (hl)
   1082 3Ar3Ar00      [13] 3192 	ld	a,(#__en_mx + 0)
   1085 17            [ 4] 3193 	rla
   1086 9F            [ 4] 3194 	sbc	a, a
   1087 5F            [ 4] 3195 	ld	e,a
   1088 E1            [10] 3196 	pop	hl
   1089 E5            [11] 3197 	push	hl
   108A 6E            [ 7] 3198 	ld	l,(hl)
   108B 26 00         [ 7] 3199 	ld	h,#0x00
   108D 3E 06         [ 7] 3200 	ld	a,#0x06
   108F 95            [ 4] 3201 	sub	a, l
   1090 6F            [ 4] 3202 	ld	l,a
   1091 3E 00         [ 7] 3203 	ld	a,#0x00
   1093 9C            [ 4] 3204 	sbc	a, h
   1094 7D            [ 4] 3205 	ld	a,l
   1095 F5            [11] 3206 	push	af
   1096 21r63r00      [10] 3207 	ld	hl,#_pgtmx + 0
   1099 72            [ 7] 3208 	ld	(hl), d
   109A 21r64r00      [10] 3209 	ld	hl,#_pgtmx + 1
   109D 73            [ 7] 3210 	ld	(hl), e
   109E F1            [10] 3211 	pop	af
   109F 3C            [ 4] 3212 	inc	a
   10A0 18 10         [12] 3213 	jr	00605$
   10A2                    3214 00604$:
   10A2 FD 21r63r00   [14] 3215 	ld	iy,#_pgtmx
   10A6 FD CB 00 26   [23] 3216 	sla	0 (iy)
   10AA FD 21r63r00   [14] 3217 	ld	iy,#_pgtmx
   10AE FD CB 01 16   [23] 3218 	rl	1 (iy)
   10B2                    3219 00605$:
   10B2 3D            [ 4] 3220 	dec	a
   10B3 20 ED         [12] 3221 	jr	NZ,00604$
                           3222 ;engine/enengine.h:592: py = (_en_y - 16) << 6; pry = py >> 6;
   10B5 DD 6E FA      [19] 3223 	ld	l,-6 (ix)
   10B8 DD 66 FB      [19] 3224 	ld	h,-5 (ix)
   10BB 22r4Cr00      [16] 3225 	ld	(_py),hl
   10BE 2Ar4Cr00      [16] 3226 	ld	hl,(_py)
   10C1 CB 2C         [ 8] 3227 	sra	h
   10C3 CB 1D         [ 8] 3228 	rr	l
   10C5 CB 2C         [ 8] 3229 	sra	h
   10C7 CB 1D         [ 8] 3230 	rr	l
   10C9 CB 2C         [ 8] 3231 	sra	h
   10CB CB 1D         [ 8] 3232 	rr	l
   10CD CB 2C         [ 8] 3233 	sra	h
   10CF CB 1D         [ 8] 3234 	rr	l
   10D1 CB 2C         [ 8] 3235 	sra	h
   10D3 CB 1D         [ 8] 3236 	rr	l
   10D5 CB 2C         [ 8] 3237 	sra	h
   10D7 CB 1D         [ 8] 3238 	rr	l
   10D9 FD 21r53r00   [14] 3239 	ld	iy,#_pry
   10DD FD 75 00      [19] 3240 	ld	0 (iy),l
   10E0                    3241 00179$:
                           3242 ;engine/enengine.h:589: if (pry + 16 >= _en_y && pry + 12 <= _en_y) {
   10E0 21r53r00      [10] 3243 	ld	hl,#_pry + 0
   10E3 5E            [ 7] 3244 	ld	e, (hl)
   10E4 16 00         [ 7] 3245 	ld	d,#0x00
                           3246 ;engine/enengine.h:600: (_en_my > 0 && pry + 16 + _en_my >= _en_y && pry + 12 <= _en_y)
   10E6 3Ar3Br00      [13] 3247 	ld	a,(#__en_my + 0)
   10E9 DD 77 FC      [19] 3248 	ld	-4 (ix),a
   10EC FD 21r3Br00   [14] 3249 	ld	iy,#__en_my
   10F0 FD 7E 00      [19] 3250 	ld	a,0 (iy)
   10F3 17            [ 4] 3251 	rla
   10F4 9F            [ 4] 3252 	sbc	a, a
   10F5 DD 77 FD      [19] 3253 	ld	-3 (ix),a
                           3254 ;engine/enengine.h:599: (_en_my < 0 && pry + 17 >= _en_y && pry + 12 <= _en_y) ||
   10F8 21 0C 00      [10] 3255 	ld	hl,#0x000C
   10FB 19            [11] 3256 	add	hl,de
   10FC 78            [ 4] 3257 	ld	a,b
   10FD 95            [ 4] 3258 	sub	a, l
   10FE 79            [ 4] 3259 	ld	a,c
   10FF 9C            [ 4] 3260 	sbc	a, h
   1100 E2r05r11      [10] 3261 	jp	PO, 00606$
   1103 EE 80         [ 7] 3262 	xor	a, #0x80
   1105                    3263 00606$:
   1105 07            [ 4] 3264 	rlca
   1106 E6 01         [ 7] 3265 	and	a,#0x01
   1108 DD 77 F9      [19] 3266 	ld	-7 (ix),a
   110B FD 21r3Br00   [14] 3267 	ld	iy,#__en_my
   110F FD CB 00 7E   [20] 3268 	bit	7,0 (iy)
   1113 28 16         [12] 3269 	jr	Z,00186$
   1115 21 11 00      [10] 3270 	ld	hl,#0x0011
   1118 19            [11] 3271 	add	hl,de
   1119 7D            [ 4] 3272 	ld	a,l
   111A 90            [ 4] 3273 	sub	a, b
   111B 7C            [ 4] 3274 	ld	a,h
   111C 99            [ 4] 3275 	sbc	a, c
   111D E2r22r11      [10] 3276 	jp	PO, 00607$
   1120 EE 80         [ 7] 3277 	xor	a, #0x80
   1122                    3278 00607$:
   1122 FAr2Br11      [10] 3279 	jp	M,00186$
   1125 DD 7E F9      [19] 3280 	ld	a,-7 (ix)
   1128 B7            [ 4] 3281 	or	a, a
   1129 28 2D         [12] 3282 	jr	Z,00180$
   112B                    3283 00186$:
                           3284 ;engine/enengine.h:600: (_en_my > 0 && pry + 16 + _en_my >= _en_y && pry + 12 <= _en_y)
   112B AF            [ 4] 3285 	xor	a, a
   112C FD 21r3Br00   [14] 3286 	ld	iy,#__en_my
   1130 FD 96 00      [19] 3287 	sub	a, 0 (iy)
   1133 E2r38r11      [10] 3288 	jp	PO, 00608$
   1136 EE 80         [ 7] 3289 	xor	a, #0x80
   1138                    3290 00608$:
   1138 F2rC6r11      [10] 3291 	jp	P,00188$
   113B 21 10 00      [10] 3292 	ld	hl,#0x0010
   113E 19            [11] 3293 	add	hl,de
   113F DD 5E FC      [19] 3294 	ld	e,-4 (ix)
   1142 DD 56 FD      [19] 3295 	ld	d,-3 (ix)
   1145 19            [11] 3296 	add	hl,de
   1146 7D            [ 4] 3297 	ld	a,l
   1147 90            [ 4] 3298 	sub	a, b
   1148 7C            [ 4] 3299 	ld	a,h
   1149 99            [ 4] 3300 	sbc	a, c
   114A E2r4Fr11      [10] 3301 	jp	PO, 00609$
   114D EE 80         [ 7] 3302 	xor	a, #0x80
   114F                    3303 00609$:
   114F FArC6r11      [10] 3304 	jp	M,00188$
   1152 DD 7E F9      [19] 3305 	ld	a,-7 (ix)
   1155 B7            [ 4] 3306 	or	a, a
   1156 20 6E         [12] 3307 	jr	NZ,00188$
   1158                    3308 00180$:
                           3309 ;engine/enengine.h:602: pgotten = 1;
   1158 21r5Dr00      [10] 3310 	ld	hl,#_pgotten + 0
   115B 36 01         [10] 3311 	ld	(hl), #0x01
                           3312 ;engine/enengine.h:603: pgtmy = _en_my << (6 - en_status [gpit]);
   115D E1            [10] 3313 	pop	hl
   115E E5            [11] 3314 	push	hl
   115F 6E            [ 7] 3315 	ld	l,(hl)
   1160 26 00         [ 7] 3316 	ld	h,#0x00
   1162 3E 06         [ 7] 3317 	ld	a,#0x06
   1164 95            [ 4] 3318 	sub	a, l
   1165 6F            [ 4] 3319 	ld	l,a
   1166 3E 00         [ 7] 3320 	ld	a,#0x00
   1168 9C            [ 4] 3321 	sbc	a, h
   1169 F5            [11] 3322 	push	af
   116A DD 7E FC      [19] 3323 	ld	a,-4 (ix)
   116D FD 21r65r00   [14] 3324 	ld	iy,#_pgtmy
   1171 FD 77 00      [19] 3325 	ld	0 (iy),a
   1174 DD 7E FD      [19] 3326 	ld	a,-3 (ix)
   1177 FD 21r65r00   [14] 3327 	ld	iy,#_pgtmy
   117B FD 77 01      [19] 3328 	ld	1 (iy),a
   117E F1            [10] 3329 	pop	af
   117F 2C            [ 4] 3330 	inc	l
   1180 18 10         [12] 3331 	jr	00611$
   1182                    3332 00610$:
   1182 FD 21r65r00   [14] 3333 	ld	iy,#_pgtmy
   1186 FD CB 00 26   [23] 3334 	sla	0 (iy)
   118A FD 21r65r00   [14] 3335 	ld	iy,#_pgtmy
   118E FD CB 01 16   [23] 3336 	rl	1 (iy)
   1192                    3337 00611$:
   1192 2D            [ 4] 3338 	dec	l
   1193 20 ED         [12] 3339 	jr	NZ,00610$
                           3340 ;engine/enengine.h:604: py = (_en_y - 16) << 6; pry = py >> 6;
   1195 DD 6E FA      [19] 3341 	ld	l,-6 (ix)
   1198 DD 66 FB      [19] 3342 	ld	h,-5 (ix)
   119B 22r4Cr00      [16] 3343 	ld	(_py),hl
   119E 2Ar4Cr00      [16] 3344 	ld	hl,(_py)
   11A1 CB 2C         [ 8] 3345 	sra	h
   11A3 CB 1D         [ 8] 3346 	rr	l
   11A5 CB 2C         [ 8] 3347 	sra	h
   11A7 CB 1D         [ 8] 3348 	rr	l
   11A9 CB 2C         [ 8] 3349 	sra	h
   11AB CB 1D         [ 8] 3350 	rr	l
   11AD CB 2C         [ 8] 3351 	sra	h
   11AF CB 1D         [ 8] 3352 	rr	l
   11B1 CB 2C         [ 8] 3353 	sra	h
   11B3 CB 1D         [ 8] 3354 	rr	l
   11B5 CB 2C         [ 8] 3355 	sra	h
   11B7 CB 1D         [ 8] 3356 	rr	l
   11B9 FD 21r53r00   [14] 3357 	ld	iy,#_pry
   11BD FD 75 00      [19] 3358 	ld	0 (iy),l
                           3359 ;engine/enengine.h:605: pvy = 0;
   11C0 21 00 00      [10] 3360 	ld	hl,#0x0000
   11C3 22r50r00      [16] 3361 	ld	(_pvy),hl
   11C6                    3362 00188$:
                           3363 ;engine/enengine.h:617: en_is_alive == 0	// General condition.
   11C6 3Ar30r00      [13] 3364 	ld	a,(#_en_is_alive + 0)
   11C9 B7            [ 4] 3365 	or	a, a
   11CA CArF1r12      [10] 3366 	jp	Z,00230$
                           3367 ;engine/enengine.h:619: || en_cttouched [gpit]
   11CD 3Er1D         [ 7] 3368 	ld	a,#<(_en_cttouched)
   11CF 21r08r00      [10] 3369 	ld	hl,#_gpit
   11D2 86            [ 7] 3370 	add	a, (hl)
   11D3 5F            [ 4] 3371 	ld	e,a
   11D4 3Es02         [ 7] 3372 	ld	a,#>(_en_cttouched)
   11D6 CE 00         [ 7] 3373 	adc	a, #0x00
   11D8 57            [ 4] 3374 	ld	d,a
   11D9 1A            [ 7] 3375 	ld	a,(de)
   11DA B7            [ 4] 3376 	or	a, a
   11DB C2rF1r12      [10] 3377 	jp	NZ,00230$
                           3378 ;engine/enengine.h:645: ) goto skipdo;
   11DE DD 7E FE      [19] 3379 	ld	a,-2 (ix)
   11E1 B7            [ 4] 3380 	or	a, a
   11E2 C2rF1r12      [10] 3381 	jp	NZ,00230$
                           3382 ;engine/enengine.h:653: pregotten && 
   11E5 3Ar31r00      [13] 3383 	ld	a,(#_pregotten + 0)
   11E8 B7            [ 4] 3384 	or	a, a
   11E9 CArADr12      [10] 3385 	jp	Z,00216$
                           3386 ;engine/enengine.h:654: pry < _en_y && 
   11EC 21r35r00      [10] 3387 	ld	hl,#__en_y
   11EF 3Ar53r00      [13] 3388 	ld	a,(#_pry + 0)
   11F2 96            [ 7] 3389 	sub	a, (hl)
   11F3 D2rADr12      [10] 3390 	jp	NC,00216$
                           3391 ;engine/enengine.h:655: pry + 15 + ENEMS_COLLISION_VSTRETCH_FG >= _en_y &&
   11F6 FD 21r53r00   [14] 3392 	ld	iy,#_pry
   11FA FD 6E 00      [19] 3393 	ld	l,0 (iy)
   11FD 26 00         [ 7] 3394 	ld	h,#0x00
   11FF 11 0D 00      [10] 3395 	ld	de,#0x000D
   1202 19            [11] 3396 	add	hl,de
   1203 7D            [ 4] 3397 	ld	a,l
   1204 90            [ 4] 3398 	sub	a, b
   1205 7C            [ 4] 3399 	ld	a,h
   1206 99            [ 4] 3400 	sbc	a, c
   1207 E2r0Cr12      [10] 3401 	jp	PO, 00612$
   120A EE 80         [ 7] 3402 	xor	a, #0x80
   120C                    3403 00612$:
   120C FArADr12      [10] 3404 	jp	M,00216$
                           3405 ;engine/enengine.h:656: pgotten == 0 &&	ppossee == 0
   120F 3Ar5Dr00      [13] 3406 	ld	a,(#_pgotten + 0)
   1212 B7            [ 4] 3407 	or	a, a
   1213 C2rADr12      [10] 3408 	jp	NZ,00216$
   1216 3Ar5Er00      [13] 3409 	ld	a,(#_ppossee + 0)
   1219 B7            [ 4] 3410 	or	a, a
   121A C2rADr12      [10] 3411 	jp	NZ,00216$
                           3412 ;engine/enengine.h:669: ) {
   121D 3E 20         [ 7] 3413 	ld	a,#0x20
   121F FD 21r50r00   [14] 3414 	ld	iy,#_pvy
   1223 FD BE 00      [19] 3415 	cp	a, 0 (iy)
   1226 3E 00         [ 7] 3416 	ld	a,#0x00
   1228 FD 21r50r00   [14] 3417 	ld	iy,#_pvy
   122C FD 9E 01      [19] 3418 	sbc	a, 1 (iy)
   122F E2r34r12      [10] 3419 	jp	PO, 00613$
   1232 EE 80         [ 7] 3420 	xor	a, #0x80
   1234                    3421 00613$:
   1234 F2rADr12      [10] 3422 	jp	P,00216$
                           3423 ;engine/enengine.h:672: if (res_on || res_disable)
   1237 3ArB1r02      [13] 3424 	ld	a,(#_res_on + 0)
   123A B7            [ 4] 3425 	or	a, a
   123B 20 06         [12] 3426 	jr	NZ,00196$
   123D 3ArB0r02      [13] 3427 	ld	a,(#_res_disable + 0)
   1240 B7            [ 4] 3428 	or	a, a
   1241 28 03         [12] 3429 	jr	Z,00197$
   1243                    3430 00196$:
                           3431 ;engine/enengine.h:677: enems_hit ();
   1243 CDrA1r06      [17] 3432 	call	_enems_hit
   1246                    3433 00197$:
                           3434 ;engine/enengine.h:680: if (_en_my < 0) _en_my = -_en_my;
   1246 3Ar3Br00      [13] 3435 	ld	a,(#__en_my + 0)
   1249 CB 7F         [ 8] 3436 	bit	7,a
   124B 28 0B         [12] 3437 	jr	Z,00200$
   124D AF            [ 4] 3438 	xor	a, a
   124E FD 21r3Br00   [14] 3439 	ld	iy,#__en_my
   1252 FD 96 00      [19] 3440 	sub	a, 0 (iy)
   1255 32r3Br00      [13] 3441 	ld	(#__en_my + 0),a
   1258                    3442 00200$:
                           3443 ;engine/enengine.h:684: if (pad0 & PAD_A) {
   1258 21r04r00      [10] 3444 	ld	hl,#_pad0+0
   125B CB 6E         [12] 3445 	bit	5, (hl)
   125D 28 05         [12] 3446 	jr	Z,00202$
                           3447 ;engine/enengine.h:685: jump_start ();
   125F CDr00r00      [17] 3448 	call	_jump_start
   1262 18 06         [12] 3449 	jr	00203$
   1264                    3450 00202$:
                           3451 ;engine/enengine.h:689: pvy = -PLAYER_VY_JUMP_INITIAL << 1;
   1264 21 80 FF      [10] 3452 	ld	hl,#0xFF80
   1267 22r50r00      [16] 3453 	ld	(_pvy),hl
   126A                    3454 00203$:
                           3455 ;engine/enengine.h:697: if (pry > _en_y - ENEMS_UPPER_COLLISION_BOUND) { pry = _en_y - ENEMS_UPPER_COLLISION_BOUND; py = pry << FIXBITS; }
   126A 3Ar35r00      [13] 3456 	ld	a,(#__en_y + 0)
   126D 2E 00         [ 7] 3457 	ld	l, #0x00
   126F C6 F4         [ 7] 3458 	add	a,#0xF4
   1271 5F            [ 4] 3459 	ld	e,a
   1272 7D            [ 4] 3460 	ld	a,l
   1273 CE FF         [ 7] 3461 	adc	a,#0xFF
   1275 57            [ 4] 3462 	ld	d,a
   1276 FD 21r53r00   [14] 3463 	ld	iy,#_pry
   127A FD 6E 00      [19] 3464 	ld	l,0 (iy)
   127D 26 00         [ 7] 3465 	ld	h,#0x00
   127F 7B            [ 4] 3466 	ld	a,e
   1280 95            [ 4] 3467 	sub	a, l
   1281 7A            [ 4] 3468 	ld	a,d
   1282 9C            [ 4] 3469 	sbc	a, h
   1283 E2r88r12      [10] 3470 	jp	PO, 00615$
   1286 EE 80         [ 7] 3471 	xor	a, #0x80
   1288                    3472 00615$:
   1288 F2rA6r12      [10] 3473 	jp	P,00205$
   128B 21r53r00      [10] 3474 	ld	hl,#_pry
   128E 3Ar35r00      [13] 3475 	ld	a,(#__en_y + 0)
   1291 C6 F4         [ 7] 3476 	add	a,#0xF4
   1293 77            [ 7] 3477 	ld	(hl),a
   1294 FD 21r53r00   [14] 3478 	ld	iy,#_pry
   1298 FD 6E 00      [19] 3479 	ld	l,0 (iy)
   129B 26 00         [ 7] 3480 	ld	h,#0x00
   129D 29            [11] 3481 	add	hl, hl
   129E 29            [11] 3482 	add	hl, hl
   129F 29            [11] 3483 	add	hl, hl
   12A0 29            [11] 3484 	add	hl, hl
   12A1 29            [11] 3485 	add	hl, hl
   12A2 29            [11] 3486 	add	hl, hl
   12A3 22r4Cr00      [16] 3487 	ld	(_py),hl
   12A6                    3488 00205$:
                           3489 ;engine/enengine.h:699: touched = 1;
   12A6 21r2Fr00      [10] 3490 	ld	hl,#_touched + 0
   12A9 36 01         [10] 3491 	ld	(hl), #0x01
   12AB 18 44         [12] 3492 	jr	00230$
   12AD                    3493 00216$:
                           3494 ;engine/enengine.h:707: touched == 0 &&
   12AD 3Ar2Fr00      [13] 3495 	ld	a,(#_touched + 0)
   12B0 B7            [ 4] 3496 	or	a, a
   12B1 20 3E         [12] 3497 	jr	NZ,00230$
                           3498 ;engine/enengine.h:708: collide ()
   12B3 CDr00r00      [17] 3499 	call	_collide
   12B6 7D            [ 4] 3500 	ld	a,l
   12B7 B7            [ 4] 3501 	or	a, a
   12B8 28 37         [12] 3502 	jr	Z,00230$
                           3503 ;engine/enengine.h:714: en_sg_1 = 0;
   12BA 21r47r00      [10] 3504 	ld	hl,#_en_sg_1 + 0
   12BD 36 00         [10] 3505 	ld	(hl), #0x00
                           3506 ;engine/enengine.h:718: en_sg_2 = (pflickering == 0);
   12BF 3Ar60r00      [13] 3507 	ld	a,(#_pflickering + 0)
   12C2 B7            [ 4] 3508 	or	a, a
   12C3 20 04         [12] 3509 	jr	NZ,00616$
   12C5 3E 01         [ 7] 3510 	ld	a,#0x01
   12C7 18 01         [12] 3511 	jr	00617$
   12C9                    3512 00616$:
   12C9 AF            [ 4] 3513 	xor	a,a
   12CA                    3514 00617$:
   12CA 32r48r00      [13] 3515 	ld	(#_en_sg_2 + 0),a
                           3516 ;engine/enengine.h:727: ) en_sg_2 = 0;
   12CD 3ArB1r02      [13] 3517 	ld	a,(#_res_on + 0)
   12D0 3D            [ 4] 3518 	dec	a
   12D1 20 05         [12] 3519 	jr	NZ,00207$
   12D3 21r48r00      [10] 3520 	ld	hl,#_en_sg_2 + 0
   12D6 36 00         [10] 3521 	ld	(hl), #0x00
   12D8                    3522 00207$:
                           3523 ;engine/enengine.h:751: if (en_sg_1) enems_hit ();
   12D8 3Ar47r00      [13] 3524 	ld	a,(#_en_sg_1 + 0)
   12DB B7            [ 4] 3525 	or	a, a
   12DC 28 03         [12] 3526 	jr	Z,00209$
   12DE CDrA1r06      [17] 3527 	call	_enems_hit
   12E1                    3528 00209$:
                           3529 ;engine/enengine.h:753: if (en_sg_2) { 
   12E1 3Ar48r00      [13] 3530 	ld	a,(#_en_sg_2 + 0)
   12E4 B7            [ 4] 3531 	or	a, a
   12E5 28 05         [12] 3532 	jr	Z,00211$
                           3533 ;engine/enengine.h:754: pkill = 1; 
   12E7 21r6Br00      [10] 3534 	ld	hl,#_pkill + 0
   12EA 36 01         [10] 3535 	ld	(hl), #0x01
   12EC                    3536 00211$:
                           3537 ;engine/enengine.h:769: touched = 1; 
   12EC 21r2Fr00      [10] 3538 	ld	hl,#_touched + 0
   12EF 36 01         [10] 3539 	ld	(hl), #0x01
                           3540 ;engine/enengine.h:890: skipdo: 
   12F1                    3541 00230$:
                           3542 ;engine/enengine.h:893: if (en_spr != 0xff) {
   12F1 3Ar2Er00      [13] 3543 	ld	a,(#_en_spr + 0)
   12F4 3C            [ 4] 3544 	inc	a
   12F5 28 29         [12] 3545 	jr	Z,00232$
                           3546 ;engine/enengine.h:896: spr_enems [en_spr]
   12F7 FD 21r2Er00   [14] 3547 	ld	iy,#_en_spr
   12FB FD 6E 00      [19] 3548 	ld	l,0 (iy)
   12FE 26 00         [ 7] 3549 	ld	h,#0x00
   1300 29            [11] 3550 	add	hl, hl
   1301 EB            [ 4] 3551 	ex	de,hl
   1302 2Ar86r00      [16] 3552 	ld	hl,(_spr_enems)
   1305 19            [11] 3553 	add	hl,de
   1306 4E            [ 7] 3554 	ld	c,(hl)
   1307 23            [ 6] 3555 	inc	hl
   1308 46            [ 7] 3556 	ld	b,(hl)
                           3557 ;engine/enengine.h:895: _en_x + en_spr_x_mod, _en_y + SPRITE_ADJUST, 
   1309 3Ar35r00      [13] 3558 	ld	a,(#__en_y + 0)
   130C C6 F7         [ 7] 3559 	add	a, #0xF7
   130E 57            [ 4] 3560 	ld	d,a
   130F 21r29r02      [10] 3561 	ld	hl,#_en_spr_x_mod
   1312 3Ar34r00      [13] 3562 	ld	a,(#__en_x + 0)
   1315 86            [ 7] 3563 	add	a, (hl)
   1316 C5            [11] 3564 	push	bc
   1317 D5            [11] 3565 	push	de
   1318 33            [ 6] 3566 	inc	sp
   1319 F5            [11] 3567 	push	af
   131A 33            [ 6] 3568 	inc	sp
   131B CDr00r00      [17] 3569 	call	_SG_addMetaSprite1x1
   131E F1            [10] 3570 	pop	af
   131F F1            [10] 3571 	pop	af
   1320                    3572 00232$:
                           3573 ;engine/enengine.h:902: enems_update_unsigned_char_arrays ();
   1320 CDrE4r02      [17] 3574 	call	_enems_update_unsigned_char_arrays
   1323 C3rFEr06      [10] 3575 	jp	00233$
   1326                    3576 00236$:
   1326 DD F9         [10] 3577 	ld	sp, ix
   1328 DD E1         [14] 3578 	pop	ix
   132A C9            [10] 3579 	ret
                           3580 ;engine/../my/game_frame.h:7: void draw_game_frame (void) {
                           3581 ;	---------------------------------
                           3582 ; Function draw_game_frame
                           3583 ; ---------------------------------
   132B                    3584 _draw_game_frame::
                           3585 ;engine/../my/game_frame.h:8: gp_gen = hud_rle; unrle ();
   132B 21r00r00      [10] 3586 	ld	hl,#_hud_rle+0
   132E 22r0Cr00      [16] 3587 	ld	(_gp_gen),hl
   1331 C3r00r00      [10] 3588 	jp  _unrle
                           3589 ;engine/frame.h:9: void hud_update (void) {
                           3590 ;	---------------------------------
                           3591 ; Function hud_update
                           3592 ; ---------------------------------
   1334                    3593 _hud_update::
                           3594 ;engine/frame.h:12: if (okilled != pkilled) {
   1334 3ArC8r01      [13] 3595 	ld	a,(#_okilled + 0)
   1337 FD 21r73r00   [14] 3596 	ld	iy,#_pkilled
   133B FD 96 00      [19] 3597 	sub	a, 0 (iy)
   133E 28 24         [12] 3598 	jr	Z,00102$
                           3599 ;engine/frame.h:13: okilled = pkilled;
   1340 3Ar73r00      [13] 3600 	ld	a,(#_pkilled + 0)
   1343 32rC8r01      [13] 3601 	ld	(#_okilled + 0),a
                           3602 ;engine/frame.h:14: _x = KILLED_X; _y = KILLED_Y; _n = c_max_enems - pkilled; p_t ();
   1346 21r00r00      [10] 3603 	ld	hl,#__x + 0
   1349 36 15         [10] 3604 	ld	(hl), #0x15
   134B 21r01r00      [10] 3605 	ld	hl,#__y + 0
   134E 36 01         [10] 3606 	ld	(hl), #0x01
   1350 21r73r00      [10] 3607 	ld	hl,#_pkilled
   1353 D5            [11] 3608 	push	de
   1354 FD 21r02r00   [14] 3609 	ld	iy,#__n
   1358 FD E5         [15] 3610 	push	iy
   135A D1            [10] 3611 	pop	de
   135B 3ArB9r01      [13] 3612 	ld	a,(#_c_max_enems + 0)
   135E 96            [ 7] 3613 	sub	a, (hl)
   135F 12            [ 7] 3614 	ld	(de),a
   1360 D1            [10] 3615 	pop	de
   1361 CDr00r00      [17] 3616 	call	_p_t
   1364                    3617 00102$:
                           3618 ;engine/frame.h:32: if (okeys != pkeys) {
   1364 3ArC5r01      [13] 3619 	ld	a,(#_okeys + 0)
   1367 FD 21r70r00   [14] 3620 	ld	iy,#_pkeys
   136B FD 96 00      [19] 3621 	sub	a, 0 (iy)
   136E 28 19         [12] 3622 	jr	Z,00104$
                           3623 ;engine/frame.h:33: okeys = pkeys;
   1370 21r70r00      [10] 3624 	ld	hl,#_pkeys + 0
   1373 56            [ 7] 3625 	ld	d, (hl)
   1374 21rC5r01      [10] 3626 	ld	hl,#_okeys + 0
   1377 72            [ 7] 3627 	ld	(hl), d
                           3628 ;engine/frame.h:34: _x = KEYS_X; _y = KEYS_Y; _n = pkeys; p_t ();
   1378 21r00r00      [10] 3629 	ld	hl,#__x + 0
   137B 36 0C         [10] 3630 	ld	(hl), #0x0C
   137D 21r01r00      [10] 3631 	ld	hl,#__y + 0
   1380 36 01         [10] 3632 	ld	(hl), #0x01
   1382 21r02r00      [10] 3633 	ld	hl,#__n + 0
   1385 72            [ 7] 3634 	ld	(hl), d
   1386 CDr00r00      [17] 3635 	call	_p_t
   1389                    3636 00104$:
                           3637 ;engine/frame.h:39: if (olife != plife) {
   1389 3ArC4r01      [13] 3638 	ld	a,(#_olife + 0)
   138C FD 21r6Fr00   [14] 3639 	ld	iy,#_plife
   1390 FD 96 00      [19] 3640 	sub	a, 0 (iy)
   1393 C8            [11] 3641 	ret	Z
                           3642 ;engine/frame.h:40: olife = plife;
   1394 21r6Fr00      [10] 3643 	ld	hl,#_plife + 0
   1397 56            [ 7] 3644 	ld	d, (hl)
   1398 21rC4r01      [10] 3645 	ld	hl,#_olife + 0
   139B 72            [ 7] 3646 	ld	(hl), d
                           3647 ;engine/frame.h:41: _x = LIFE_X; _y = LIFE_Y; _n = plife; p_t ();
   139C 21r00r00      [10] 3648 	ld	hl,#__x + 0
   139F 36 04         [10] 3649 	ld	(hl), #0x04
   13A1 21r01r00      [10] 3650 	ld	hl,#__y + 0
   13A4 36 01         [10] 3651 	ld	(hl), #0x01
   13A6 21r02r00      [10] 3652 	ld	hl,#__n + 0
   13A9 72            [ 7] 3653 	ld	(hl), d
   13AA C3r00r00      [10] 3654 	jp  _p_t
                           3655 ;my/pres.h:6: void bat_in (void) {
                           3656 ;	---------------------------------
                           3657 ; Function bat_in
                           3658 ; ---------------------------------
   13AD                    3659 _bat_in::
                           3660 ;my/pres.h:7: SG_displayOn ();
   13AD 21 40 01      [10] 3661 	ld	hl,#0x0140
   13B0 E5            [11] 3662 	push	hl
   13B1 CDr00r00      [17] 3663 	call	_SG_VDPturnOnFeature
   13B4 F1            [10] 3664 	pop	af
                           3665 ;my/pres.h:8: while (SG_getKeysStatus ());
   13B5                    3666 00101$:
   13B5 CDr00r00      [17] 3667 	call	_SG_getKeysStatus
   13B8 7C            [ 4] 3668 	ld	a,h
   13B9 B5            [ 4] 3669 	or	a,l
   13BA 20 F9         [12] 3670 	jr	NZ,00101$
   13BC C9            [10] 3671 	ret
                           3672 ;my/pres.h:11: void bat_out (void) {
                           3673 ;	---------------------------------
                           3674 ; Function bat_out
                           3675 ; ---------------------------------
   13BD                    3676 _bat_out::
                           3677 ;my/pres.h:12: PSGStop ();
   13BD CDr00r00      [17] 3678 	call	_PSGStop
                           3679 ;my/pres.h:13: SG_displayOff ();
   13C0 21 40 01      [10] 3680 	ld	hl,#0x0140
   13C3 E5            [11] 3681 	push	hl
   13C4 CDr00r00      [17] 3682 	call	_SG_VDPturnOffFeature
   13C7 F1            [10] 3683 	pop	af
                           3684 ;my/pres.h:14: SG_initSprites ();
   13C8 CDr00r00      [17] 3685 	call	_SG_initSprites
                           3686 ;my/pres.h:15: UNSAFE_SG_copySpritestoSAT ();	
   13CB C3r00r00      [10] 3687 	jp  _UNSAFE_SG_copySpritestoSAT
                           3688 ;my/pres.h:18: void pres (void (*func) (void)) {
                           3689 ;	---------------------------------
                           3690 ; Function pres
                           3691 ; ---------------------------------
   13CE                    3692 _pres::
                           3693 ;my/pres.h:19: cls ();
   13CE CDr00r00      [17] 3694 	call	_cls
                           3695 ;my/pres.h:20: (*func) ();
   13D1 C1            [10] 3696 	pop	bc
   13D2 E1            [10] 3697 	pop	hl
   13D3 E5            [11] 3698 	push	hl
   13D4 C5            [11] 3699 	push	bc
   13D5 CDr00r00      [17] 3700 	call	___sdcc_call_hl
                           3701 ;my/pres.h:21: bat_in ();
   13D8 CDrADr13      [17] 3702 	call	_bat_in
                           3703 ;my/pres.h:22: while (1) {
   13DB                    3704 00104$:
                           3705 ;my/pres.h:23: pad_read ();
   13DB CDr00r00      [17] 3706 	call	_pad_read
                           3707 ;my/pres.h:24: if (pad_this_frame & (PAD_A|PAD_B|PAD_START)) break;
   13DE 3Ar06r00      [13] 3708 	ld	a,(#_pad_this_frame + 0)
   13E1 E6 30         [ 7] 3709 	and	a, #0x30
   13E3 28 F6         [12] 3710 	jr	Z,00104$
                           3711 ;my/pres.h:26: bat_out ();
   13E5 C3rBDr13      [10] 3712 	jp  _bat_out
                           3713 ;my/pres.h:29: void title (void) {
                           3714 ;	---------------------------------
                           3715 ; Function title
                           3716 ; ---------------------------------
   13E8                    3717 _title::
                           3718 ;my/pres.h:31: cls (); // TODO:CHANGE
   13E8 CDr00r00      [17] 3719 	call	_cls
                           3720 ;my/pres.h:33: _x = 7; _y = 18; pr_str ("SELECT AND PUSH 1!");
   13EB 21r00r00      [10] 3721 	ld	hl,#__x + 0
   13EE 36 07         [10] 3722 	ld	(hl), #0x07
   13F0 21r01r00      [10] 3723 	ld	hl,#__y + 0
   13F3 36 12         [10] 3724 	ld	(hl), #0x12
   13F5 21r8Br14      [10] 3725 	ld	hl,#___str_0
   13F8 E5            [11] 3726 	push	hl
   13F9 CDr00r00      [17] 3727 	call	_pr_str
   13FC F1            [10] 3728 	pop	af
                           3729 ;my/pres.h:35: _x = 12; _y = 20; pr_str ("RESONATORS");
   13FD 21r00r00      [10] 3730 	ld	hl,#__x + 0
   1400 36 0C         [10] 3731 	ld	(hl), #0x0C
   1402 21r01r00      [10] 3732 	ld	hl,#__y + 0
   1405 36 14         [10] 3733 	ld	(hl), #0x14
   1407 21r9Er14      [10] 3734 	ld	hl,#___str_1
   140A E5            [11] 3735 	push	hl
   140B CDr00r00      [17] 3736 	call	_pr_str
   140E F1            [10] 3737 	pop	af
                           3738 ;my/pres.h:36: _y = 22; pr_str ("EASY MODE");
   140F 21r01r00      [10] 3739 	ld	hl,#__y + 0
   1412 36 16         [10] 3740 	ld	(hl), #0x16
   1414 21rA9r14      [10] 3741 	ld	hl,#___str_2
   1417 E5            [11] 3742 	push	hl
   1418 CDr00r00      [17] 3743 	call	_pr_str
   141B F1            [10] 3744 	pop	af
                           3745 ;my/pres.h:38: bat_in ();
   141C CDrADr13      [17] 3746 	call	_bat_in
                           3747 ;my/pres.h:40: while (1) {
   141F                    3748 00113$:
                           3749 ;my/pres.h:41: update_cycle ();
   141F CDr00r00      [17] 3750 	call	_update_cycle
                           3751 ;my/pres.h:42: SG_addMetaSprite1x1 (84, 154 + (mode_no_resonators << 4), ss_pl_00);
   1422 21r00r00      [10] 3752 	ld	hl,#_ss_pl_00
   1425 3ArB7r02      [13] 3753 	ld	a,(#_mode_no_resonators + 0)
   1428 07            [ 4] 3754 	rlca
   1429 07            [ 4] 3755 	rlca
   142A 07            [ 4] 3756 	rlca
   142B 07            [ 4] 3757 	rlca
   142C E6 F0         [ 7] 3758 	and	a,#0xF0
   142E C6 9A         [ 7] 3759 	add	a, #0x9A
   1430 E5            [11] 3760 	push	hl
   1431 57            [ 4] 3761 	ld	d,a
   1432 1E 54         [ 7] 3762 	ld	e,#0x54
   1434 D5            [11] 3763 	push	de
   1435 CDr00r00      [17] 3764 	call	_SG_addMetaSprite1x1
   1438 F1            [10] 3765 	pop	af
   1439 F1            [10] 3766 	pop	af
                           3767 ;my/pres.h:43: pad_read ();
   143A CDr00r00      [17] 3768 	call	_pad_read
                           3769 ;my/pres.h:44: rda = mode_no_resonators;
   143D 3ArB7r02      [13] 3770 	ld	a,(#_mode_no_resonators + 0)
   1440 32r18r00      [13] 3771 	ld	(#_rda + 0),a
                           3772 ;my/pres.h:45: if (pad_this_frame & PAD_DOWN) {
   1443 21r06r00      [10] 3773 	ld	hl,#_pad_this_frame+0
   1446 CB 4E         [12] 3774 	bit	1, (hl)
   1448 28 10         [12] 3775 	jr	Z,00104$
                           3776 ;my/pres.h:46: ++ mode_no_resonators; if (mode_no_resonators == 2) mode_no_resonators = 0;
   144A 21rB7r02      [10] 3777 	ld	hl, #_mode_no_resonators+0
   144D 34            [11] 3778 	inc	(hl)
   144E 3ArB7r02      [13] 3779 	ld	a,(#_mode_no_resonators + 0)
   1451 D6 02         [ 7] 3780 	sub	a, #0x02
   1453 20 05         [12] 3781 	jr	NZ,00104$
   1455 21rB7r02      [10] 3782 	ld	hl,#_mode_no_resonators + 0
   1458 36 00         [10] 3783 	ld	(hl), #0x00
   145A                    3784 00104$:
                           3785 ;my/pres.h:48: if (pad_this_frame & PAD_UP) {
   145A 21r06r00      [10] 3786 	ld	hl,#_pad_this_frame+0
   145D CB 46         [12] 3787 	bit	0, (hl)
   145F 28 11         [12] 3788 	jr	Z,00109$
                           3789 ;my/pres.h:49: if (mode_no_resonators) -- mode_no_resonators; else mode_no_resonators = 1;
   1461 3ArB7r02      [13] 3790 	ld	a,(#_mode_no_resonators + 0)
   1464 B7            [ 4] 3791 	or	a, a
   1465 28 06         [12] 3792 	jr	Z,00106$
   1467 21rB7r02      [10] 3793 	ld	hl, #_mode_no_resonators+0
   146A 35            [11] 3794 	dec	(hl)
   146B 18 05         [12] 3795 	jr	00109$
   146D                    3796 00106$:
   146D 21rB7r02      [10] 3797 	ld	hl,#_mode_no_resonators + 0
   1470 36 01         [10] 3798 	ld	(hl), #0x01
   1472                    3799 00109$:
                           3800 ;my/pres.h:52: if (pad_this_frame & PAD_1) break;
   1472 21r06r00      [10] 3801 	ld	hl,#_pad_this_frame+0
   1475 CB 66         [12] 3802 	bit	4, (hl)
   1477 28 A6         [12] 3803 	jr	Z,00113$
                           3804 ;my/pres.h:58: plife = mode_no_resonators ? 5 : 3;
   1479 3ArB7r02      [13] 3805 	ld	a,(#_mode_no_resonators + 0)
   147C B7            [ 4] 3806 	or	a, a
   147D 28 04         [12] 3807 	jr	Z,00117$
   147F 3E 05         [ 7] 3808 	ld	a,#0x05
   1481 18 02         [12] 3809 	jr	00118$
   1483                    3810 00117$:
   1483 3E 03         [ 7] 3811 	ld	a,#0x03
   1485                    3812 00118$:
   1485 32r6Fr00      [13] 3813 	ld	(#_plife + 0),a
                           3814 ;my/pres.h:60: bat_out ();
   1488 C3rBDr13      [10] 3815 	jp  _bat_out
   148B                    3816 ___str_0:
   148B 53 45 4C 45 43 54  3817 	.ascii "SELECT AND PUSH 1!"
        20 41 4E 44 20 50
        55 53 48 20 31 21
   149D 00                 3818 	.db 0x00
   149E                    3819 ___str_1:
   149E 52 45 53 4F 4E 41  3820 	.ascii "RESONATORS"
        54 4F 52 53
   14A8 00                 3821 	.db 0x00
   14A9                    3822 ___str_2:
   14A9 45 41 53 59 20 4D  3823 	.ascii "EASY MODE"
        4F 44 45
   14B2 00                 3824 	.db 0x00
                           3825 ;my/pres.h:63: void scr_game_over (void) {
                           3826 ;	---------------------------------
                           3827 ; Function scr_game_over
                           3828 ; ---------------------------------
   14B3                    3829 _scr_game_over::
                           3830 ;my/pres.h:64: _x = 11; _y = 15; pr_str ("GAME OVER!");
   14B3 21r00r00      [10] 3831 	ld	hl,#__x + 0
   14B6 36 0B         [10] 3832 	ld	(hl), #0x0B
   14B8 21r01r00      [10] 3833 	ld	hl,#__y + 0
   14BB 36 0F         [10] 3834 	ld	(hl), #0x0F
   14BD 21rC6r14      [10] 3835 	ld	hl,#___str_3
   14C0 E5            [11] 3836 	push	hl
   14C1 CDr00r00      [17] 3837 	call	_pr_str
   14C4 F1            [10] 3838 	pop	af
   14C5 C9            [10] 3839 	ret
   14C6                    3840 ___str_3:
   14C6 47 41 4D 45 20 4F  3841 	.ascii "GAME OVER!"
        56 45 52 21
   14D0 00                 3842 	.db 0x00
                           3843 ;my/pres.h:67: void scr_the_end (void) {
                           3844 ;	---------------------------------
                           3845 ; Function scr_the_end
                           3846 ; ---------------------------------
   14D1                    3847 _scr_the_end::
                           3848 ;my/pres.h:68: _x = 6; _y = 6; pr_str (" CHERIL VANQUISHED%    ALL ZOMBIES%AND RETURNED SAFELY%   TO THE BOSQUE");
   14D1 21r00r00      [10] 3849 	ld	hl,#__x + 0
   14D4 36 06         [10] 3850 	ld	(hl), #0x06
   14D6 21r01r00      [10] 3851 	ld	hl,#__y + 0
   14D9 36 06         [10] 3852 	ld	(hl), #0x06
   14DB 21rF6r14      [10] 3853 	ld	hl,#___str_4
   14DE E5            [11] 3854 	push	hl
   14DF CDr00r00      [17] 3855 	call	_pr_str
   14E2 F1            [10] 3856 	pop	af
                           3857 ;my/pres.h:70: _x = 12; _y = 25; pr_str ("THE  END");
   14E3 21r00r00      [10] 3858 	ld	hl,#__x + 0
   14E6 36 0C         [10] 3859 	ld	(hl), #0x0C
   14E8 21r01r00      [10] 3860 	ld	hl,#__y + 0
   14EB 36 19         [10] 3861 	ld	(hl), #0x19
   14ED 21r3Er15      [10] 3862 	ld	hl,#___str_5
   14F0 E5            [11] 3863 	push	hl
   14F1 CDr00r00      [17] 3864 	call	_pr_str
   14F4 F1            [10] 3865 	pop	af
   14F5 C9            [10] 3866 	ret
   14F6                    3867 ___str_4:
   14F6 20 43 48 45 52 49  3868 	.ascii " CHERIL VANQUISHED%    ALL ZOMBIES%AND RETURNED SAFELY%   TO"
        4C 20 56 41 4E 51
        55 49 53 48 45 44
        25 20 20 20 20 41
        4C 4C 20 5A 4F 4D
        42 49 45 53 25 41
        4E 44 20 52 45 54
        55 52 4E 45 44 20
        53 41 46 45 4C 59
        25 20 20 20 54 4F
   1532 20 54 48 45 20 42  3869 	.ascii " THE BOSQUE"
        4F 53 51 55 45
   153D 00                 3870 	.db 0x00
   153E                    3871 ___str_5:
   153E 54 48 45 20 20 45  3872 	.ascii "THE  END"
        4E 44
   1546 00                 3873 	.db 0x00
                           3874 ;my/pres.h:78: void scr_level (void) {
                           3875 ;	---------------------------------
                           3876 ; Function scr_level
                           3877 ; ---------------------------------
   1547                    3878 _scr_level::
                           3879 ;my/pres.h:79: _x = 12; _y = 14; pr_str ("LEVEL 0"); SG_setTile (17+level);
   1547 21r00r00      [10] 3880 	ld	hl,#__x + 0
   154A 36 0C         [10] 3881 	ld	(hl), #0x0C
   154C 21r01r00      [10] 3882 	ld	hl,#__y + 0
   154F 36 0E         [10] 3883 	ld	(hl), #0x0E
   1551 21rAEr15      [10] 3884 	ld	hl,#___str_6
   1554 E5            [11] 3885 	push	hl
   1555 CDr00r00      [17] 3886 	call	_pr_str
   1558 F1            [10] 3887 	pop	af
   1559 3ArB8r01      [13] 3888 	ld	a,(#_level + 0)
   155C C6 11         [ 7] 3889 	add	a, #0x11
   155E F5            [11] 3890 	push	af
   155F 33            [ 6] 3891 	inc	sp
   1560 CDr00r00      [17] 3892 	call	_SG_setTile
   1563 33            [ 6] 3893 	inc	sp
                           3894 ;my/pres.h:80: _x = 10; _y = 16; pr_str (levelnames [level]);
   1564 21r00r00      [10] 3895 	ld	hl,#__x + 0
   1567 36 0A         [10] 3896 	ld	(hl), #0x0A
   1569 21r01r00      [10] 3897 	ld	hl,#__y + 0
   156C 36 10         [10] 3898 	ld	(hl), #0x10
   156E FD 21rB8r01   [14] 3899 	ld	iy,#_level
   1572 FD 6E 00      [19] 3900 	ld	l,0 (iy)
   1575 26 00         [ 7] 3901 	ld	h,#0x00
   1577 29            [11] 3902 	add	hl, hl
   1578 11rA8r15      [10] 3903 	ld	de,#_levelnames
   157B 19            [11] 3904 	add	hl,de
   157C 5E            [ 7] 3905 	ld	e,(hl)
   157D 23            [ 6] 3906 	inc	hl
   157E 56            [ 7] 3907 	ld	d,(hl)
   157F D5            [11] 3908 	push	de
   1580 CDr00r00      [17] 3909 	call	_pr_str
   1583 F1            [10] 3910 	pop	af
   1584 C9            [10] 3911 	ret
   1585                    3912 _level0name:
   1585 20 20 54 48 45 20  3913 	.ascii "  THE CITY"
        43 49 54 59
   158F 00                 3914 	.db 0x00
   1590                    3915 _level1name:
   1590 54 48 45 20 46 41  3916 	.ascii "THE FACTORY"
        43 54 4F 52 59
   159B 00                 3917 	.db 0x00
   159C                    3918 _level2name:
   159C 20 54 48 45 20 46  3919 	.ascii " THE FOREST"
        4F 52 45 53 54
   15A7 00                 3920 	.db 0x00
   15A8                    3921 _levelnames:
   15A8r85r15              3922 	.dw _level0name
   15AAr90r15              3923 	.dw _level1name
   15ACr9Cr15              3924 	.dw _level2name
   15AE                    3925 ___str_6:
   15AE 4C 45 56 45 4C 20  3926 	.ascii "LEVEL 0"
        30
   15B5 00                 3927 	.db 0x00
                           3928 ;my/pres.h:83: void credits (void) {
                           3929 ;	---------------------------------
                           3930 ; Function credits
                           3931 ; ---------------------------------
   15B6                    3932 _credits::
                           3933 ;my/pres.h:84: cls ();
   15B6 CDr00r00      [17] 3934 	call	_cls
                           3935 ;my/pres.h:85: rds16 = 0; rdy = 240;
   15B9 21 00 00      [10] 3936 	ld	hl,#0x0000
   15BC 22r0Ar00      [16] 3937 	ld	(_rds16),hl
   15BF 21r15r00      [10] 3938 	ld	hl,#_rdy + 0
   15C2 36 F0         [10] 3939 	ld	(hl), #0xF0
                           3940 ;my/pres.h:87: _x = 0; _y = 19; 
   15C4 21r00r00      [10] 3941 	ld	hl,#__x + 0
   15C7 36 00         [10] 3942 	ld	(hl), #0x00
   15C9 21r01r00      [10] 3943 	ld	hl,#__y + 0
   15CC 36 13         [10] 3944 	ld	(hl), #0x13
                           3945 ;my/pres.h:88: pr_str ("     CHERIL PERIL CLASSIC%%         ORIGINAL GAME%   @ 2011 BY THE MOJON TWINS%       REPROGRAMMED GAME%@ 2014, 2018 BY THE MOJON TWINS");
   15CE 21r0Br16      [10] 3946 	ld	hl,#___str_10+0
   15D1 E5            [11] 3947 	push	hl
   15D2 CDr00r00      [17] 3948 	call	_pr_str
                           3949 ;my/pres.h:90: SG_displayOn ();
   15D5 21 40 01      [10] 3950 	ld	hl, #0x0140
   15D8 E3            [19] 3951 	ex	(sp),hl
   15D9 CDr00r00      [17] 3952 	call	_SG_VDPturnOnFeature
   15DC F1            [10] 3953 	pop	af
                           3954 ;my/pres.h:92: while (!(SG_getKeysStatus () & PAD_START) && rds16 < 300) {
   15DD                    3955 00102$:
   15DD CDr00r00      [17] 3956 	call	_SG_getKeysStatus
   15E0 CB 65         [ 8] 3957 	bit	4, l
   15E2 20 1E         [12] 3958 	jr	NZ,00104$
   15E4 3Ar0Ar00      [13] 3959 	ld	a,(#_rds16 + 0)
   15E7 D6 2C         [ 7] 3960 	sub	a, #0x2C
   15E9 3Ar0Br00      [13] 3961 	ld	a,(#_rds16 + 1)
   15EC 17            [ 4] 3962 	rla
   15ED 3F            [ 4] 3963 	ccf
   15EE 1F            [ 4] 3964 	rra
   15EF DE 81         [ 7] 3965 	sbc	a, #0x81
   15F1 30 0F         [12] 3966 	jr	NC,00104$
                           3967 ;my/pres.h:95: update_cycle ();
   15F3 CDr00r00      [17] 3968 	call	_update_cycle
                           3969 ;my/pres.h:96: rds16 ++;
   15F6 21r0Ar00      [10] 3970 	ld	hl, #_rds16+0
   15F9 34            [11] 3971 	inc	(hl)
   15FA 20 E1         [12] 3972 	jr	NZ,00102$
   15FC 21r0Br00      [10] 3973 	ld	hl, #_rds16+1
   15FF 34            [11] 3974 	inc	(hl)
   1600 18 DB         [12] 3975 	jr	00102$
   1602                    3976 00104$:
                           3977 ;my/pres.h:99: SG_displayOff ();
   1602 21 40 01      [10] 3978 	ld	hl,#0x0140
   1605 E5            [11] 3979 	push	hl
   1606 CDr00r00      [17] 3980 	call	_SG_VDPturnOffFeature
   1609 F1            [10] 3981 	pop	af
   160A C9            [10] 3982 	ret
   160B                    3983 ___str_10:
   160B 20 20 20 20 20 43  3984 	.ascii "     CHERIL PERIL CLASSIC%%         ORIGINAL GAME%   @ 2011 "
        48 45 52 49 4C 20
        50 45 52 49 4C 20
        43 4C 41 53 53 49
        43 25 25 20 20 20
        20 20 20 20 20 20
        4F 52 49 47 49 4E
        41 4C 20 47 41 4D
        45 25 20 20 20 40
        20 32 30 31 31 20
   1647 42 59 20 54 48 45  3985 	.ascii "BY THE MOJON TWINS%       REPROGRAMMED GAME%@ 2014, 2018 BY "
        20 4D 4F 4A 4F 4E
        20 54 57 49 4E 53
        25 20 20 20 20 20
        20 20 52 45 50 52
        4F 47 52 41 4D 4D
        45 44 20 47 41 4D
        45 25 40 20 32 30
        31 34 2C 20 32 30
        31 38 20 42 59 20
   1683 54 48 45 20 4D 4F  3986 	.ascii "THE MOJON TWINS"
        4A 4F 4E 20 54 57
        49 4E 53
   1692 00                 3987 	.db 0x00
                           3988 ;mainloop/flickscreen.h:7: void flickscreen_do_horizontal (void) {
                           3989 ;	---------------------------------
                           3990 ; Function flickscreen_do_horizontal
                           3991 ; ---------------------------------
   1693                    3992 _flickscreen_do_horizontal::
                           3993 ;mainloop/flickscreen.h:12: (cfx + pvx) < 0
   1693 FD 21rB4r02   [14] 3994 	ld	iy,#_cfx
   1697 FD 4E 00      [19] 3995 	ld	c,0 (iy)
   169A 3ArB4r02      [13] 3996 	ld	a,(#_cfx + 0)
   169D 17            [ 4] 3997 	rla
   169E 9F            [ 4] 3998 	sbc	a, a
   169F 47            [ 4] 3999 	ld	b,a
   16A0 3Ar4Er00      [13] 4000 	ld	a,(#_pvx + 0)
   16A3 81            [ 4] 4001 	add	a, c
   16A4 57            [ 4] 4002 	ld	d,a
   16A5 3Ar4Fr00      [13] 4003 	ld	a,(#_pvx + 1)
   16A8 88            [ 4] 4004 	adc	a, b
   16A9 5F            [ 4] 4005 	ld	e,a
                           4006 ;mainloop/flickscreen.h:8: if (prx == 4 && 
   16AA 3Ar52r00      [13] 4007 	ld	a,(#_prx + 0)
   16AD D6 04         [ 7] 4008 	sub	a, #0x04
   16AF 20 0F         [12] 4009 	jr	NZ,00105$
                           4010 ;mainloop/flickscreen.h:12: (cfx + pvx) < 0
   16B1 CB 7B         [ 8] 4011 	bit	7, e
   16B3 28 0B         [12] 4012 	jr	Z,00105$
                           4013 ;mainloop/flickscreen.h:15: -- n_pant;
   16B5 21rBAr01      [10] 4014 	ld	hl, #_n_pant+0
   16B8 35            [11] 4015 	dec	(hl)
                           4016 ;mainloop/flickscreen.h:16: px = 244 << FIXBITS;
   16B9 21 00 3D      [10] 4017 	ld	hl,#0x3D00
   16BC 22r4Ar00      [16] 4018 	ld	(_px),hl
   16BF C9            [10] 4019 	ret
   16C0                    4020 00105$:
                           4021 ;mainloop/flickscreen.h:17: } else if (prx == 244 && 
   16C0 FD 21r52r00   [14] 4022 	ld	iy,#_prx
   16C4 FD 7E 00      [19] 4023 	ld	a,0 (iy)
   16C7 D6 F4         [ 7] 4024 	sub	a, #0xF4
   16C9 C0            [11] 4025 	ret	NZ
                           4026 ;mainloop/flickscreen.h:21: (cfx + pvx) > 0
   16CA AF            [ 4] 4027 	xor	a, a
   16CB BA            [ 4] 4028 	cp	a, d
   16CC 9B            [ 4] 4029 	sbc	a, e
   16CD E2rD2r16      [10] 4030 	jp	PO, 00130$
   16D0 EE 80         [ 7] 4031 	xor	a, #0x80
   16D2                    4032 00130$:
   16D2 F0            [11] 4033 	ret	P
                           4034 ;mainloop/flickscreen.h:24: ++ n_pant;
   16D3 21rBAr01      [10] 4035 	ld	hl, #_n_pant+0
   16D6 34            [11] 4036 	inc	(hl)
                           4037 ;mainloop/flickscreen.h:25: px = 4 << FIXBITS;
   16D7 21 00 01      [10] 4038 	ld	hl,#0x0100
   16DA 22r4Ar00      [16] 4039 	ld	(_px),hl
   16DD C9            [10] 4040 	ret
                           4041 ;mainloop/flickscreen.h:29: void flickscreen_do_vertical (void) {
                           4042 ;	---------------------------------
                           4043 ; Function flickscreen_do_vertical
                           4044 ; ---------------------------------
   16DE                    4045 _flickscreen_do_vertical::
                           4046 ;mainloop/flickscreen.h:42: if (pry == 0 && pvy < 0 && n_pant >= c_map_w) {
   16DE 3Ar53r00      [13] 4047 	ld	a,(#_pry + 0)
   16E1 B7            [ 4] 4048 	or	a, a
   16E2 20 44         [12] 4049 	jr	NZ,00108$
   16E4 3Ar51r00      [13] 4050 	ld	a,(#_pvy + 1)
   16E7 CB 7F         [ 8] 4051 	bit	7,a
   16E9 28 3D         [12] 4052 	jr	Z,00108$
   16EB 21r7Fr00      [10] 4053 	ld	hl,#_c_map_w
   16EE 3ArBAr01      [13] 4054 	ld	a,(#_n_pant + 0)
   16F1 96            [ 7] 4055 	sub	a, (hl)
   16F2 38 34         [12] 4056 	jr	C,00108$
                           4057 ;mainloop/flickscreen.h:43: n_pant -= c_map_w;
   16F4 21r7Fr00      [10] 4058 	ld	hl,#_c_map_w
   16F7 D5            [11] 4059 	push	de
   16F8 FD 21rBAr01   [14] 4060 	ld	iy,#_n_pant
   16FC FD E5         [15] 4061 	push	iy
   16FE D1            [10] 4062 	pop	de
   16FF 1A            [ 7] 4063 	ld	a,(de)
   1700 96            [ 7] 4064 	sub	a, (hl)
   1701 12            [ 7] 4065 	ld	(de),a
   1702 D1            [10] 4066 	pop	de
                           4067 ;mainloop/flickscreen.h:44: py = 192 << FIXBITS;
   1703 21 00 30      [10] 4068 	ld	hl,#0x3000
   1706 22r4Cr00      [16] 4069 	ld	(_py),hl
                           4070 ;mainloop/flickscreen.h:45: if (pvy > -PLAYER_VY_JUMP_MAX) pvy = -PLAYER_VY_JUMP_MAX;
   1709 3E 60         [ 7] 4071 	ld	a,#0x60
   170B FD 21r50r00   [14] 4072 	ld	iy,#_pvy
   170F FD BE 00      [19] 4073 	cp	a, 0 (iy)
   1712 3E FF         [ 7] 4074 	ld	a,#0xFF
   1714 FD 21r50r00   [14] 4075 	ld	iy,#_pvy
   1718 FD 9E 01      [19] 4076 	sbc	a, 1 (iy)
   171B E2r20r17      [10] 4077 	jp	PO, 00142$
   171E EE 80         [ 7] 4078 	xor	a, #0x80
   1720                    4079 00142$:
   1720 F0            [11] 4080 	ret	P
   1721 21 60 FF      [10] 4081 	ld	hl,#0xFF60
   1724 22r50r00      [16] 4082 	ld	(_pvy),hl
   1727 C9            [10] 4083 	ret
   1728                    4084 00108$:
                           4085 ;mainloop/flickscreen.h:46: } else if (pry >= 192 && pvy > 0 && n_pant < c_map_size - c_map_w) {
   1728 3Ar53r00      [13] 4086 	ld	a,(#_pry + 0)
   172B D6 C0         [ 7] 4087 	sub	a, #0xC0
   172D D8            [11] 4088 	ret	C
   172E AF            [ 4] 4089 	xor	a, a
   172F FD 21r50r00   [14] 4090 	ld	iy,#_pvy
   1733 FD BE 00      [19] 4091 	cp	a, 0 (iy)
   1736 FD 21r50r00   [14] 4092 	ld	iy,#_pvy
   173A FD 9E 01      [19] 4093 	sbc	a, 1 (iy)
   173D E2r42r17      [10] 4094 	jp	PO, 00143$
   1740 EE 80         [ 7] 4095 	xor	a, #0x80
   1742                    4096 00143$:
   1742 F0            [11] 4097 	ret	P
   1743 21r81r00      [10] 4098 	ld	hl,#_c_map_size + 0
   1746 5E            [ 7] 4099 	ld	e, (hl)
   1747 16 00         [ 7] 4100 	ld	d,#0x00
   1749 FD 21r7Fr00   [14] 4101 	ld	iy,#_c_map_w
   174D FD 6E 00      [19] 4102 	ld	l,0 (iy)
   1750 26 00         [ 7] 4103 	ld	h,#0x00
   1752 7B            [ 4] 4104 	ld	a,e
   1753 95            [ 4] 4105 	sub	a, l
   1754 5F            [ 4] 4106 	ld	e,a
   1755 7A            [ 4] 4107 	ld	a,d
   1756 9C            [ 4] 4108 	sbc	a, h
   1757 57            [ 4] 4109 	ld	d,a
   1758 FD 21rBAr01   [14] 4110 	ld	iy,#_n_pant
   175C FD 66 00      [19] 4111 	ld	h,0 (iy)
   175F 2E 00         [ 7] 4112 	ld	l,#0x00
   1761 7C            [ 4] 4113 	ld	a,h
   1762 93            [ 4] 4114 	sub	a, e
   1763 7D            [ 4] 4115 	ld	a,l
   1764 9A            [ 4] 4116 	sbc	a, d
   1765 E2r6Ar17      [10] 4117 	jp	PO, 00144$
   1768 EE 80         [ 7] 4118 	xor	a, #0x80
   176A                    4119 00144$:
   176A F0            [11] 4120 	ret	P
                           4121 ;mainloop/flickscreen.h:47: n_pant += c_map_w;
   176B 21r7Fr00      [10] 4122 	ld	hl,#_c_map_w
   176E D5            [11] 4123 	push	de
   176F FD 21rBAr01   [14] 4124 	ld	iy,#_n_pant
   1773 FD E5         [15] 4125 	push	iy
   1775 D1            [10] 4126 	pop	de
   1776 1A            [ 7] 4127 	ld	a,(de)
   1777 86            [ 7] 4128 	add	a, (hl)
   1778 12            [ 7] 4129 	ld	(de),a
   1779 D1            [10] 4130 	pop	de
                           4131 ;mainloop/flickscreen.h:48: py = 0;
   177A 21 00 00      [10] 4132 	ld	hl,#0x0000
   177D 22r4Cr00      [16] 4133 	ld	(_py),hl
   1780 C9            [10] 4134 	ret
                           4135 ;mainloop.h:7: void game_init (void) {
                           4136 ;	---------------------------------
                           4137 ; Function game_init
                           4138 ; ---------------------------------
   1781                    4139 _game_init::
                           4140 ;mainloop.h:9: win_level = game_over = 0;
   1781 21rC0r01      [10] 4141 	ld	hl,#_game_over + 0
   1784 36 00         [10] 4142 	ld	(hl), #0x00
   1786 21rBFr01      [10] 4143 	ld	hl,#_win_level + 0
   1789 36 00         [10] 4144 	ld	(hl), #0x00
   178B FD 21rB8r01   [14] 4145 	ld	iy,#_level
   178F FD 6E 00      [19] 4146 	ld	l,0 (iy)
   1792 26 00         [ 7] 4147 	ld	h,#0x00
   1794 29            [11] 4148 	add	hl, hl
   1795 4D            [ 4] 4149 	ld	c, l
   1796 44            [ 4] 4150 	ld	b, h
   1797 21rFCr01      [10] 4151 	ld	hl,#_l_ts_tmaps
   179A 09            [11] 4152 	add	hl,bc
   179B 7E            [ 7] 4153 	ld	a,(hl)
   179C FD 21r82r00   [14] 4154 	ld	iy,#_c_ts_tmaps
   17A0 FD 77 00      [19] 4155 	ld	0 (iy),a
   17A3 23            [ 6] 4156 	inc	hl
   17A4 7E            [ 7] 4157 	ld	a,(hl)
   17A5 32r83r00      [13] 4158 	ld	(#_c_ts_tmaps + 1),a
                           4159 ;mainloop/asset_setup.h:10: c_behs = 		l_behs [level];
   17A8 21r02r02      [10] 4160 	ld	hl,#_l_behs
   17AB 09            [11] 4161 	add	hl,bc
   17AC 7E            [ 7] 4162 	ld	a,(hl)
   17AD FD 21r84r00   [14] 4163 	ld	iy,#_c_behs
   17B1 FD 77 00      [19] 4164 	ld	0 (iy),a
   17B4 23            [ 6] 4165 	inc	hl
   17B5 7E            [ 7] 4166 	ld	a,(hl)
   17B6 32r85r00      [13] 4167 	ld	(#_c_behs + 1),a
                           4168 ;mainloop/asset_setup.h:11: spr_enems = 	l_spr_enems [level];
   17B9 21r0Er02      [10] 4169 	ld	hl,#_l_spr_enems
   17BC 09            [11] 4170 	add	hl,bc
   17BD 7E            [ 7] 4171 	ld	a,(hl)
   17BE FD 21r86r00   [14] 4172 	ld	iy,#_spr_enems
   17C2 FD 77 00      [19] 4173 	ld	0 (iy),a
   17C5 23            [ 6] 4174 	inc	hl
   17C6 7E            [ 7] 4175 	ld	a,(hl)
   17C7 32r87r00      [13] 4176 	ld	(#_spr_enems + 1),a
                           4177 ;mainloop/asset_setup.h:13: c_map = 		l_map [level];
   17CA 21r14r02      [10] 4178 	ld	hl,#_l_map
   17CD 09            [11] 4179 	add	hl,bc
   17CE 7E            [ 7] 4180 	ld	a,(hl)
   17CF FD 21r88r00   [14] 4181 	ld	iy,#_c_map
   17D3 FD 77 00      [19] 4182 	ld	0 (iy),a
   17D6 23            [ 6] 4183 	inc	hl
   17D7 7E            [ 7] 4184 	ld	a,(hl)
   17D8 32r89r00      [13] 4185 	ld	(#_c_map + 1),a
                           4186 ;mainloop/asset_setup.h:20: c_decos = 	l_decos [level];
   17DB 3Er1A         [ 7] 4187 	ld	a,#<(_l_decos)
   17DD 21rB8r01      [10] 4188 	ld	hl,#_level
   17E0 86            [ 7] 4189 	add	a, (hl)
   17E1 5F            [ 4] 4190 	ld	e,a
   17E2 3Es02         [ 7] 4191 	ld	a,#>(_l_decos)
   17E4 CE 00         [ 7] 4192 	adc	a, #0x00
   17E6 57            [ 4] 4193 	ld	d,a
   17E7 1A            [ 7] 4194 	ld	a,(de)
   17E8 32r8Ar00      [13] 4195 	ld	(#_c_decos + 0),a
                           4196 ;mainloop/asset_setup.h:23: c_locks = 	l_locks [level];
   17EB 21r1Dr02      [10] 4197 	ld	hl,#_l_locks
   17EE 09            [11] 4198 	add	hl,bc
   17EF 7E            [ 7] 4199 	ld	a,(hl)
   17F0 FD 21r8Br00   [14] 4200 	ld	iy,#_c_locks
   17F4 FD 77 00      [19] 4201 	ld	0 (iy),a
   17F7 23            [ 6] 4202 	inc	hl
   17F8 7E            [ 7] 4203 	ld	a,(hl)
   17F9 32r8Cr00      [13] 4204 	ld	(#_c_locks + 1),a
                           4205 ;mainloop/asset_setup.h:25: l_n_bolts [level];
   17FC 3Er23         [ 7] 4206 	ld	a,#<(_l_n_bolts)
   17FE 21rB8r01      [10] 4207 	ld	hl,#_level
   1801 86            [ 7] 4208 	add	a, (hl)
   1802 5F            [ 4] 4209 	ld	e,a
   1803 3Es02         [ 7] 4210 	ld	a,#>(_l_n_bolts)
   1805 CE 00         [ 7] 4211 	adc	a, #0x00
   1807 57            [ 4] 4212 	ld	d,a
   1808 1A            [ 7] 4213 	ld	a,(de)
   1809 32r91r00      [13] 4214 	ld	(#_c_max_bolts + 0),a
                           4215 ;mainloop/asset_setup.h:28: c_enems = 		l_enems [level];
   180C 21r26r02      [10] 4216 	ld	hl,#_l_enems
   180F 09            [11] 4217 	add	hl,bc
   1810 7E            [ 7] 4218 	ld	a,(hl)
   1811 FD 21r8Dr00   [14] 4219 	ld	iy,#_c_enems
   1815 FD 77 00      [19] 4220 	ld	0 (iy),a
   1818 23            [ 6] 4221 	inc	hl
   1819 7E            [ 7] 4222 	ld	a,(hl)
   181A 32r8Er00      [13] 4223 	ld	(#_c_enems + 1),a
                           4224 ;mainloop/asset_setup.h:29: c_hotspots = 	l_hotspots [level];	
   181D 21r2Cr02      [10] 4225 	ld	hl,#_l_hotspots
   1820 09            [11] 4226 	add	hl,bc
   1821 7E            [ 7] 4227 	ld	a,(hl)
   1822 FD 21r8Fr00   [14] 4228 	ld	iy,#_c_hotspots
   1826 FD 77 00      [19] 4229 	ld	0 (iy),a
   1829 23            [ 6] 4230 	inc	hl
   182A 7E            [ 7] 4231 	ld	a,(hl)
   182B 32r90r00      [13] 4232 	ld	(#_c_hotspots + 1),a
                           4233 ;mainloop/asset_setup.h:31: c_max_enems = 	l_player_max_enems [level];
   182E 3ErED         [ 7] 4234 	ld	a,#<(_l_player_max_enems)
   1830 21rB8r01      [10] 4235 	ld	hl,#_level
   1833 86            [ 7] 4236 	add	a, (hl)
   1834 5F            [ 4] 4237 	ld	e,a
   1835 3Es01         [ 7] 4238 	ld	a,#>(_l_player_max_enems)
   1837 CE 00         [ 7] 4239 	adc	a, #0x00
   1839 57            [ 4] 4240 	ld	d,a
   183A 1A            [ 7] 4241 	ld	a,(de)
   183B 32rB9r01      [13] 4242 	ld	(#_c_max_enems + 0),a
                           4243 ;mainloop/asset_setup.h:33: c_map_w = 		l_map_w [level];
   183E 3ErE4         [ 7] 4244 	ld	a,#<(_l_map_w)
   1840 21rB8r01      [10] 4245 	ld	hl,#_level
   1843 86            [ 7] 4246 	add	a, (hl)
   1844 5F            [ 4] 4247 	ld	e,a
   1845 3Es01         [ 7] 4248 	ld	a,#>(_l_map_w)
   1847 CE 00         [ 7] 4249 	adc	a, #0x00
   1849 57            [ 4] 4250 	ld	d,a
   184A 1A            [ 7] 4251 	ld	a,(de)
   184B 32r7Fr00      [13] 4252 	ld	(#_c_map_w + 0),a
                           4253 ;mainloop/asset_setup.h:34: c_map_h = 		l_map_h [level];
   184E 3ErE7         [ 7] 4254 	ld	a,#<(_l_map_h)
   1850 21rB8r01      [10] 4255 	ld	hl,#_level
   1853 86            [ 7] 4256 	add	a, (hl)
   1854 5F            [ 4] 4257 	ld	e,a
   1855 3Es01         [ 7] 4258 	ld	a,#>(_l_map_h)
   1857 CE 00         [ 7] 4259 	adc	a, #0x00
   1859 57            [ 4] 4260 	ld	d,a
   185A 1A            [ 7] 4261 	ld	a,(de)
                           4262 ;mainloop/asset_setup.h:84: rda = c_map_h; c_map_size = 0; while (rda --) c_map_size += c_map_w;
   185B 32r80r00      [13] 4263 	ld	(#_c_map_h + 0),a
   185E 32r18r00      [13] 4264 	ld	(#_rda + 0),a
   1861 21r81r00      [10] 4265 	ld	hl,#_c_map_size + 0
   1864 36 00         [10] 4266 	ld	(hl), #0x00
   1866                    4267 00101$:
   1866 21r18r00      [10] 4268 	ld	hl,#_rda + 0
   1869 56            [ 7] 4269 	ld	d, (hl)
   186A 21r18r00      [10] 4270 	ld	hl, #_rda+0
   186D 35            [11] 4271 	dec	(hl)
   186E 7A            [ 4] 4272 	ld	a,d
   186F B7            [ 4] 4273 	or	a, a
   1870 28 11         [12] 4274 	jr	Z,00103$
   1872 21r7Fr00      [10] 4275 	ld	hl,#_c_map_w
   1875 D5            [11] 4276 	push	de
   1876 FD 21r81r00   [14] 4277 	ld	iy,#_c_map_size
   187A FD E5         [15] 4278 	push	iy
   187C D1            [10] 4279 	pop	de
   187D 1A            [ 7] 4280 	ld	a,(de)
   187E 86            [ 7] 4281 	add	a, (hl)
   187F 12            [ 7] 4282 	ld	(de),a
   1880 D1            [10] 4283 	pop	de
   1881 18 E3         [12] 4284 	jr	00101$
   1883                    4285 00103$:
                           4286 ;my/level_pattern_unpacker.h:3: unpack_bg_patterns (l_ts_patterns [level], l_ts_colours [level], 64*8, 7);
   1883 21rF6r01      [10] 4287 	ld	hl,#_l_ts_colours
   1886 09            [11] 4288 	add	hl,bc
   1887 5E            [ 7] 4289 	ld	e,(hl)
   1888 23            [ 6] 4290 	inc	hl
   1889 56            [ 7] 4291 	ld	d,(hl)
   188A 21rF0r01      [10] 4292 	ld	hl,#_l_ts_patterns
   188D 09            [11] 4293 	add	hl,bc
   188E 4E            [ 7] 4294 	ld	c,(hl)
   188F 23            [ 6] 4295 	inc	hl
   1890 46            [ 7] 4296 	ld	b,(hl)
   1891 3E 07         [ 7] 4297 	ld	a,#0x07
   1893 F5            [11] 4298 	push	af
   1894 33            [ 6] 4299 	inc	sp
   1895 21 00 02      [10] 4300 	ld	hl,#0x0200
   1898 E5            [11] 4301 	push	hl
   1899 D5            [11] 4302 	push	de
   189A C5            [11] 4303 	push	bc
   189B CDr00r00      [17] 4304 	call	_unpack_bg_patterns
   189E 21 07 00      [10] 4305 	ld	hl,#7
   18A1 39            [11] 4306 	add	hl,sp
   18A2 F9            [ 6] 4307 	ld	sp,hl
                           4308 ;my/level_pattern_unpacker.h:4: aPLib_depack_VRAM (SGT_BASE + 160*8, l_spr_patterns [level]);
   18A3 FD 21rB8r01   [14] 4309 	ld	iy,#_level
   18A7 FD 6E 00      [19] 4310 	ld	l,0 (iy)
   18AA 26 00         [ 7] 4311 	ld	h,#0x00
   18AC 29            [11] 4312 	add	hl, hl
   18AD 11r08r02      [10] 4313 	ld	de,#_l_spr_patterns
   18B0 19            [11] 4314 	add	hl,de
   18B1 5E            [ 7] 4315 	ld	e,(hl)
   18B2 23            [ 6] 4316 	inc	hl
   18B3 56            [ 7] 4317 	ld	d,(hl)
   18B4 D5            [11] 4318 	push	de
   18B5 21 00 3D      [10] 4319 	ld	hl,#0x3D00
   18B8 E5            [11] 4320 	push	hl
   18B9 CDr00r00      [17] 4321 	call	_aPLib_depack_VRAM
   18BC F1            [10] 4322 	pop	af
   18BD F1            [10] 4323 	pop	af
                           4324 ;mainloop.h:17: cls ();
   18BE CDr00r00      [17] 4325 	call	_cls
                           4326 ;mainloop.h:19: draw_game_frame ();
   18C1 CDr2Br13      [17] 4327 	call	_draw_game_frame
                           4328 ;mainloop.h:22: hotspots_load ();
   18C4 CDr00r00      [17] 4329 	call	_hotspots_load
                           4330 ;mainloop.h:25: memfill (lkact, 1, c_max_bolts);
   18C7 21r91r00      [10] 4331 	ld	hl,#_c_max_bolts + 0
   18CA 4E            [ 7] 4332 	ld	c, (hl)
   18CB 06 00         [ 7] 4333 	ld	b,#0x00
   18CD 11rE4r01      [10] 4334 	ld	de,#_lkact
   18D0 C5            [11] 4335 	push	bc
   18D1 3E 01         [ 7] 4336 	ld	a,#0x01
   18D3 F5            [11] 4337 	push	af
   18D4 33            [ 6] 4338 	inc	sp
   18D5 D5            [11] 4339 	push	de
   18D6 CDr00r00      [17] 4340 	call	_memfill
   18D9 F1            [10] 4341 	pop	af
   18DA F1            [10] 4342 	pop	af
   18DB 33            [ 6] 4343 	inc	sp
                           4344 ;mainloop.h:28: if (!warp_to_level)	{
   18DC 3ArC1r01      [13] 4345 	ld	a,(#_warp_to_level + 0)
   18DF B7            [ 4] 4346 	or	a, a
   18E0 20 43         [12] 4347 	jr	NZ,00105$
                           4348 ;mainloop.h:29: n_pant = SCR_INI;
   18E2 11rDBr01      [10] 4349 	ld	de,#_l_scr_ini+0
   18E5 2ArB8r01      [16] 4350 	ld	hl,(_level)
   18E8 26 00         [ 7] 4351 	ld	h,#0x00
   18EA 19            [11] 4352 	add	hl,de
   18EB 7E            [ 7] 4353 	ld	a,(hl)
   18EC 32rBAr01      [13] 4354 	ld	(#_n_pant + 0),a
                           4355 ;mainloop.h:30: px = (4 + (PLAYER_INI_X << 4)) << FIXBITS;
   18EF 11rDEr01      [10] 4356 	ld	de,#_l_ini_x+0
   18F2 2ArB8r01      [16] 4357 	ld	hl,(_level)
   18F5 26 00         [ 7] 4358 	ld	h,#0x00
   18F7 19            [11] 4359 	add	hl,de
   18F8 6E            [ 7] 4360 	ld	l,(hl)
   18F9 26 00         [ 7] 4361 	ld	h,#0x00
   18FB 29            [11] 4362 	add	hl, hl
   18FC 29            [11] 4363 	add	hl, hl
   18FD 29            [11] 4364 	add	hl, hl
   18FE 29            [11] 4365 	add	hl, hl
   18FF 01 04 00      [10] 4366 	ld	bc,#0x0004
   1902 09            [11] 4367 	add	hl,bc
   1903 29            [11] 4368 	add	hl, hl
   1904 29            [11] 4369 	add	hl, hl
   1905 29            [11] 4370 	add	hl, hl
   1906 29            [11] 4371 	add	hl, hl
   1907 29            [11] 4372 	add	hl, hl
   1908 29            [11] 4373 	add	hl, hl
   1909 22r4Ar00      [16] 4374 	ld	(_px),hl
                           4375 ;mainloop.h:31: py = (PLAYER_INI_Y << 4) << FIXBITS;
   190C 11rE1r01      [10] 4376 	ld	de,#_l_ini_y+0
   190F 2ArB8r01      [16] 4377 	ld	hl,(_level)
   1912 26 00         [ 7] 4378 	ld	h,#0x00
   1914 19            [11] 4379 	add	hl,de
   1915 6E            [ 7] 4380 	ld	l,(hl)
   1916 26 00         [ 7] 4381 	ld	h,#0x00
   1918 29            [11] 4382 	add	hl, hl
   1919 29            [11] 4383 	add	hl, hl
   191A 29            [11] 4384 	add	hl, hl
   191B 29            [11] 4385 	add	hl, hl
   191C 29            [11] 4386 	add	hl, hl
   191D 29            [11] 4387 	add	hl, hl
   191E 29            [11] 4388 	add	hl, hl
   191F 29            [11] 4389 	add	hl, hl
   1920 29            [11] 4390 	add	hl, hl
   1921 29            [11] 4391 	add	hl, hl
   1922 22r4Cr00      [16] 4392 	ld	(_py),hl
   1925                    4393 00105$:
                           4394 ;mainloop.h:33: player_to_pixels ();
   1925 CDr00r00      [17] 4395 	call	_player_to_pixels
                           4396 ;mainloop.h:34: player_init ();
   1928 CDr00r00      [17] 4397 	call	_player_init
                           4398 ;mainloop.h:41: enems_persistent_deaths_load ();
   192B CDrD2r02      [17] 4399 	call	_enems_persistent_deaths_load
                           4400 ;mainloop.h:53: pkeys = 0;
   192E 21r70r00      [10] 4401 	ld	hl,#_pkeys + 0
   1931 36 00         [10] 4402 	ld	(hl), #0x00
                           4403 ;mainloop.h:57: res_on = 0;
   1933 21rB1r02      [10] 4404 	ld	hl,#_res_on + 0
   1936 36 00         [10] 4405 	ld	(hl), #0x00
                           4406 ;mainloop.h:58: res_disable = 0;
   1938 21rB0r02      [10] 4407 	ld	hl,#_res_disable + 0
   193B 36 00         [10] 4408 	ld	(hl), #0x00
                           4409 ;mainloop.h:66: no_ct = 0;
   193D 21rCAr01      [10] 4410 	ld	hl,#_no_ct + 0
   1940 36 00         [10] 4411 	ld	(hl), #0x00
                           4412 ;mainloop.h:105: half_life = 0;
   1942 21rBCr01      [10] 4413 	ld	hl,#_half_life + 0
   1945 36 00         [10] 4414 	ld	(hl), #0x00
                           4415 ;mainloop.h:106: frame_counter = 0;
   1947 21rBDr01      [10] 4416 	ld	hl,#_frame_counter + 0
   194A 36 00         [10] 4417 	ld	(hl), #0x00
                           4418 ;mainloop.h:107: olife = oammo = oobjs = okeys = 0xff;
   194C 21rC5r01      [10] 4419 	ld	hl,#_okeys + 0
   194F 36 FF         [10] 4420 	ld	(hl), #0xFF
   1951 21rC6r01      [10] 4421 	ld	hl,#_oobjs + 0
   1954 36 FF         [10] 4422 	ld	(hl), #0xFF
   1956 21rC7r01      [10] 4423 	ld	hl,#_oammo + 0
   1959 36 FF         [10] 4424 	ld	(hl), #0xFF
   195B 21rC4r01      [10] 4425 	ld	hl,#_olife + 0
   195E 36 FF         [10] 4426 	ld	(hl), #0xFF
                           4427 ;mainloop.h:108: okilled = 0xff;
   1960 21rC8r01      [10] 4428 	ld	hl,#_okilled + 0
   1963 36 FF         [10] 4429 	ld	(hl), #0xFF
                           4430 ;my/extra_inits.h:7: springs_on = (level == 1);
   1965 3ArB8r01      [13] 4431 	ld	a,(#_level + 0)
   1968 3D            [ 4] 4432 	dec	a
   1969 20 04         [12] 4433 	jr	NZ,00120$
   196B 3E 01         [ 7] 4434 	ld	a,#0x01
   196D 18 01         [12] 4435 	jr	00121$
   196F                    4436 00120$:
   196F AF            [ 4] 4437 	xor	a,a
   1970                    4438 00121$:
   1970 32rB5r02      [13] 4439 	ld	(#_springs_on + 0),a
   1973 C9            [10] 4440 	ret
                           4441 ;mainloop.h:117: void prepare_scr (void) {
                           4442 ;	---------------------------------
                           4443 ; Function prepare_scr
                           4444 ; ---------------------------------
   1974                    4445 _prepare_scr::
                           4446 ;mainloop.h:118: SG_displayOff ();
   1974 21 40 01      [10] 4447 	ld	hl,#0x0140
   1977 E5            [11] 4448 	push	hl
   1978 CDr00r00      [17] 4449 	call	_SG_VDPturnOffFeature
   197B F1            [10] 4450 	pop	af
                           4451 ;mainloop.h:128: ft = 0;
   197C FD 21r7Er00   [14] 4452 	ld	iy,#_ft
   1980 FD 36 00 00   [19] 4453 	ld	0 (iy),#0x00
                           4454 ;mainloop.h:130: update_list [update_index] = 0xff;
   1984 3Ar94r00      [13] 4455 	ld	a,(#_update_index + 0)
   1987 C6r95         [ 7] 4456 	add	a, #<(_update_list)
   1989 6F            [ 4] 4457 	ld	l, a
   198A 3E 00         [ 7] 4458 	ld	a, #0x00
   198C CEs00         [ 7] 4459 	adc	a, #>(_update_list)
   198E 67            [ 4] 4460 	ld	h, a
   198F 36 FF         [10] 4461 	ld	(hl),#0xFF
                           4462 ;mainloop.h:131: SG_doUpdateList ();
   1991 CDr00r00      [17] 4463 	call	_SG_doUpdateList
                           4464 ;mainloop.h:132: clear_update_list ();
   1994 CDr00r00      [17] 4465 	call	_clear_update_list
                           4466 ;mainloop.h:144: enems_load ();
   1997 CDr5Fr04      [17] 4467 	call	_enems_load
                           4468 ;mainloop.h:145: hotspots_create ();	
   199A CDr72r02      [17] 4469 	call	_hotspots_create
                           4470 ;mainloop.h:162: chac_chacs_queue_write = chac_chacs_queue_read = 0;
   199D 21rAEr02      [10] 4471 	ld	hl,#_chac_chacs_queue_read + 0
   19A0 36 00         [10] 4472 	ld	(hl), #0x00
   19A2 21rAFr02      [10] 4473 	ld	hl,#_chac_chacs_queue_write + 0
   19A5 36 00         [10] 4474 	ld	(hl), #0x00
                           4475 ;mainloop.h:163: max_chac_chacs = 0;
   19A7 21r8Dr02      [10] 4476 	ld	hl,#_max_chac_chacs + 0
   19AA 36 00         [10] 4477 	ld	(hl), #0x00
                           4478 ;mainloop.h:172: draw_scr ();
   19AC CDr00r00      [17] 4479 	call	_draw_scr
                           4480 ;mainloop.h:210: SG_initSprites ();
   19AF CDr00r00      [17] 4481 	call	_SG_initSprites
                           4482 ;my/on_entering_screen.h:8: if (mode_no_resonators) {
   19B2 3ArB7r02      [13] 4483 	ld	a,(#_mode_no_resonators + 0)
   19B5 B7            [ 4] 4484 	or	a, a
   19B6 28 11         [12] 4485 	jr	Z,00104$
                           4486 ;my/on_entering_screen.h:9: res_disable = 1;
   19B8 21rB0r02      [10] 4487 	ld	hl,#_res_disable + 0
   19BB 36 01         [10] 4488 	ld	(hl), #0x01
                           4489 ;my/on_entering_screen.h:10: if (hrt == HOTSPOT_TYPE_RESONATOR) hrt = 0;
   19BD 3Ar7Cr00      [13] 4490 	ld	a,(#_hrt + 0)
   19C0 D6 04         [ 7] 4491 	sub	a, #0x04
   19C2 20 05         [12] 4492 	jr	NZ,00104$
   19C4 21r7Cr00      [10] 4493 	ld	hl,#_hrt + 0
   19C7 36 00         [10] 4494 	ld	(hl), #0x00
   19C9                    4495 00104$:
                           4496 ;mainloop.h:227: gpit = 3; while (gpit --) en_spr_id [gpit] = en_s [gpit];
   19C9 21r08r00      [10] 4497 	ld	hl,#_gpit + 0
   19CC 36 03         [10] 4498 	ld	(hl), #0x03
   19CE                    4499 00105$:
   19CE 21r08r00      [10] 4500 	ld	hl,#_gpit + 0
   19D1 5E            [ 7] 4501 	ld	e, (hl)
   19D2 21r08r00      [10] 4502 	ld	hl, #_gpit+0
   19D5 35            [11] 4503 	dec	(hl)
   19D6 7B            [ 4] 4504 	ld	a,e
   19D7 B7            [ 4] 4505 	or	a, a
   19D8 28 1E         [12] 4506 	jr	Z,00107$
   19DA 3Er42         [ 7] 4507 	ld	a,#<(_en_spr_id)
   19DC 21r08r00      [10] 4508 	ld	hl,#_gpit
   19DF 86            [ 7] 4509 	add	a, (hl)
   19E0 5F            [ 4] 4510 	ld	e,a
   19E1 3Es02         [ 7] 4511 	ld	a,#>(_en_spr_id)
   19E3 CE 00         [ 7] 4512 	adc	a, #0x00
   19E5 57            [ 4] 4513 	ld	d,a
   19E6 FD 21r11r02   [14] 4514 	ld	iy,#_en_s
   19EA ED 4Br08r00   [20] 4515 	ld	bc,(_gpit)
   19EE 06 00         [ 7] 4516 	ld	b,#0x00
   19F0 FD 09         [15] 4517 	add	iy, bc
   19F2 FD 7E 00      [19] 4518 	ld	a, 0 (iy)
   19F5 12            [ 7] 4519 	ld	(de),a
   19F6 18 D6         [12] 4520 	jr	00105$
   19F8                    4521 00107$:
                           4522 ;mainloop.h:229: prx = px >> FIXBITS; pry = py >> FIXBITS;
   19F8 2Ar4Ar00      [16] 4523 	ld	hl,(_px)
   19FB CB 2C         [ 8] 4524 	sra	h
   19FD CB 1D         [ 8] 4525 	rr	l
   19FF CB 2C         [ 8] 4526 	sra	h
   1A01 CB 1D         [ 8] 4527 	rr	l
   1A03 CB 2C         [ 8] 4528 	sra	h
   1A05 CB 1D         [ 8] 4529 	rr	l
   1A07 CB 2C         [ 8] 4530 	sra	h
   1A09 CB 1D         [ 8] 4531 	rr	l
   1A0B CB 2C         [ 8] 4532 	sra	h
   1A0D CB 1D         [ 8] 4533 	rr	l
   1A0F CB 2C         [ 8] 4534 	sra	h
   1A11 CB 1D         [ 8] 4535 	rr	l
   1A13 FD 21r52r00   [14] 4536 	ld	iy,#_prx
   1A17 FD 75 00      [19] 4537 	ld	0 (iy),l
   1A1A 2Ar4Cr00      [16] 4538 	ld	hl,(_py)
   1A1D CB 2C         [ 8] 4539 	sra	h
   1A1F CB 1D         [ 8] 4540 	rr	l
   1A21 CB 2C         [ 8] 4541 	sra	h
   1A23 CB 1D         [ 8] 4542 	rr	l
   1A25 CB 2C         [ 8] 4543 	sra	h
   1A27 CB 1D         [ 8] 4544 	rr	l
   1A29 CB 2C         [ 8] 4545 	sra	h
   1A2B CB 1D         [ 8] 4546 	rr	l
   1A2D CB 2C         [ 8] 4547 	sra	h
   1A2F CB 1D         [ 8] 4548 	rr	l
   1A31 CB 2C         [ 8] 4549 	sra	h
   1A33 CB 1D         [ 8] 4550 	rr	l
   1A35 FD 21r53r00   [14] 4551 	ld	iy,#_pry
   1A39 FD 75 00      [19] 4552 	ld	0 (iy),l
                           4553 ;mainloop.h:234: player_move ();
   1A3C CDr00r00      [17] 4554 	call	_player_move
                           4555 ;mainloop.h:235: enems_move ();
   1A3F CDrC1r06      [17] 4556 	call	_enems_move
                           4557 ;mainloop.h:237: if (hrt) hotspots_paint ();
   1A42 3Ar7Cr00      [13] 4558 	ld	a,(#_hrt + 0)
   1A45 B7            [ 4] 4559 	or	a, a
   1A46 28 03         [12] 4560 	jr	Z,00109$
   1A48 CDr35r02      [17] 4561 	call	_hotspots_paint
   1A4B                    4562 00109$:
                           4563 ;mainloop.h:252: hud_update ();
   1A4B CDr34r13      [17] 4564 	call	_hud_update
                           4565 ;mainloop.h:253: UNSAFE_SG_copySpritestoSAT ();
   1A4E CDr00r00      [17] 4566 	call	_UNSAFE_SG_copySpritestoSAT
                           4567 ;mainloop.h:254: update_list [update_index] = 0xff;
   1A51 3Ar94r00      [13] 4568 	ld	a,(#_update_index + 0)
   1A54 C6r95         [ 7] 4569 	add	a, #<(_update_list)
   1A56 6F            [ 4] 4570 	ld	l, a
   1A57 3E 00         [ 7] 4571 	ld	a, #0x00
   1A59 CEs00         [ 7] 4572 	adc	a, #>(_update_list)
   1A5B 67            [ 4] 4573 	ld	h, a
   1A5C 36 FF         [10] 4574 	ld	(hl),#0xFF
                           4575 ;mainloop.h:255: SG_doUpdateList ();
   1A5E CDr00r00      [17] 4576 	call	_SG_doUpdateList
                           4577 ;mainloop.h:256: clear_update_list ();	
   1A61 CDr00r00      [17] 4578 	call	_clear_update_list
                           4579 ;mainloop.h:257: SG_displayOn ();
   1A64 21 40 01      [10] 4580 	ld	hl,#0x0140
   1A67 E5            [11] 4581 	push	hl
   1A68 CDr00r00      [17] 4582 	call	_SG_VDPturnOnFeature
   1A6B F1            [10] 4583 	pop	af
   1A6C C9            [10] 4584 	ret
                           4585 ;mainloop.h:260: void game_loop (void) {
                           4586 ;	---------------------------------
                           4587 ; Function game_loop
                           4588 ; ---------------------------------
   1A6D                    4589 _game_loop::
                           4590 ;mainloop.h:267: clear_update_list ();
   1A6D CDr00r00      [17] 4591 	call	_clear_update_list
                           4592 ;mainloop.h:270: on_pant = 99; ft = 1; fade_delay = 1;
   1A70 21rBBr01      [10] 4593 	ld	hl,#_on_pant + 0
   1A73 36 63         [10] 4594 	ld	(hl), #0x63
   1A75 21r7Er00      [10] 4595 	ld	hl,#_ft + 0
   1A78 36 01         [10] 4596 	ld	(hl), #0x01
   1A7A 21rF6r00      [10] 4597 	ld	hl,#_fade_delay + 0
   1A7D 36 01         [10] 4598 	ld	(hl), #0x01
                           4599 ;mainloop.h:274: SG_displayOn ();
   1A7F 21 40 01      [10] 4600 	ld	hl,#0x0140
   1A82 E5            [11] 4601 	push	hl
   1A83 CDr00r00      [17] 4602 	call	_SG_VDPturnOnFeature
   1A86 F1            [10] 4603 	pop	af
                           4604 ;mainloop.h:285: ntsc_frame = level_reset = warp_to_level = 0; 
   1A87 21rC1r01      [10] 4605 	ld	hl,#_warp_to_level + 0
   1A8A 36 00         [10] 4606 	ld	(hl), #0x00
   1A8C 21rC2r01      [10] 4607 	ld	hl,#_level_reset + 0
   1A8F 36 00         [10] 4608 	ld	(hl), #0x00
   1A91 21r93r00      [10] 4609 	ld	hl,#_ntsc_frame + 0
   1A94 36 00         [10] 4610 	ld	(hl), #0x00
                           4611 ;mainloop.h:286: ticker = 50;
   1A96 21r1Fr00      [10] 4612 	ld	hl,#_ticker + 0
   1A99 36 32         [10] 4613 	ld	(hl), #0x32
                           4614 ;mainloop.h:288: while (1) {
   1A9B                    4615 00167$:
                           4616 ;mainloop.h:295: hud_update ();
   1A9B CDr34r13      [17] 4617 	call	_hud_update
                           4618 ;mainloop.h:299: if (pkill) player_kill ();
   1A9E 3Ar6Br00      [13] 4619 	ld	a,(#_pkill + 0)
   1AA1 B7            [ 4] 4620 	or	a, a
   1AA2 28 03         [12] 4621 	jr	Z,00102$
   1AA4 CDr00r00      [17] 4622 	call	_player_kill
   1AA7                    4623 00102$:
                           4624 ;mainloop.h:300: if (game_over || level_reset) break;			
   1AA7 3ArC0r01      [13] 4625 	ld	a,(#_game_over + 0)
   1AAA B7            [ 4] 4626 	or	a, a
   1AAB C2r11r1D      [10] 4627 	jp	NZ,00168$
   1AAE 3ArC2r01      [13] 4628 	ld	a,(#_level_reset + 0)
   1AB1 B7            [ 4] 4629 	or	a, a
   1AB2 C2r11r1D      [10] 4630 	jp	NZ,00168$
                           4631 ;mainloop.h:304: flick_override = 0;
   1AB5 21rC3r01      [10] 4632 	ld	hl,#_flick_override + 0
   1AB8 36 00         [10] 4633 	ld	(hl), #0x00
                           4634 ;mainloop.h:307: flickscreen_do_horizontal ();
   1ABA CDr93r16      [17] 4635 	call	_flickscreen_do_horizontal
                           4636 ;mainloop.h:308: flickscreen_do_vertical ();
   1ABD CDrDEr16      [17] 4637 	call	_flickscreen_do_vertical
                           4638 ;mainloop.h:313: if (on_pant != n_pant) {
   1AC0 3ArBBr01      [13] 4639 	ld	a,(#_on_pant + 0)
   1AC3 FD 21rBAr01   [14] 4640 	ld	iy,#_n_pant
   1AC7 FD 96 00      [19] 4641 	sub	a, 0 (iy)
   1ACA 28 09         [12] 4642 	jr	Z,00109$
                           4643 ;mainloop.h:314: prepare_scr ();
   1ACC CDr74r19      [17] 4644 	call	_prepare_scr
                           4645 ;mainloop.h:315: on_pant = n_pant;
   1ACF 3ArBAr01      [13] 4646 	ld	a,(#_n_pant + 0)
   1AD2 32rBBr01      [13] 4647 	ld	(#_on_pant + 0),a
   1AD5                    4648 00109$:
                           4649 ;mainloop.h:334: SG_waitForVBlank ();
   1AD5 CDr00r00      [17] 4650 	call	_SG_waitForVBlank
                           4651 ;mainloop.h:335: UNSAFE_SG_copySpritestoSAT ();
   1AD8 CDr00r00      [17] 4652 	call	_UNSAFE_SG_copySpritestoSAT
                           4653 ;mainloop.h:336: update_list [update_index] = 0xff;
   1ADB 3Er95         [ 7] 4654 	ld	a,#<(_update_list)
   1ADD 21r94r00      [10] 4655 	ld	hl,#_update_index
   1AE0 86            [ 7] 4656 	add	a, (hl)
   1AE1 6F            [ 4] 4657 	ld	l, a
   1AE2 3Es00         [ 7] 4658 	ld	a, #>(_update_list)
   1AE4 CE 00         [ 7] 4659 	adc	a, #0x00
   1AE6 67            [ 4] 4660 	ld	h, a
   1AE7 36 FF         [10] 4661 	ld	(hl),#0xFF
                           4662 ;mainloop.h:337: SG_doUpdateList ();
   1AE9 CDr00r00      [17] 4663 	call	_SG_doUpdateList
                           4664 ;mainloop.h:338: clear_update_list ();
   1AEC CDr00r00      [17] 4665 	call	_clear_update_list
                           4666 ;mainloop.h:342: pad_read ();
   1AEF CDr00r00      [17] 4667 	call	_pad_read
                           4668 ;mainloop.h:343: a_button = (pad_this_frame & PAD_A);
   1AF2 3Ar06r00      [13] 4669 	ld	a,(#_pad_this_frame + 0)
   1AF5 E6 20         [ 7] 4670 	and	a, #0x20
   1AF7 67            [ 4] 4671 	ld	h,a
   1AF8 FD 21r59r00   [14] 4672 	ld	iy,#_a_button
   1AFC FD 74 00      [19] 4673 	ld	0 (iy),h
                           4674 ;mainloop.h:344: b_button = (pad_this_frame & PAD_B);
   1AFF 3Ar06r00      [13] 4675 	ld	a,(#_pad_this_frame + 0)
   1B02 E6 10         [ 7] 4676 	and	a, #0x10
   1B04 67            [ 4] 4677 	ld	h,a
   1B05 FD 21r5Ar00   [14] 4678 	ld	iy,#_b_button
   1B09 FD 74 00      [19] 4679 	ld	0 (iy),h
                           4680 ;mainloop.h:348: ntsc_frame ++; if (ntsc_frame == 6) ntsc_frame = 0;
   1B0C 21r93r00      [10] 4681 	ld	hl, #_ntsc_frame+0
   1B0F 34            [11] 4682 	inc	(hl)
   1B10 3Ar93r00      [13] 4683 	ld	a,(#_ntsc_frame + 0)
   1B13 D6 06         [ 7] 4684 	sub	a, #0x06
   1B15 20 05         [12] 4685 	jr	NZ,00111$
   1B17 21r93r00      [10] 4686 	ld	hl,#_ntsc_frame + 0
   1B1A 36 00         [10] 4687 	ld	(hl), #0x00
   1B1C                    4688 00111$:
                           4689 ;mainloop.h:350: if (paused == 0 && (ntsc == 0 || ntsc_frame)) {
   1B1C 3ArBEr01      [13] 4690 	ld	a,(#_paused + 0)
   1B1F B7            [ 4] 4691 	or	a, a
   1B20 C2rEDr1C      [10] 4692 	jp	NZ,00159$
   1B23 3Ar92r00      [13] 4693 	ld	a,(#_ntsc + 0)
   1B26 B7            [ 4] 4694 	or	a, a
   1B27 28 07         [12] 4695 	jr	Z,00158$
   1B29 3Ar93r00      [13] 4696 	ld	a,(#_ntsc_frame + 0)
   1B2C B7            [ 4] 4697 	or	a, a
   1B2D CArEDr1C      [10] 4698 	jp	Z,00159$
   1B30                    4699 00158$:
                           4700 ;mainloop.h:351: SG_initSprites ();
   1B30 CDr00r00      [17] 4701 	call	_SG_initSprites
                           4702 ;mainloop.h:354: if (ticker) -- ticker; else ticker = 50;
   1B33 3Ar1Fr00      [13] 4703 	ld	a,(#_ticker + 0)
   1B36 B7            [ 4] 4704 	or	a, a
   1B37 28 09         [12] 4705 	jr	Z,00113$
   1B39 FD 21r1Fr00   [14] 4706 	ld	iy,#_ticker
   1B3D FD 35 00      [23] 4707 	dec	0 (iy)
   1B40 18 08         [12] 4708 	jr	00114$
   1B42                    4709 00113$:
   1B42 FD 21r1Fr00   [14] 4710 	ld	iy,#_ticker
   1B46 FD 36 00 32   [19] 4711 	ld	0 (iy),#0x32
   1B4A                    4712 00114$:
                           4713 ;mainloop.h:355: half_life ^= 1;
   1B4A 3ArBCr01      [13] 4714 	ld	a,(#_half_life + 0)
   1B4D EE 01         [ 7] 4715 	xor	a, #0x01
   1B4F FD 21rBCr01   [14] 4716 	ld	iy,#_half_life
   1B53 FD 77 00      [19] 4717 	ld	0 (iy),a
                           4718 ;mainloop.h:356: ++ frame_counter;
   1B56 FD 21rBDr01   [14] 4719 	ld	iy,#_frame_counter
   1B5A FD 34 00      [23] 4720 	inc	0 (iy)
                           4721 ;mainloop/hotspots.h:6: if (hrt) {
   1B5D 3Ar7Cr00      [13] 4722 	ld	a,(#_hrt + 0)
   1B60 B7            [ 4] 4723 	or	a, a
   1B61 CAr17r1C      [10] 4724 	jp	Z,00131$
                           4725 ;mainloop/hotspots.h:7: if (collide_in (prx + 4, pry + 8, hrx, hry)) {
   1B64 3Ar53r00      [13] 4726 	ld	a,(#_pry + 0)
   1B67 C6 08         [ 7] 4727 	add	a, #0x08
   1B69 47            [ 4] 4728 	ld	b,a
   1B6A 21r52r00      [10] 4729 	ld	hl,#_prx + 0
   1B6D 56            [ 7] 4730 	ld	d, (hl)
   1B6E 14            [ 4] 4731 	inc	d
   1B6F 14            [ 4] 4732 	inc	d
   1B70 14            [ 4] 4733 	inc	d
   1B71 14            [ 4] 4734 	inc	d
   1B72 3Ar7Br00      [13] 4735 	ld	a,(_hry)
   1B75 F5            [11] 4736 	push	af
   1B76 33            [ 6] 4737 	inc	sp
   1B77 3Ar7Ar00      [13] 4738 	ld	a,(_hrx)
   1B7A F5            [11] 4739 	push	af
   1B7B 33            [ 6] 4740 	inc	sp
   1B7C 4A            [ 4] 4741 	ld	c, d
   1B7D C5            [11] 4742 	push	bc
   1B7E CDr00r00      [17] 4743 	call	_collide_in
   1B81 F1            [10] 4744 	pop	af
   1B82 F1            [10] 4745 	pop	af
   1B83 7D            [ 4] 4746 	ld	a,l
   1B84 B7            [ 4] 4747 	or	a, a
   1B85 CAr17r1C      [10] 4748 	jp	Z,00131$
                           4749 ;mainloop/hotspots.h:9: if (hrt == HOTSPOT_TYPE_RESONATOR) {
   1B88 3Ar7Cr00      [13] 4750 	ld	a,(#_hrt + 0)
   1B8B D6 04         [ 7] 4751 	sub	a, #0x04
   1B8D 20 3A         [12] 4752 	jr	NZ,00126$
                           4753 ;mainloop/hotspots.h:10: if (pvy > 0 && pry < hry) {
   1B8F AF            [ 4] 4754 	xor	a, a
   1B90 FD 21r50r00   [14] 4755 	ld	iy,#_pvy
   1B94 FD BE 00      [19] 4756 	cp	a, 0 (iy)
   1B97 FD 21r50r00   [14] 4757 	ld	iy,#_pvy
   1B9B FD 9E 01      [19] 4758 	sbc	a, 1 (iy)
   1B9E E2rA3r1B      [10] 4759 	jp	PO, 00309$
   1BA1 EE 80         [ 7] 4760 	xor	a, #0x80
   1BA3                    4761 00309$:
   1BA3 F2r17r1C      [10] 4762 	jp	P,00131$
   1BA6 21r7Br00      [10] 4763 	ld	hl,#_hry
   1BA9 3Ar53r00      [13] 4764 	ld	a,(#_pry + 0)
   1BAC 96            [ 7] 4765 	sub	a, (hl)
   1BAD 30 68         [12] 4766 	jr	NC,00131$
                           4767 ;mainloop/hotspots.h:11: if (res_on == 0) {
   1BAF 3ArB1r02      [13] 4768 	ld	a,(#_res_on + 0)
   1BB2 B7            [ 4] 4769 	or	a, a
   1BB3 20 62         [12] 4770 	jr	NZ,00131$
                           4771 ;mainloop/hotspots.h:12: res_on = 1; res_ct = 9; res_subct = 50;
   1BB5 21rB1r02      [10] 4772 	ld	hl,#_res_on + 0
   1BB8 36 01         [10] 4773 	ld	(hl), #0x01
   1BBA 21rB2r02      [10] 4774 	ld	hl,#_res_ct + 0
   1BBD 36 09         [10] 4775 	ld	(hl), #0x09
   1BBF 21rB3r02      [10] 4776 	ld	hl,#_res_subct + 0
   1BC2 36 32         [10] 4777 	ld	(hl), #0x32
                           4778 ;mainloop/hotspots.h:13: jump_start ();
   1BC4 CDr00r00      [17] 4779 	call	_jump_start
   1BC7 18 4E         [12] 4780 	jr	00131$
   1BC9                    4781 00126$:
                           4782 ;mainloop/hotspots.h:128: rda = 0;
   1BC9 FD 21r18r00   [14] 4783 	ld	iy,#_rda
   1BCD FD 36 00 00   [19] 4784 	ld	0 (iy),#0x00
                           4785 ;mainloop/hotspots.h:129: switch (hrt) {
   1BD1 3Ar7Cr00      [13] 4786 	ld	a,(#_hrt + 0)
   1BD4 FE 02         [ 7] 4787 	cp	a,#0x02
   1BD6 28 06         [12] 4788 	jr	Z,00120$
   1BD8 D6 03         [ 7] 4789 	sub	a, #0x03
   1BDA 28 13         [12] 4790 	jr	Z,00121$
   1BDC 18 20         [12] 4791 	jr	00122$
                           4792 ;mainloop/hotspots.h:151: case HOTSPOT_TYPE_KEYS:
   1BDE                    4793 00120$:
                           4794 ;mainloop/hotspots.h:152: ++ pkeys;
   1BDE FD 21r70r00   [14] 4795 	ld	iy,#_pkeys
   1BE2 FD 34 00      [23] 4796 	inc	0 (iy)
                           4797 ;mainloop/hotspots.h:153: rda = SFX_OBJECT;
   1BE5 FD 21r18r00   [14] 4798 	ld	iy,#_rda
   1BE9 FD 36 00 02   [19] 4799 	ld	0 (iy),#0x02
                           4800 ;mainloop/hotspots.h:154: break;
   1BED 18 0F         [12] 4801 	jr	00122$
                           4802 ;mainloop/hotspots.h:156: case HOTSPOT_TYPE_REFILL:
   1BEF                    4803 00121$:
                           4804 ;mainloop/hotspots.h:157: plife += PLAYER_REFILL;
   1BEF FD 21r6Fr00   [14] 4805 	ld	iy,#_plife
   1BF3 FD 34 00      [23] 4806 	inc	0 (iy)
                           4807 ;mainloop/hotspots.h:161: rda = SFX_USE;
   1BF6 FD 21r18r00   [14] 4808 	ld	iy,#_rda
   1BFA FD 36 00 03   [19] 4809 	ld	0 (iy),#0x03
                           4810 ;mainloop/hotspots.h:191: }
   1BFE                    4811 00122$:
                           4812 ;mainloop/hotspots.h:192: if (rda) {
   1BFE 3Ar18r00      [13] 4813 	ld	a,(#_rda + 0)
   1C01 B7            [ 4] 4814 	or	a, a
   1C02 28 13         [12] 4815 	jr	Z,00131$
                           4816 ;mainloop/hotspots.h:194: hrt = 0;
   1C04 21r7Cr00      [10] 4817 	ld	hl,#_hrt + 0
   1C07 36 00         [10] 4818 	ld	(hl), #0x00
                           4819 ;mainloop/hotspots.h:195: hact [n_pant] = 0;
   1C09 3ErCC         [ 7] 4820 	ld	a,#<(_hact)
   1C0B 21rBAr01      [10] 4821 	ld	hl,#_n_pant
   1C0E 86            [ 7] 4822 	add	a, (hl)
   1C0F 5F            [ 4] 4823 	ld	e,a
   1C10 3Es01         [ 7] 4824 	ld	a,#>(_hact)
   1C12 CE 00         [ 7] 4825 	adc	a, #0x00
   1C14 57            [ 4] 4826 	ld	d,a
   1C15 AF            [ 4] 4827 	xor	a, a
   1C16 12            [ 7] 4828 	ld	(de),a
   1C17                    4829 00131$:
                           4830 ;mainloop.h:376: if (!warp_to_level) {
   1C17 3ArC1r01      [13] 4831 	ld	a,(#_warp_to_level + 0)
   1C1A B7            [ 4] 4832 	or	a, a
   1C1B 20 03         [12] 4833 	jr	NZ,00133$
                           4834 ;mainloop.h:377: player_move ();
   1C1D CDr00r00      [17] 4835 	call	_player_move
   1C20                    4836 00133$:
                           4837 ;my/extra_checks.h:14: if (c_max_enems == pkilled) {
   1C20 3ArB9r01      [13] 4838 	ld	a,(#_c_max_enems + 0)
   1C23 FD 21r73r00   [14] 4839 	ld	iy,#_pkilled
   1C27 FD 96 00      [19] 4840 	sub	a, 0 (iy)
   1C2A 20 17         [12] 4841 	jr	NZ,00139$
                           4842 ;my/extra_checks.h:16: en_cttouched [0] == 0 &&
   1C2C 3Ar1Dr02      [13] 4843 	ld	a, (#_en_cttouched + 0)
   1C2F B7            [ 4] 4844 	or	a, a
   1C30 20 11         [12] 4845 	jr	NZ,00139$
                           4846 ;my/extra_checks.h:17: en_cttouched [1] == 0 &&
   1C32 3Ar1Er02      [13] 4847 	ld	a, (#_en_cttouched + 1)
   1C35 B7            [ 4] 4848 	or	a, a
   1C36 20 0B         [12] 4849 	jr	NZ,00139$
                           4850 ;my/extra_checks.h:18: en_cttouched [2] == 0
   1C38 3Ar1Fr02      [13] 4851 	ld	a, (#_en_cttouched + 2)
   1C3B B7            [ 4] 4852 	or	a, a
   1C3C 20 05         [12] 4853 	jr	NZ,00139$
                           4854 ;my/extra_checks.h:19: ) win_level = 1;
   1C3E 21rBFr01      [10] 4855 	ld	hl,#_win_level + 0
   1C41 36 01         [10] 4856 	ld	(hl), #0x01
   1C43                    4857 00139$:
                           4858 ;mainloop/win_level_condition.h:10: win_level
   1C43 3ArBFr01      [13] 4859 	ld	a,(#_win_level + 0)
   1C46 B7            [ 4] 4860 	or	a, a
   1C47 28 0E         [12] 4861 	jr	Z,00141$
                           4862 ;mainloop/win_level_condition.h:23: PSGStop ();
   1C49 CDr00r00      [17] 4863 	call	_PSGStop
                           4864 ;mainloop/win_level_condition.h:24: delay (50);
   1C4C 3E 32         [ 7] 4865 	ld	a,#0x32
   1C4E F5            [11] 4866 	push	af
   1C4F 33            [ 6] 4867 	inc	sp
   1C50 CDr00r00      [17] 4868 	call	_delay
   1C53 33            [ 6] 4869 	inc	sp
                           4870 ;mainloop/win_level_condition.h:25: break;
   1C54 C3r11r1D      [10] 4871 	jp	00168$
   1C57                    4872 00141$:
                           4873 ;mainloop.h:414: cur_stp = SG_getStp (); 
   1C57 CDr00r00      [17] 4874 	call	_SG_getStp
   1C5A 22r27r00      [16] 4875 	ld	(_cur_stp),hl
                           4876 ;mainloop.h:415: if (!warp_to_level)	player_render ();
   1C5D 3ArC1r01      [13] 4877 	ld	a,(#_warp_to_level + 0)
   1C60 B7            [ 4] 4878 	or	a, a
   1C61 20 03         [12] 4879 	jr	NZ,00143$
   1C63 CDr00r00      [17] 4880 	call	_player_render
   1C66                    4881 00143$:
                           4882 ;mainloop.h:419: enems_move ();
   1C66 CDrC1r06      [17] 4883 	call	_enems_move
                           4884 ;mainloop.h:423: if (warp_to_level) {
   1C69 3ArC1r01      [13] 4885 	ld	a,(#_warp_to_level + 0)
   1C6C B7            [ 4] 4886 	or	a, a
   1C6D 28 09         [12] 4887 	jr	Z,00145$
                           4888 ;mainloop.h:424: update_cycle (); PSGStop (); break;
   1C6F CDr00r00      [17] 4889 	call	_update_cycle
   1C72 CDr00r00      [17] 4890 	call	_PSGStop
   1C75 C3r11r1D      [10] 4891 	jp	00168$
   1C78                    4892 00145$:
                           4893 ;mainloop/resonators.h:5: if (res_on) {
   1C78 3ArB1r02      [13] 4894 	ld	a,(#_res_on + 0)
   1C7B B7            [ 4] 4895 	or	a, a
   1C7C 28 40         [12] 4896 	jr	Z,00153$
                           4897 ;mainloop/resonators.h:7: gp_addr = ((RESONATOR_COUNTER_Y << 5) | RESONATOR_COUNTER_X) + PNTADDRESS;
   1C7E 21 3D 18      [10] 4898 	ld	hl,#0x183D
   1C81 22r12r00      [16] 4899 	ld	(_gp_addr),hl
                           4900 ;mainloop/resonators.h:8: _n = 16 + res_ct; 
   1C84 21r02r00      [10] 4901 	ld	hl,#__n
   1C87 3ArB2r02      [13] 4902 	ld	a,(#_res_ct + 0)
   1C8A C6 10         [ 7] 4903 	add	a, #0x10
   1C8C 77            [ 7] 4904 	ld	(hl),a
                           4905 ;mainloop/resonators.h:9: ul_putc ();
   1C8D CDr00r00      [17] 4906 	call	_ul_putc
                           4907 ;mainloop/resonators.h:12: if (res_subct) -- res_subct; else {
   1C90 3ArB3r02      [13] 4908 	ld	a,(#_res_subct + 0)
   1C93 B7            [ 4] 4909 	or	a, a
   1C94 28 09         [12] 4910 	jr	Z,00150$
   1C96 FD 21rB3r02   [14] 4911 	ld	iy,#_res_subct
   1C9A FD 35 00      [23] 4912 	dec	0 (iy)
   1C9D 18 1F         [12] 4913 	jr	00153$
   1C9F                    4914 00150$:
                           4915 ;mainloop/resonators.h:13: res_subct = 50;
   1C9F FD 21rB3r02   [14] 4916 	ld	iy,#_res_subct
   1CA3 FD 36 00 32   [19] 4917 	ld	0 (iy),#0x32
                           4918 ;mainloop/resonators.h:14: if (res_ct) { 
   1CA7 3ArB2r02      [13] 4919 	ld	a,(#_res_ct + 0)
   1CAA B7            [ 4] 4920 	or	a, a
   1CAB 28 09         [12] 4921 	jr	Z,00147$
                           4922 ;mainloop/resonators.h:15: -- res_ct; 
   1CAD FD 21rB2r02   [14] 4923 	ld	iy,#_res_ct
   1CB1 FD 35 00      [23] 4924 	dec	0 (iy)
   1CB4 18 08         [12] 4925 	jr	00153$
   1CB6                    4926 00147$:
                           4927 ;mainloop/resonators.h:18: res_on = 0;
   1CB6 FD 21rB1r02   [14] 4928 	ld	iy,#_res_on
   1CBA FD 36 00 00   [19] 4929 	ld	0 (iy),#0x00
   1CBE                    4930 00153$:
                           4931 ;mainloop.h:435: if (hrt) hotspots_paint ();
   1CBE 3Ar7Cr00      [13] 4932 	ld	a,(#_hrt + 0)
   1CC1 B7            [ 4] 4933 	or	a, a
   1CC2 28 03         [12] 4934 	jr	Z,00155$
   1CC4 CDr35r02      [17] 4935 	call	_hotspots_paint
   1CC7                    4936 00155$:
                           4937 ;mainloop/no.h:5: if (no_ct) {
   1CC7 3ArCAr01      [13] 4938 	ld	a,(#_no_ct + 0)
   1CCA B7            [ 4] 4939 	or	a, a
   1CCB 28 1D         [12] 4940 	jr	Z,00157$
                           4941 ;mainloop/no.h:6: -- no_ct;
   1CCD FD 21rCAr01   [14] 4942 	ld	iy,#_no_ct
   1CD1 FD 35 00      [23] 4943 	dec	0 (iy)
                           4944 ;mainloop/no.h:9: NO_METASPRITE
   1CD4 11r00r00      [10] 4945 	ld	de,#_ss_it_06
                           4946 ;mainloop/no.h:8: prx + NO_OFFS_X, pry + NO_OFFS_Y + SPRITE_ADJUST,
   1CD7 3Ar53r00      [13] 4947 	ld	a,(#_pry + 0)
   1CDA C6 E3         [ 7] 4948 	add	a, #0xE3
   1CDC 67            [ 4] 4949 	ld	h,a
   1CDD D5            [11] 4950 	push	de
   1CDE E5            [11] 4951 	push	hl
   1CDF 33            [ 6] 4952 	inc	sp
   1CE0 3Ar52r00      [13] 4953 	ld	a,(_prx)
   1CE3 F5            [11] 4954 	push	af
   1CE4 33            [ 6] 4955 	inc	sp
   1CE5 CDr00r00      [17] 4956 	call	_SG_addMetaSprite1x1
   1CE8 F1            [10] 4957 	pop	af
   1CE9 F1            [10] 4958 	pop	af
   1CEA                    4959 00157$:
                           4960 ;mainloop.h:464: chac_chacs_do ();
   1CEA CDr00r00      [17] 4961 	call	_chac_chacs_do
   1CED                    4962 00159$:
                           4963 ;mainloop/cheat.h:5: if ((pad0 & (PAD_B|PAD_SELECT|PAD_UP)) == (PAD_B|PAD_SELECT|PAD_UP)) break;
   1CED 3Ar04r00      [13] 4964 	ld	a,(#_pad0 + 0)
   1CF0 E6 31         [ 7] 4965 	and	a, #0x31
   1CF2 2E 00         [ 7] 4966 	ld	l, #0x00
   1CF4 D6 31         [ 7] 4967 	sub	a,#0x31
   1CF6 20 03         [12] 4968 	jr	NZ,00314$
   1CF8 B5            [ 4] 4969 	or	a,l
   1CF9 28 16         [12] 4970 	jr	Z,00168$
   1CFB                    4971 00314$:
   1CFB CDr00r00      [17] 4972 	call	_SG_queryPauseRequested
   1CFE CB 45         [ 8] 4973 	bit	0,l
   1D00 CAr9Br1A      [10] 4974 	jp	Z,00167$
                           4975 ;mainloop/pause.h:6: SG_resetPauseRequest ();
   1D03 CDr00r00      [17] 4976 	call	_SG_resetPauseRequest
                           4977 ;mainloop/pause.h:7: paused ^= 1;
   1D06 3ArBEr01      [13] 4978 	ld	a,(#_paused + 0)
   1D09 EE 01         [ 7] 4979 	xor	a, #0x01
   1D0B 32rBEr01      [13] 4980 	ld	(#_paused + 0),a
   1D0E C3r9Br1A      [10] 4981 	jp	00167$
   1D11                    4982 00168$:
                           4983 ;mainloop.h:481: SG_displayOff ();
   1D11 21 40 01      [10] 4984 	ld	hl,#0x0140
   1D14 E5            [11] 4985 	push	hl
   1D15 CDr00r00      [17] 4986 	call	_SG_VDPturnOffFeature
   1D18 F1            [10] 4987 	pop	af
                           4988 ;mainloop.h:482: SG_initSprites ();
   1D19 CDr00r00      [17] 4989 	call	_SG_initSprites
                           4990 ;mainloop.h:483: UNSAFE_SG_copySpritestoSAT ();	
   1D1C C3r00r00      [10] 4991 	jp  _UNSAFE_SG_copySpritestoSAT
                           4992 ;game.c:110: void main(void) {
                           4993 ;	---------------------------------
                           4994 ; Function main
                           4995 ; ---------------------------------
   1D1F                    4996 _main::
                           4997 ;game.c:111: SG_displayOff ();
   1D1F 21 40 01      [10] 4998 	ld	hl,#0x0140
   1D22 E5            [11] 4999 	push	hl
   1D23 CDr00r00      [17] 5000 	call	_SG_VDPturnOffFeature
                           5001 ;game.c:112: SG_setSpriteMode (SG_SPRITEMODE_LARGE);
   1D26 26 01         [ 7] 5002 	ld	h,#0x01
   1D28 E3            [19] 5003 	ex	(sp),hl
   1D29 33            [ 6] 5004 	inc	sp
   1D2A CDr00r00      [17] 5005 	call	_SG_setSpriteMode
   1D2D 33            [ 6] 5006 	inc	sp
                           5007 ;game.c:113: SG_setUpdateList (update_list);
   1D2E 21r95r00      [10] 5008 	ld	hl,#_update_list+0
   1D31 E5            [11] 5009 	push	hl
   1D32 CDr00r00      [17] 5010 	call	_SG_setUpdateList
   1D35 F1            [10] 5011 	pop	af
                           5012 ;game.c:114: first_game = 1;
   1D36 21rB7r01      [10] 5013 	ld	hl,#_first_game + 0
   1D39 36 01         [10] 5014 	ld	(hl), #0x01
                           5015 ;game.c:120: unpack_bg_patterns (tsfont_patterns_c, tsfont_colours_c, 0, 7);
   1D3B 11r00r00      [10] 5016 	ld	de,#_tsfont_colours_c+0
   1D3E 01r00r00      [10] 5017 	ld	bc,#_tsfont_patterns_c+0
   1D41 3E 07         [ 7] 5018 	ld	a,#0x07
   1D43 F5            [11] 5019 	push	af
   1D44 33            [ 6] 5020 	inc	sp
   1D45 21 00 00      [10] 5021 	ld	hl,#0x0000
   1D48 E5            [11] 5022 	push	hl
   1D49 D5            [11] 5023 	push	de
   1D4A C5            [11] 5024 	push	bc
   1D4B CDr00r00      [17] 5025 	call	_unpack_bg_patterns
   1D4E 21 07 00      [10] 5026 	ld	hl,#7
   1D51 39            [11] 5027 	add	hl,sp
   1D52 F9            [ 6] 5028 	ld	sp,hl
                           5029 ;game.c:122: mode_no_resonators = 0;
   1D53 21rB7r02      [10] 5030 	ld	hl,#_mode_no_resonators + 0
   1D56 36 00         [10] 5031 	ld	(hl), #0x00
                           5032 ;game.c:123: credits ();
   1D58 CDrB6r15      [17] 5033 	call	_credits
                           5034 ;game.c:126: aPLib_depack_VRAM (SGT_BASE, ss_fixed_patterns_c);
   1D5B 21r00r00      [10] 5035 	ld	hl,#_ss_fixed_patterns_c+0
   1D5E E5            [11] 5036 	push	hl
   1D5F 21 00 38      [10] 5037 	ld	hl,#0x3800
   1D62 E5            [11] 5038 	push	hl
   1D63 CDr00r00      [17] 5039 	call	_aPLib_depack_VRAM
   1D66 F1            [10] 5040 	pop	af
   1D67 F1            [10] 5041 	pop	af
                           5042 ;game.c:128: while (1) {	
   1D68                    5043 00110$:
                           5044 ;game.c:129: title ();
   1D68 CDrE8r13      [17] 5045 	call	_title
                           5046 ;game.c:131: level = 0;
   1D6B 21rB8r01      [10] 5047 	ld	hl,#_level + 0
   1D6E 36 00         [10] 5048 	ld	(hl), #0x00
                           5049 ;game.c:132: plife = PLAYER_LIFE;
   1D70 21r6Fr00      [10] 5050 	ld	hl,#_plife + 0
   1D73 36 05         [10] 5051 	ld	(hl), #0x05
                           5052 ;game.c:136: while (1) {
   1D75                    5053 00107$:
                           5054 ;game.c:137: pres (scr_level);
   1D75 21r47r15      [10] 5055 	ld	hl,#_scr_level
   1D78 E5            [11] 5056 	push	hl
   1D79 CDrCEr13      [17] 5057 	call	_pres
   1D7C F1            [10] 5058 	pop	af
                           5059 ;game.c:138: game_init (); 
   1D7D CDr81r17      [17] 5060 	call	_game_init
                           5061 ;game.c:139: game_loop ();
   1D80 CDr6Dr1A      [17] 5062 	call	_game_loop
                           5063 ;game.c:141: if (game_over) {
   1D83 3ArC0r01      [13] 5064 	ld	a,(#_game_over + 0)
   1D86 B7            [ 4] 5065 	or	a, a
   1D87 28 0A         [12] 5066 	jr	Z,00104$
                           5067 ;game.c:142: pres (scr_game_over);
   1D89 21rB3r14      [10] 5068 	ld	hl,#_scr_game_over
   1D8C E5            [11] 5069 	push	hl
   1D8D CDrCEr13      [17] 5070 	call	_pres
   1D90 F1            [10] 5071 	pop	af
                           5072 ;game.c:143: break;
   1D91 18 13         [12] 5073 	jr	00108$
   1D93                    5074 00104$:
                           5075 ;game.c:145: level ++;
   1D93 21rB8r01      [10] 5076 	ld	hl, #_level+0
   1D96 34            [11] 5077 	inc	(hl)
                           5078 ;game.c:146: if (level == MAX_LEVELS) {
   1D97 3ArB8r01      [13] 5079 	ld	a,(#_level + 0)
   1D9A D6 03         [ 7] 5080 	sub	a, #0x03
   1D9C 20 D7         [12] 5081 	jr	NZ,00107$
                           5082 ;game.c:147: pres (scr_the_end);
   1D9E 21rD1r14      [10] 5083 	ld	hl,#_scr_the_end
   1DA1 E5            [11] 5084 	push	hl
   1DA2 CDrCEr13      [17] 5085 	call	_pres
   1DA5 F1            [10] 5086 	pop	af
                           5087 ;game.c:148: break;
   1DA6                    5088 00108$:
                           5089 ;game.c:153: first_game = 0;
   1DA6 21rB7r01      [10] 5090 	ld	hl,#_first_game + 0
   1DA9 36 00         [10] 5091 	ld	(hl), #0x00
   1DAB 18 BB         [12] 5092 	jr	00110$
                           5093 	.area _CODE
                           5094 	.area _INITIALIZER
                           5095 	.area _CABS (ABS)
