                              1 ;--------------------------------------------------------
                              2 ; File Created by SDCC : free open source ANSI-C Compiler
                              3 ; Version 3.5.2 #9293 (MINGW32)
                              4 ; This file was generated Mon Oct 29 21:30:55 2018
                              5 ;--------------------------------------------------------
                              6 	.module game
                              7 	.optsdcc -mz80
                              8 	
                              9 ;--------------------------------------------------------
                             10 ; Public variables in this module
                             11 ;--------------------------------------------------------
                             12 	.globl _main
                             13 	.globl _game_loop
                             14 	.globl _prepare_scr
                             15 	.globl _game_init
                             16 	.globl _flickscreen_do_vertical
                             17 	.globl _flickscreen_do_horizontal
                             18 	.globl _credits
                             19 	.globl _scr_level
                             20 	.globl _scr_the_end
                             21 	.globl _scr_game_over
                             22 	.globl _title
                             23 	.globl _pres
                             24 	.globl _bat_out
                             25 	.globl _bat_in
                             26 	.globl _hud_update
                             27 	.globl _draw_game_frame
                             28 	.globl _enems_move
                             29 	.globl _enems_hit
                             30 	.globl _enems_kill
                             31 	.globl _enems_load
                             32 	.globl _enems_boioiong_init
                             33 	.globl _enems_init_fp
                             34 	.globl _enems_facing
                             35 	.globl _enems_update_unsigned_char_arrays
                             36 	.globl _enems_persistent_deaths_load
                             37 	.globl _player_move
                             38 	.globl _player_process_tile
                             39 	.globl _player_kill
                             40 	.globl _player_to_pixels
                             41 	.globl _player_init
                             42 	.globl _player_stop
                             43 	.globl _player_register_safe_spot
                             44 	.globl _chac_chacs_do
                             45 	.globl _hotspots_create
                             46 	.globl _hotspots_paint
                             47 	.globl _hotspots_load
                             48 	.globl _do_update_list_and_wait
                             49 	.globl _update_cycle
                             50 	.globl _jump_start
                             51 	.globl _distance
                             52 	.globl _pad_read
                             53 	.globl _cm_two_points
                             54 	.globl _pr_str
                             55 	.globl _draw_scr
                             56 	.globl _add_tile
                             57 	.globl _get_byte
                             58 	.globl _map_set
                             59 	.globl _update_list_tile
                             60 	.globl _draw_tile
                             61 	.globl _p_t
                             62 	.globl _ul_putc
                             63 	.globl _cls
                             64 	.globl _clear_update_list
                             65 	.globl _unpack_bg_patterns
                             66 	.globl _memfill
                             67 	.globl _delay
                             68 	.globl _aPLib_depack_VRAM
                             69 	.globl _PSGStop
                             70 	.globl _UNSAFE_SG_copySpritestoSAT
                             71 	.globl _SG_getKeysStatus
                             72 	.globl _SG_setStp
                             73 	.globl _SG_getStp
                             74 	.globl _SG_finalizeSprites
                             75 	.globl _SG_addMetaSprite1x1
                             76 	.globl _SG_initSprites
                             77 	.globl _SG_fillTile
                             78 	.globl _SG_setTile
                             79 	.globl _SG_setNextTileatXY
                             80 	.globl _SG_waitForVBlank
                             81 	.globl _SG_setSpriteMode
                             82 	.globl _SG_VDPturnOffFeature
                             83 	.globl _SG_VDPturnOnFeature
                             84 	.globl _game_mode
                             85 	.globl _mode_no_resonators
                             86 	.globl _shaker_ct
                             87 	.globl _springs_on
                             88 	.globl _cfx
                             89 	.globl _res_subct
                             90 	.globl _res_ct
                             91 	.globl _res_on
                             92 	.globl _res_disable
                             93 	.globl _chac_chacs_queue_write
                             94 	.globl _chac_chacs_queue_read
                             95 	.globl _chac_chacs_queue
                             96 	.globl _chac_chacs_ct
                             97 	.globl _chac_chacs_idlewait
                             98 	.globl _chac_chacs_state
                             99 	.globl _chac_chacs_yx
                            100 	.globl _max_chac_chacs
                            101 	.globl _ep_dead
                            102 	.globl _en_spr_id
                            103 	.globl _enf_vy
                            104 	.globl _enf_y
                            105 	.globl _enf_vx
                            106 	.globl _enf_x
                            107 	.globl _en_spr_x_mod
                            108 	.globl _en_ct
                            109 	.globl _en_status
                            110 	.globl _en_life
                            111 	.globl _en_cttouched
                            112 	.globl _en_flags
                            113 	.globl _en_state
                            114 	.globl _en_facing
                            115 	.globl _en_s
                            116 	.globl _en_my
                            117 	.globl _en_mx
                            118 	.globl _en_y2
                            119 	.globl _en_x2
                            120 	.globl _en_y1
                            121 	.globl _en_x1
                            122 	.globl _en_y
                            123 	.globl _en_x
                            124 	.globl _en_t
                            125 	.globl _flags
                            126 	.globl _lkact
                            127 	.globl _hact
                            128 	.globl _pctfr
                            129 	.globl _no_ct
                            130 	.globl _oam_index_player
                            131 	.globl _okilled
                            132 	.globl _oammo
                            133 	.globl _oobjs
                            134 	.globl _okeys
                            135 	.globl _olife
                            136 	.globl _flick_override
                            137 	.globl _level_reset
                            138 	.globl _warp_to_level
                            139 	.globl _game_over
                            140 	.globl _win_level
                            141 	.globl _paused
                            142 	.globl _frame_counter
                            143 	.globl _half_life
                            144 	.globl _on_pant
                            145 	.globl _n_pant
                            146 	.globl _c_max_enems
                            147 	.globl _level
                            148 	.globl _first_game
                            149 	.globl _map_buff
                            150 	.globl _fade_delay
                            151 	.globl _fader
                            152 	.globl _update_list
                            153 	.globl _update_index
                            154 	.globl _ntsc_frame
                            155 	.globl _ntsc
                            156 	.globl _c_max_bolts
                            157 	.globl _c_hotspots
                            158 	.globl _c_enems
                            159 	.globl _c_locks
                            160 	.globl _c_decos
                            161 	.globl _c_map
                            162 	.globl _c_pal_fg
                            163 	.globl _c_pal_bg
                            164 	.globl _spr_enems
                            165 	.globl _c_behs
                            166 	.globl _c_ts_tmaps
                            167 	.globl _c_ts_pals
                            168 	.globl _c_map_size
                            169 	.globl _c_map_h
                            170 	.globl _c_map_w
                            171 	.globl _ft
                            172 	.globl _do_process_breakable
                            173 	.globl _hrt
                            174 	.globl _hry
                            175 	.globl _hrx
                            176 	.globl _py_safe
                            177 	.globl _px_safe
                            178 	.globl _n_pant_safe
                            179 	.globl _pfiring
                            180 	.globl _pkilled
                            181 	.globl _pammo
                            182 	.globl _pobjs
                            183 	.globl _pkeys
                            184 	.globl _plife
                            185 	.globl _pcontinues
                            186 	.globl _pnotsafe
                            187 	.globl _pice
                            188 	.globl _pkill
                            189 	.globl _pry_old
                            190 	.globl _prx_old
                            191 	.globl _hith
                            192 	.globl _hitv
                            193 	.globl _pgtmy
                            194 	.globl _pgtmx
                            195 	.globl _phit
                            196 	.globl _pbouncing
                            197 	.globl _pflickering
                            198 	.globl _oppossee
                            199 	.globl _ppossee
                            200 	.globl _pgotten
                            201 	.globl _pctj
                            202 	.globl _pj
                            203 	.globl _b_button
                            204 	.globl _a_button
                            205 	.globl _psprid
                            206 	.globl _pfr
                            207 	.globl _pfacing
                            208 	.globl _pcy
                            209 	.globl _pcx
                            210 	.globl _pry
                            211 	.globl _prx
                            212 	.globl _pvy
                            213 	.globl _pvx
                            214 	.globl _py
                            215 	.globl _px
                            216 	.globl _vertical_engine_type
                            217 	.globl _en_sg_2
                            218 	.globl _en_sg_1
                            219 	.globl __enf_vy
                            220 	.globl __enf_vx
                            221 	.globl __enf_y
                            222 	.globl __enf_x
                            223 	.globl __en_state
                            224 	.globl __en_facing
                            225 	.globl __en_ct
                            226 	.globl __en_my
                            227 	.globl __en_mx
                            228 	.globl __en_y2
                            229 	.globl __en_x2
                            230 	.globl __en_y1
                            231 	.globl __en_x1
                            232 	.globl __en_y
                            233 	.globl __en_x
                            234 	.globl __en_s
                            235 	.globl __en_t
                            236 	.globl _pregotten
                            237 	.globl _en_is_alive
                            238 	.globl _touched
                            239 	.globl _en_spr
                            240 	.globl _en_colly
                            241 	.globl _en_collx
                            242 	.globl _en_fr
                            243 	.globl _en_offs
                            244 	.globl _en_initial
                            245 	.globl _cur_stp
                            246 	.globl _caux
                            247 	.globl _cy2
                            248 	.globl _cy1
                            249 	.globl _cx2
                            250 	.globl _cx1
                            251 	.globl _at2
                            252 	.globl _at1
                            253 	.globl _ticker
                            254 	.globl _rdct
                            255 	.globl _rds
                            256 	.globl _rdm
                            257 	.globl _rdd
                            258 	.globl _rdc
                            259 	.globl _rdb
                            260 	.globl _rda
                            261 	.globl _rdit
                            262 	.globl _rdt
                            263 	.globl _rdy
                            264 	.globl _rdx
                            265 	.globl _gp_addr
                            266 	.globl _gp_ram
                            267 	.globl _gp_tmap
                            268 	.globl _gp_gen
                            269 	.globl _rds16
                            270 	.globl _gpjt
                            271 	.globl _gpit
                            272 	.globl _pad_this_frame
                            273 	.globl _pad0
                            274 	.globl __t
                            275 	.globl __n
                            276 	.globl __y
                            277 	.globl __x
                            278 	.globl _levelnames
                            279 	.globl _level2name
                            280 	.globl _level1name
                            281 	.globl _level0name
                            282 	.globl _l_music
                            283 	.globl _l_hotspots
                            284 	.globl _l_enems
                            285 	.globl _l_n_bolts
                            286 	.globl _l_locks
                            287 	.globl _l_decos
                            288 	.globl _l_map
                            289 	.globl _l_spr_enems
                            290 	.globl _l_spr_patterns
                            291 	.globl _l_behs
                            292 	.globl _l_ts_tmaps
                            293 	.globl _l_ts_colours
                            294 	.globl _l_ts_patterns
                            295 	.globl _l_player_max_enems
                            296 	.globl _l_player_max_objects
                            297 	.globl _l_map_h
                            298 	.globl _l_map_w
                            299 	.globl _l_ini_y
                            300 	.globl _l_ini_x
                            301 	.globl _l_scr_ini
                            302 	.globl _spr_hs
                            303 	.globl _spr_enems2
                            304 	.globl _spr_enems1
                            305 	.globl _spr_enems0
                            306 	.globl _spr_player
                            307 	.globl _behs2
                            308 	.globl _behs1
                            309 	.globl _behs0
                            310 	.globl _jitter
                            311 	.globl _bits
                            312 	.globl _chac_chacs_t3
                            313 	.globl _chac_chacs_t2
                            314 	.globl _chac_chacs_t1
                            315 	.globl _chac_chacs_times
                            316 	.globl _chac_chacs_add
                            317 	.globl _player_render
                            318 ;--------------------------------------------------------
                            319 ; special function registers
                            320 ;--------------------------------------------------------
                     00BF   321 _VDPControlPort	=	0x00bf
                     00BF   322 _VDPStatusPort	=	0x00bf
                     00BE   323 _VDPDataPort	=	0x00be
                     007E   324 _VDPVCounterPort	=	0x007e
                     007F   325 _VDPHCounterPort	=	0x007f
                     00DC   326 _IOPortL	=	0x00dc
                     00DD   327 _IOPortH	=	0x00dd
                            328 ;--------------------------------------------------------
                            329 ; ram data
                            330 ;--------------------------------------------------------
                            331 	.area _DATA
   0000                     332 __x::
   0000                     333 	.ds 1
   0001                     334 __y::
   0001                     335 	.ds 1
   0002                     336 __n::
   0002                     337 	.ds 1
   0003                     338 __t::
   0003                     339 	.ds 1
   0004                     340 _pad0::
   0004                     341 	.ds 2
   0006                     342 _pad_this_frame::
   0006                     343 	.ds 2
   0008                     344 _gpit::
   0008                     345 	.ds 1
   0009                     346 _gpjt::
   0009                     347 	.ds 1
   000A                     348 _rds16::
   000A                     349 	.ds 2
   000C                     350 _gp_gen::
   000C                     351 	.ds 2
   000E                     352 _gp_tmap::
   000E                     353 	.ds 2
   0010                     354 _gp_ram::
   0010                     355 	.ds 2
   0012                     356 _gp_addr::
   0012                     357 	.ds 2
   0014                     358 _rdx::
   0014                     359 	.ds 1
   0015                     360 _rdy::
   0015                     361 	.ds 1
   0016                     362 _rdt::
   0016                     363 	.ds 1
   0017                     364 _rdit::
   0017                     365 	.ds 1
   0018                     366 _rda::
   0018                     367 	.ds 1
   0019                     368 _rdb::
   0019                     369 	.ds 1
   001A                     370 _rdc::
   001A                     371 	.ds 1
   001B                     372 _rdd::
   001B                     373 	.ds 1
   001C                     374 _rdm::
   001C                     375 	.ds 1
   001D                     376 _rds::
   001D                     377 	.ds 1
   001E                     378 _rdct::
   001E                     379 	.ds 1
   001F                     380 _ticker::
   001F                     381 	.ds 1
   0020                     382 _at1::
   0020                     383 	.ds 1
   0021                     384 _at2::
   0021                     385 	.ds 1
   0022                     386 _cx1::
   0022                     387 	.ds 1
   0023                     388 _cx2::
   0023                     389 	.ds 1
   0024                     390 _cy1::
   0024                     391 	.ds 1
   0025                     392 _cy2::
   0025                     393 	.ds 1
   0026                     394 _caux::
   0026                     395 	.ds 1
   0027                     396 _cur_stp::
   0027                     397 	.ds 2
   0029                     398 _en_initial::
   0029                     399 	.ds 1
   002A                     400 _en_offs::
   002A                     401 	.ds 1
   002B                     402 _en_fr::
   002B                     403 	.ds 1
   002C                     404 _en_collx::
   002C                     405 	.ds 1
   002D                     406 _en_colly::
   002D                     407 	.ds 1
   002E                     408 _en_spr::
   002E                     409 	.ds 1
   002F                     410 _touched::
   002F                     411 	.ds 1
   0030                     412 _en_is_alive::
   0030                     413 	.ds 1
   0031                     414 _pregotten::
   0031                     415 	.ds 1
   0032                     416 __en_t::
   0032                     417 	.ds 1
   0033                     418 __en_s::
   0033                     419 	.ds 1
   0034                     420 __en_x::
   0034                     421 	.ds 1
   0035                     422 __en_y::
   0035                     423 	.ds 1
   0036                     424 __en_x1::
   0036                     425 	.ds 1
   0037                     426 __en_y1::
   0037                     427 	.ds 1
   0038                     428 __en_x2::
   0038                     429 	.ds 1
   0039                     430 __en_y2::
   0039                     431 	.ds 1
   003A                     432 __en_mx::
   003A                     433 	.ds 1
   003B                     434 __en_my::
   003B                     435 	.ds 1
   003C                     436 __en_ct::
   003C                     437 	.ds 1
   003D                     438 __en_facing::
   003D                     439 	.ds 1
   003E                     440 __en_state::
   003E                     441 	.ds 1
   003F                     442 __enf_x::
   003F                     443 	.ds 2
   0041                     444 __enf_y::
   0041                     445 	.ds 2
   0043                     446 __enf_vx::
   0043                     447 	.ds 2
   0045                     448 __enf_vy::
   0045                     449 	.ds 2
   0047                     450 _en_sg_1::
   0047                     451 	.ds 1
   0048                     452 _en_sg_2::
   0048                     453 	.ds 1
   0049                     454 _vertical_engine_type::
   0049                     455 	.ds 1
   004A                     456 _px::
   004A                     457 	.ds 2
   004C                     458 _py::
   004C                     459 	.ds 2
   004E                     460 _pvx::
   004E                     461 	.ds 2
   0050                     462 _pvy::
   0050                     463 	.ds 2
   0052                     464 _prx::
   0052                     465 	.ds 1
   0053                     466 _pry::
   0053                     467 	.ds 1
   0054                     468 _pcx::
   0054                     469 	.ds 1
   0055                     470 _pcy::
   0055                     471 	.ds 1
   0056                     472 _pfacing::
   0056                     473 	.ds 1
   0057                     474 _pfr::
   0057                     475 	.ds 1
   0058                     476 _psprid::
   0058                     477 	.ds 1
   0059                     478 _a_button::
   0059                     479 	.ds 1
   005A                     480 _b_button::
   005A                     481 	.ds 1
   005B                     482 _pj::
   005B                     483 	.ds 1
   005C                     484 _pctj::
   005C                     485 	.ds 1
   005D                     486 _pgotten::
   005D                     487 	.ds 1
   005E                     488 _ppossee::
   005E                     489 	.ds 1
   005F                     490 _oppossee::
   005F                     491 	.ds 1
   0060                     492 _pflickering::
   0060                     493 	.ds 1
   0061                     494 _pbouncing::
   0061                     495 	.ds 1
   0062                     496 _phit::
   0062                     497 	.ds 1
   0063                     498 _pgtmx::
   0063                     499 	.ds 2
   0065                     500 _pgtmy::
   0065                     501 	.ds 2
   0067                     502 _hitv::
   0067                     503 	.ds 1
   0068                     504 _hith::
   0068                     505 	.ds 1
   0069                     506 _prx_old::
   0069                     507 	.ds 1
   006A                     508 _pry_old::
   006A                     509 	.ds 1
   006B                     510 _pkill::
   006B                     511 	.ds 1
   006C                     512 _pice::
   006C                     513 	.ds 1
   006D                     514 _pnotsafe::
   006D                     515 	.ds 1
   006E                     516 _pcontinues::
   006E                     517 	.ds 1
   006F                     518 _plife::
   006F                     519 	.ds 1
   0070                     520 _pkeys::
   0070                     521 	.ds 1
   0071                     522 _pobjs::
   0071                     523 	.ds 1
   0072                     524 _pammo::
   0072                     525 	.ds 1
   0073                     526 _pkilled::
   0073                     527 	.ds 1
   0074                     528 _pfiring::
   0074                     529 	.ds 1
   0075                     530 _n_pant_safe::
   0075                     531 	.ds 1
   0076                     532 _px_safe::
   0076                     533 	.ds 2
   0078                     534 _py_safe::
   0078                     535 	.ds 2
   007A                     536 _hrx::
   007A                     537 	.ds 1
   007B                     538 _hry::
   007B                     539 	.ds 1
   007C                     540 _hrt::
   007C                     541 	.ds 1
   007D                     542 _do_process_breakable::
   007D                     543 	.ds 1
   007E                     544 _ft::
   007E                     545 	.ds 1
   007F                     546 _c_map_w::
   007F                     547 	.ds 1
   0080                     548 _c_map_h::
   0080                     549 	.ds 1
   0081                     550 _c_map_size::
   0081                     551 	.ds 1
   0082                     552 _c_ts_pals::
   0082                     553 	.ds 2
   0084                     554 _c_ts_tmaps::
   0084                     555 	.ds 2
   0086                     556 _c_behs::
   0086                     557 	.ds 2
   0088                     558 _spr_enems::
   0088                     559 	.ds 2
   008A                     560 _c_pal_bg::
   008A                     561 	.ds 2
   008C                     562 _c_pal_fg::
   008C                     563 	.ds 2
   008E                     564 _c_map::
   008E                     565 	.ds 2
   0090                     566 _c_decos::
   0090                     567 	.ds 1
   0091                     568 _c_locks::
   0091                     569 	.ds 2
   0093                     570 _c_enems::
   0093                     571 	.ds 2
   0095                     572 _c_hotspots::
   0095                     573 	.ds 2
   0097                     574 _c_max_bolts::
   0097                     575 	.ds 1
   0098                     576 _ntsc::
   0098                     577 	.ds 1
   0099                     578 _ntsc_frame::
   0099                     579 	.ds 1
   009A                     580 _update_index::
   009A                     581 	.ds 1
   009B                     582 _update_list::
   009B                     583 	.ds 96
   00FB                     584 _fader::
   00FB                     585 	.ds 1
   00FC                     586 _fade_delay::
   00FC                     587 	.ds 1
   00FD                     588 _map_buff::
   00FD                     589 	.ds 192
   01BD                     590 _first_game::
   01BD                     591 	.ds 1
   01BE                     592 _level::
   01BE                     593 	.ds 1
   01BF                     594 _c_max_enems::
   01BF                     595 	.ds 1
   01C0                     596 _n_pant::
   01C0                     597 	.ds 1
   01C1                     598 _on_pant::
   01C1                     599 	.ds 1
   01C2                     600 _half_life::
   01C2                     601 	.ds 1
   01C3                     602 _frame_counter::
   01C3                     603 	.ds 1
   01C4                     604 _paused::
   01C4                     605 	.ds 1
   01C5                     606 _win_level::
   01C5                     607 	.ds 1
   01C6                     608 _game_over::
   01C6                     609 	.ds 1
   01C7                     610 _warp_to_level::
   01C7                     611 	.ds 1
   01C8                     612 _level_reset::
   01C8                     613 	.ds 1
   01C9                     614 _flick_override::
   01C9                     615 	.ds 1
   01CA                     616 _olife::
   01CA                     617 	.ds 1
   01CB                     618 _okeys::
   01CB                     619 	.ds 1
   01CC                     620 _oobjs::
   01CC                     621 	.ds 1
   01CD                     622 _oammo::
   01CD                     623 	.ds 1
   01CE                     624 _okilled::
   01CE                     625 	.ds 1
   01CF                     626 _oam_index_player::
   01CF                     627 	.ds 1
   01D0                     628 _no_ct::
   01D0                     629 	.ds 1
   01D1                     630 _pctfr::
   01D1                     631 	.ds 1
   01D2                     632 _hact::
   01D2                     633 	.ds 24
   01EA                     634 _lkact::
   01EA                     635 	.ds 16
   01FA                     636 _flags::
   01FA                     637 	.ds 2
   01FC                     638 _en_t::
   01FC                     639 	.ds 3
   01FF                     640 _en_x::
   01FF                     641 	.ds 3
   0202                     642 _en_y::
   0202                     643 	.ds 3
   0205                     644 _en_x1::
   0205                     645 	.ds 3
   0208                     646 _en_y1::
   0208                     647 	.ds 3
   020B                     648 _en_x2::
   020B                     649 	.ds 3
   020E                     650 _en_y2::
   020E                     651 	.ds 3
   0211                     652 _en_mx::
   0211                     653 	.ds 3
   0214                     654 _en_my::
   0214                     655 	.ds 3
   0217                     656 _en_s::
   0217                     657 	.ds 3
   021A                     658 _en_facing::
   021A                     659 	.ds 3
   021D                     660 _en_state::
   021D                     661 	.ds 3
   0220                     662 _en_flags::
   0220                     663 	.ds 3
   0223                     664 _en_cttouched::
   0223                     665 	.ds 3
   0226                     666 _en_life::
   0226                     667 	.ds 3
   0229                     668 _en_status::
   0229                     669 	.ds 3
   022C                     670 _en_ct::
   022C                     671 	.ds 3
   022F                     672 _en_spr_x_mod::
   022F                     673 	.ds 1
   0230                     674 _enf_x::
   0230                     675 	.ds 6
   0236                     676 _enf_vx::
   0236                     677 	.ds 6
   023C                     678 _enf_y::
   023C                     679 	.ds 6
   0242                     680 _enf_vy::
   0242                     681 	.ds 6
   0248                     682 _en_spr_id::
   0248                     683 	.ds 3
   024B                     684 _ep_dead::
   024B                     685 	.ds 72
   0293                     686 _max_chac_chacs::
   0293                     687 	.ds 1
   0294                     688 _chac_chacs_yx::
   0294                     689 	.ds 4
   0298                     690 _chac_chacs_state::
   0298                     691 	.ds 4
   029C                     692 _chac_chacs_idlewait::
   029C                     693 	.ds 4
   02A0                     694 _chac_chacs_ct::
   02A0                     695 	.ds 4
   02A4                     696 _chac_chacs_queue::
   02A4                     697 	.ds 16
   02B4                     698 _chac_chacs_queue_read::
   02B4                     699 	.ds 1
   02B5                     700 _chac_chacs_queue_write::
   02B5                     701 	.ds 1
   02B6                     702 _res_disable::
   02B6                     703 	.ds 1
   02B7                     704 _res_on::
   02B7                     705 	.ds 1
   02B8                     706 _res_ct::
   02B8                     707 	.ds 1
   02B9                     708 _res_subct::
   02B9                     709 	.ds 1
   02BA                     710 _cfx::
   02BA                     711 	.ds 1
   02BB                     712 _springs_on::
   02BB                     713 	.ds 1
   02BC                     714 _shaker_ct::
   02BC                     715 	.ds 1
   02BD                     716 _mode_no_resonators::
   02BD                     717 	.ds 1
   02BE                     718 _game_mode::
   02BE                     719 	.ds 1
                            720 ;--------------------------------------------------------
                            721 ; ram data
                            722 ;--------------------------------------------------------
                            723 	.area _INITIALIZED
                            724 ;--------------------------------------------------------
                            725 ; absolute external ram data
                            726 ;--------------------------------------------------------
                            727 	.area _DABS (ABS)
                            728 ;--------------------------------------------------------
                            729 ; global & static initialisations
                            730 ;--------------------------------------------------------
                            731 	.area _HOME
                            732 	.area _GSINIT
                            733 	.area _GSFINAL
                            734 	.area _GSINIT
                            735 ;--------------------------------------------------------
                            736 ; Home
                            737 ;--------------------------------------------------------
                            738 	.area _HOME
                            739 	.area _HOME
                            740 ;--------------------------------------------------------
                            741 ; code
                            742 ;--------------------------------------------------------
                            743 	.area _CODE
                            744 ;engine/printer.h:8: void clear_update_list (void) {
                            745 ;	---------------------------------
                            746 ; Function clear_update_list
                            747 ; ---------------------------------
   0000                     748 _clear_update_list::
                            749 ;engine/printer.h:9: memfill (update_list, 0, UPDATE_LIST_SIZE*3);
   0000 11r9Br00      [10]  750 	ld	de,#_update_list
   0003 21 60 00      [10]  751 	ld	hl,#0x0060
   0006 E5            [11]  752 	push	hl
   0007 AF            [ 4]  753 	xor	a, a
   0008 F5            [11]  754 	push	af
   0009 33            [ 6]  755 	inc	sp
   000A D5            [11]  756 	push	de
   000B CDr00r00      [17]  757 	call	_memfill
   000E F1            [10]  758 	pop	af
   000F F1            [10]  759 	pop	af
   0010 33            [ 6]  760 	inc	sp
                            761 ;engine/printer.h:10: update_index = 0;
   0011 21r9Ar00      [10]  762 	ld	hl,#_update_index + 0
   0014 36 00         [10]  763 	ld	(hl), #0x00
   0016 C9            [10]  764 	ret
   0017                     765 _chac_chacs_times:
   0017 00                  766 	.db #0x00	; 0
   0018 10                  767 	.db #0x10	; 16
   0019 01                  768 	.db #0x01	; 1
   001A 32                  769 	.db #0x32	; 50	'2'
   001B 01                  770 	.db #0x01	; 1
   001C 01                  771 	.db #0x01	; 1
   001D                     772 _chac_chacs_t1:
   001D 26                  773 	.db #0x26	; 38
   001E 20                  774 	.db #0x20	; 32
   001F 22                  775 	.db #0x22	; 34
   0020 25                  776 	.db #0x25	; 37
   0021 22                  777 	.db #0x22	; 34
   0022 20                  778 	.db #0x20	; 32
   0023                     779 _chac_chacs_t2:
   0023 26                  780 	.db #0x26	; 38
   0024 26                  781 	.db #0x26	; 38
   0025 26                  782 	.db #0x26	; 38
   0026 24                  783 	.db #0x24	; 36
   0027 26                  784 	.db #0x26	; 38
   0028 26                  785 	.db #0x26	; 38
   0029                     786 _chac_chacs_t3:
   0029 26                  787 	.db #0x26	; 38
   002A 21                  788 	.db #0x21	; 33
   002B 23                  789 	.db #0x23	; 35
   002C 25                  790 	.db #0x25	; 37
   002D 23                  791 	.db #0x23	; 35
   002E 21                  792 	.db #0x21	; 33
   002F                     793 _bits:
   002F 01                  794 	.db #0x01	; 1
   0030 02                  795 	.db #0x02	; 2
   0031 04                  796 	.db #0x04	; 4
   0032 08                  797 	.db #0x08	; 8
   0033 10                  798 	.db #0x10	; 16
   0034 20                  799 	.db #0x20	; 32
   0035 40                  800 	.db #0x40	; 64
   0036 80                  801 	.db #0x80	; 128
   0037                     802 _jitter:
   0037 00                  803 	.db #0x00	; 0
   0038 01                  804 	.db #0x01	; 1
   0039 01                  805 	.db #0x01	; 1
   003A 00                  806 	.db #0x00	; 0
   003B 00                  807 	.db #0x00	; 0
   003C 01                  808 	.db #0x01	; 1
   003D 00                  809 	.db #0x00	; 0
   003E 01                  810 	.db #0x01	; 1
   003F 01                  811 	.db #0x01	; 1
   0040 00                  812 	.db #0x00	; 0
   0041 00                  813 	.db #0x00	; 0
   0042 00                  814 	.db #0x00	; 0
   0043 01                  815 	.db #0x01	; 1
   0044 00                  816 	.db #0x00	; 0
   0045 01                  817 	.db #0x01	; 1
   0046 01                  818 	.db #0x01	; 1
   0047                     819 _behs0:
   0047 00                  820 	.db #0x00	; 0
   0048 00                  821 	.db #0x00	; 0
   0049 00                  822 	.db #0x00	; 0
   004A 00                  823 	.db #0x00	; 0
   004B 08                  824 	.db #0x08	; 8
   004C 08                  825 	.db #0x08	; 8
   004D 08                  826 	.db #0x08	; 8
   004E 08                  827 	.db #0x08	; 8
   004F 00                  828 	.db #0x00	; 0
   0050 08                  829 	.db #0x08	; 8
   0051 00                  830 	.db #0x00	; 0
   0052 00                  831 	.db #0x00	; 0
   0053 01                  832 	.db #0x01	; 1
   0054 08                  833 	.db #0x08	; 8
   0055 04                  834 	.db #0x04	; 4
   0056 0A                  835 	.db #0x0A	; 10
   0057 00                  836 	.db #0x00	; 0
   0058 00                  837 	.db #0x00	; 0
   0059 00                  838 	.db #0x00	; 0
   005A 00                  839 	.db #0x00	; 0
   005B 08                  840 	.db #0x08	; 8
   005C 08                  841 	.db #0x08	; 8
   005D 08                  842 	.db #0x08	; 8
   005E 08                  843 	.db #0x08	; 8
   005F 00                  844 	.db #0x00	; 0
   0060 08                  845 	.db #0x08	; 8
   0061 00                  846 	.db #0x00	; 0
   0062 00                  847 	.db #0x00	; 0
   0063 01                  848 	.db #0x01	; 1
   0064 08                  849 	.db #0x08	; 8
   0065 04                  850 	.db #0x04	; 4
   0066 0A                  851 	.db #0x0A	; 10
   0067                     852 _behs1:
   0067 00                  853 	.db #0x00	; 0
   0068 00                  854 	.db #0x00	; 0
   0069 00                  855 	.db #0x00	; 0
   006A 00                  856 	.db #0x00	; 0
   006B 08                  857 	.db #0x08	; 8
   006C 04                  858 	.db #0x04	; 4
   006D 08                  859 	.db #0x08	; 8
   006E 04                  860 	.db #0x04	; 4
   006F 28                  861 	.db #0x28	; 40
   0070 29                  862 	.db #0x29	; 41
   0071 01                  863 	.db #0x01	; 1
   0072 01                  864 	.db #0x01	; 1
   0073 01                  865 	.db #0x01	; 1
   0074 08                  866 	.db #0x08	; 8
   0075 08                  867 	.db #0x08	; 8
   0076 0A                  868 	.db #0x0A	; 10
   0077 00                  869 	.db #0x00	; 0
   0078 00                  870 	.db #0x00	; 0
   0079 00                  871 	.db #0x00	; 0
   007A 00                  872 	.db #0x00	; 0
   007B 08                  873 	.db #0x08	; 8
   007C 04                  874 	.db #0x04	; 4
   007D 08                  875 	.db #0x08	; 8
   007E 04                  876 	.db #0x04	; 4
   007F 28                  877 	.db #0x28	; 40
   0080 29                  878 	.db #0x29	; 41
   0081 01                  879 	.db #0x01	; 1
   0082 01                  880 	.db #0x01	; 1
   0083 01                  881 	.db #0x01	; 1
   0084 08                  882 	.db #0x08	; 8
   0085 08                  883 	.db #0x08	; 8
   0086 08                  884 	.db #0x08	; 8
   0087                     885 _behs2:
   0087 00                  886 	.db #0x00	; 0
   0088 08                  887 	.db #0x08	; 8
   0089 00                  888 	.db #0x00	; 0
   008A 00                  889 	.db #0x00	; 0
   008B 08                  890 	.db #0x08	; 8
   008C 08                  891 	.db #0x08	; 8
   008D 08                  892 	.db #0x08	; 8
   008E 08                  893 	.db #0x08	; 8
   008F 00                  894 	.db #0x00	; 0
   0090 08                  895 	.db #0x08	; 8
   0091 04                  896 	.db #0x04	; 4
   0092 08                  897 	.db #0x08	; 8
   0093 01                  898 	.db #0x01	; 1
   0094 01                  899 	.db #0x01	; 1
   0095 08                  900 	.db #0x08	; 8
   0096 0A                  901 	.db #0x0A	; 10
   0097 00                  902 	.db #0x00	; 0
   0098 08                  903 	.db #0x08	; 8
   0099 00                  904 	.db #0x00	; 0
   009A 00                  905 	.db #0x00	; 0
   009B 08                  906 	.db #0x08	; 8
   009C 08                  907 	.db #0x08	; 8
   009D 08                  908 	.db #0x08	; 8
   009E 08                  909 	.db #0x08	; 8
   009F 00                  910 	.db #0x00	; 0
   00A0 08                  911 	.db #0x08	; 8
   00A1 04                  912 	.db #0x04	; 4
   00A2 08                  913 	.db #0x08	; 8
   00A3 01                  914 	.db #0x01	; 1
   00A4 01                  915 	.db #0x01	; 1
   00A5 08                  916 	.db #0x08	; 8
   00A6 0A                  917 	.db #0x0A	; 10
   00A7 00                  918 	.db #0x00	; 0
   00A8 00                  919 	.db #0x00	; 0
   00A9 01                  920 	.db #0x01	; 1
   00AA 01                  921 	.db #0x01	; 1
   00AB 01                  922 	.db #0x01	; 1
   00AC 01                  923 	.db #0x01	; 1
   00AD 00                  924 	.db #0x00	; 0
   00AE                     925 _spr_player:
   00AEr00r00               926 	.dw _ss_pl_00
   00B0r00r00               927 	.dw _ss_pl_00
   00B2r00r00               928 	.dw _ss_pl_01
   00B4r00r00               929 	.dw _ss_pl_00
   00B6r00r00               930 	.dw _ss_pl_02
   00B8r00r00               931 	.dw _ss_pl_03
   00BA 00 00               932 	.dw #0x0000
   00BC 00 00               933 	.dw #0x0000
   00BEr00r00               934 	.dw _ss_pl_04
   00C0r00r00               935 	.dw _ss_pl_04
   00C2r00r00               936 	.dw _ss_pl_06
   00C4r00r00               937 	.dw _ss_pl_04
   00C6r00r00               938 	.dw _ss_pl_05
   00C8r00r00               939 	.dw _ss_pl_07
   00CA 00 00               940 	.dw #0x0000
   00CC 00 00               941 	.dw #0x0000
   00CE                     942 _spr_enems0:
   00CEr00r00               943 	.dw _ss_en_0_00
   00D0r00r00               944 	.dw _ss_en_0_01
   00D2 00 00               945 	.dw #0x0000
   00D4 00 00               946 	.dw #0x0000
   00D6r00r00               947 	.dw _ss_en_0_02
   00D8r00r00               948 	.dw _ss_en_0_03
   00DA 00 00               949 	.dw #0x0000
   00DC 00 00               950 	.dw #0x0000
   00DEr00r00               951 	.dw _ss_en_0_04
   00E0r00r00               952 	.dw _ss_en_0_05
   00E2 00 00               953 	.dw #0x0000
   00E4 00 00               954 	.dw #0x0000
   00E6r00r00               955 	.dw _ss_en_0_06
   00E8r00r00               956 	.dw _ss_en_0_07
   00EA 00 00               957 	.dw #0x0000
   00EC 00 00               958 	.dw #0x0000
   00EEr00r00               959 	.dw _ss_en_0_08
   00F0r00r00               960 	.dw _ss_en_0_09
   00F2 00 00               961 	.dw #0x0000
   00F4 00 00               962 	.dw #0x0000
   00F6r00r00               963 	.dw _ss_en_0_0a
   00F8r00r00               964 	.dw _ss_en_0_0b
   00FA 00 00               965 	.dw #0x0000
   00FC 00 00               966 	.dw #0x0000
   00FEr00r00               967 	.dw _ss_plat_00
   0100r00r00               968 	.dw _ss_plat_01
   0102 00 00               969 	.dw #0x0000
   0104 00 00               970 	.dw #0x0000
   0106r00r00               971 	.dw _ss_plat_00
   0108r00r00               972 	.dw _ss_plat_01
   010A 00 00               973 	.dw #0x0000
   010C 00 00               974 	.dw #0x0000
   010Er00r00               975 	.dw _ss_fanty_00
   0110r00r00               976 	.dw _ss_fanty_01
   0112 00 00               977 	.dw #0x0000
   0114 00 00               978 	.dw #0x0000
   0116r00r00               979 	.dw _ss_fanty_02
   0118r00r00               980 	.dw _ss_fanty_03
   011A 00 00               981 	.dw #0x0000
   011C 00 00               982 	.dw #0x0000
   011Er00r00               983 	.dw _ss_it_04
   0120                     984 _spr_enems1:
   0120r00r00               985 	.dw _ss_en_1_00
   0122r00r00               986 	.dw _ss_en_1_01
   0124 00 00               987 	.dw #0x0000
   0126 00 00               988 	.dw #0x0000
   0128r00r00               989 	.dw _ss_en_1_02
   012Ar00r00               990 	.dw _ss_en_1_03
   012C 00 00               991 	.dw #0x0000
   012E 00 00               992 	.dw #0x0000
   0130r00r00               993 	.dw _ss_en_1_04
   0132r00r00               994 	.dw _ss_en_1_05
   0134 00 00               995 	.dw #0x0000
   0136 00 00               996 	.dw #0x0000
   0138r00r00               997 	.dw _ss_en_1_06
   013Ar00r00               998 	.dw _ss_en_1_07
   013C 00 00               999 	.dw #0x0000
   013E 00 00              1000 	.dw #0x0000
   0140r00r00              1001 	.dw _ss_en_1_08
   0142r00r00              1002 	.dw _ss_en_1_09
   0144 00 00              1003 	.dw #0x0000
   0146 00 00              1004 	.dw #0x0000
   0148r00r00              1005 	.dw _ss_en_1_0a
   014Ar00r00              1006 	.dw _ss_en_1_0b
   014C 00 00              1007 	.dw #0x0000
   014E 00 00              1008 	.dw #0x0000
   0150r00r00              1009 	.dw _ss_plat_00
   0152r00r00              1010 	.dw _ss_plat_01
   0154 00 00              1011 	.dw #0x0000
   0156 00 00              1012 	.dw #0x0000
   0158r00r00              1013 	.dw _ss_plat_00
   015Ar00r00              1014 	.dw _ss_plat_01
   015C 00 00              1015 	.dw #0x0000
   015E 00 00              1016 	.dw #0x0000
   0160r00r00              1017 	.dw _ss_fanty_00
   0162r00r00              1018 	.dw _ss_fanty_01
   0164 00 00              1019 	.dw #0x0000
   0166 00 00              1020 	.dw #0x0000
   0168r00r00              1021 	.dw _ss_fanty_02
   016Ar00r00              1022 	.dw _ss_fanty_03
   016C 00 00              1023 	.dw #0x0000
   016E 00 00              1024 	.dw #0x0000
   0170r00r00              1025 	.dw _ss_it_04
   0172                    1026 _spr_enems2:
   0172r00r00              1027 	.dw _ss_en_2_00
   0174r00r00              1028 	.dw _ss_en_2_01
   0176 00 00              1029 	.dw #0x0000
   0178 00 00              1030 	.dw #0x0000
   017Ar00r00              1031 	.dw _ss_en_2_02
   017Cr00r00              1032 	.dw _ss_en_2_03
   017E 00 00              1033 	.dw #0x0000
   0180 00 00              1034 	.dw #0x0000
   0182r00r00              1035 	.dw _ss_en_2_04
   0184r00r00              1036 	.dw _ss_en_2_05
   0186 00 00              1037 	.dw #0x0000
   0188 00 00              1038 	.dw #0x0000
   018Ar00r00              1039 	.dw _ss_en_2_06
   018Cr00r00              1040 	.dw _ss_en_2_07
   018E 00 00              1041 	.dw #0x0000
   0190 00 00              1042 	.dw #0x0000
   0192r00r00              1043 	.dw _ss_en_2_08
   0194r00r00              1044 	.dw _ss_en_2_09
   0196 00 00              1045 	.dw #0x0000
   0198 00 00              1046 	.dw #0x0000
   019Ar00r00              1047 	.dw _ss_en_2_08
   019Cr00r00              1048 	.dw _ss_en_2_09
   019E 00 00              1049 	.dw #0x0000
   01A0 00 00              1050 	.dw #0x0000
   01A2r00r00              1051 	.dw _ss_plat_00
   01A4r00r00              1052 	.dw _ss_plat_01
   01A6 00 00              1053 	.dw #0x0000
   01A8 00 00              1054 	.dw #0x0000
   01AAr00r00              1055 	.dw _ss_plat_00
   01ACr00r00              1056 	.dw _ss_plat_01
   01AE 00 00              1057 	.dw #0x0000
   01B0 00 00              1058 	.dw #0x0000
   01B2r00r00              1059 	.dw _ss_fanty_00
   01B4r00r00              1060 	.dw _ss_fanty_01
   01B6 00 00              1061 	.dw #0x0000
   01B8 00 00              1062 	.dw #0x0000
   01BAr00r00              1063 	.dw _ss_fanty_02
   01BCr00r00              1064 	.dw _ss_fanty_03
   01BE 00 00              1065 	.dw #0x0000
   01C0 00 00              1066 	.dw #0x0000
   01C2r00r00              1067 	.dw _ss_it_04
   01C4                    1068 _spr_hs:
   01C4 00 00              1069 	.dw #0x0000
   01C6 00 00              1070 	.dw #0x0000
   01C8r00r00              1071 	.dw _ss_it_01
   01CAr00r00              1072 	.dw _ss_it_00
   01CCr00r00              1073 	.dw _ss_it_02
   01CEr00r00              1074 	.dw _ss_it_03
   01D0                    1075 _l_scr_ini:
   01D0 14                 1076 	.db #0x14	; 20
   01D1 14                 1077 	.db #0x14	; 20
   01D2 08                 1078 	.db #0x08	; 8
   01D3                    1079 _l_ini_x:
   01D3 02                 1080 	.db #0x02	; 2
   01D4 02                 1081 	.db #0x02	; 2
   01D5 02                 1082 	.db #0x02	; 2
   01D6                    1083 _l_ini_y:
   01D6 07                 1084 	.db #0x07	; 7
   01D7 0A                 1085 	.db #0x0A	; 10
   01D8 03                 1086 	.db #0x03	; 3
   01D9                    1087 _l_map_w:
   01D9 04                 1088 	.db #0x04	; 4
   01DA 04                 1089 	.db #0x04	; 4
   01DB 08                 1090 	.db #0x08	; 8
   01DC                    1091 _l_map_h:
   01DC 06                 1092 	.db #0x06	; 6
   01DD 06                 1093 	.db #0x06	; 6
   01DE 03                 1094 	.db #0x03	; 3
   01DF                    1095 _l_player_max_objects:
   01DF 00                 1096 	.db #0x00	; 0
   01E0 00                 1097 	.db #0x00	; 0
   01E1 00                 1098 	.db #0x00	; 0
   01E2                    1099 _l_player_max_enems:
   01E2 36                 1100 	.db #0x36	; 54	'6'
   01E3 31                 1101 	.db #0x31	; 49	'1'
   01E4 2E                 1102 	.db #0x2E	; 46
   01E5                    1103 _l_ts_patterns:
   01E5r00r00              1104 	.dw _ts0_patterns_c
   01E7r00r00              1105 	.dw _ts1_patterns_c
   01E9r00r00              1106 	.dw _ts2_patterns_c
   01EB                    1107 _l_ts_colours:
   01EBr00r00              1108 	.dw _ts0_colours_c
   01EDr00r00              1109 	.dw _ts1_colours_c
   01EFr00r00              1110 	.dw _ts2_colours_c
   01F1                    1111 _l_ts_tmaps:
   01F1r00r00              1112 	.dw _ts0_tmaps
   01F3r00r00              1113 	.dw _ts1_tmaps
   01F5r00r00              1114 	.dw _ts2_tmaps
   01F7                    1115 _l_behs:
   01F7r47r00              1116 	.dw _behs0
   01F9r67r00              1117 	.dw _behs1
   01FBr87r00              1118 	.dw _behs2
   01FD                    1119 _l_spr_patterns:
   01FDr00r00              1120 	.dw _ss_en_0_patterns_c
   01FFr00r00              1121 	.dw _ss_en_1_patterns_c
   0201r00r00              1122 	.dw _ss_en_2_patterns_c
   0203                    1123 _l_spr_enems:
   0203rCEr00              1124 	.dw _spr_enems0
   0205r20r01              1125 	.dw _spr_enems1
   0207r72r01              1126 	.dw _spr_enems2
   0209                    1127 _l_map:
   0209r00r00              1128 	.dw _map_0
   020Br00r00              1129 	.dw _map_1
   020Dr00r00              1130 	.dw _map_2
   020F                    1131 _l_decos:
   020F 00                 1132 	.db #0x00	; 0
   0210 01                 1133 	.db #0x01	; 1
   0211 01                 1134 	.db #0x01	; 1
   0212                    1135 _l_locks:
   0212r00r00              1136 	.dw _map_0_locks
   0214r00r00              1137 	.dw _map_1_locks
   0216r00r00              1138 	.dw _map_2_locks
   0218                    1139 _l_n_bolts:
   0218 02                 1140 	.db #0x02	; 2
   0219 01                 1141 	.db #0x01	; 1
   021A 02                 1142 	.db #0x02	; 2
   021B                    1143 _l_enems:
   021Br00r00              1144 	.dw _enems_0
   021Dr00r00              1145 	.dw _enems_1
   021Fr00r00              1146 	.dw _enems_2
   0221                    1147 _l_hotspots:
   0221r00r00              1148 	.dw _hotspots_0
   0223r00r00              1149 	.dw _hotspots_1
   0225r00r00              1150 	.dw _hotspots_2
   0227                    1151 _l_music:
   0227 00                 1152 	.db #0x00	; 0
   0228 01                 1153 	.db #0x01	; 1
   0229 02                 1154 	.db #0x02	; 2
                           1155 ;engine/printer.h:13: void cls (void) {
                           1156 ;	---------------------------------
                           1157 ; Function cls
                           1158 ; ---------------------------------
   022A                    1159 _cls::
                           1160 ;engine/printer.h:14: SG_setNextTileatXY (0, 0);
   022A 21 00 00      [10] 1161 	ld	hl,#0x0000
   022D E5            [11] 1162 	push	hl
   022E CDr00r00      [17] 1163 	call	_SG_setNextTileatXY
                           1164 ;engine/printer.h:15: SG_fillTile (0, 768);
   0231 21 00 03      [10] 1165 	ld	hl, #0x0300
   0234 E3            [19] 1166 	ex	(sp),hl
   0235 AF            [ 4] 1167 	xor	a, a
   0236 F5            [11] 1168 	push	af
   0237 33            [ 6] 1169 	inc	sp
   0238 CDr00r00      [17] 1170 	call	_SG_fillTile
   023B F1            [10] 1171 	pop	af
   023C 33            [ 6] 1172 	inc	sp
   023D C9            [10] 1173 	ret
                           1174 ;engine/printer.h:19: void ul_putc (void) {
                           1175 ;	---------------------------------
                           1176 ; Function ul_putc
                           1177 ; ---------------------------------
   023E                    1178 _ul_putc::
                           1179 ;engine/printer.h:20: update_list [update_index++] = MSB (gp_addr);
   023E 21r9Ar00      [10] 1180 	ld	hl,#_update_index + 0
   0241 5E            [ 7] 1181 	ld	e, (hl)
   0242 21r9Ar00      [10] 1182 	ld	hl, #_update_index+0
   0245 34            [11] 1183 	inc	(hl)
   0246 21r9Br00      [10] 1184 	ld	hl,#_update_list
   0249 16 00         [ 7] 1185 	ld	d,#0x00
   024B 19            [11] 1186 	add	hl, de
   024C FD 21r12r00   [14] 1187 	ld	iy,#_gp_addr
   0250 FD 56 01      [19] 1188 	ld	d,1 (iy)
   0253 72            [ 7] 1189 	ld	(hl),d
                           1190 ;engine/printer.h:21: update_list [update_index++] = LSB (gp_addr++);
   0254 21r9Ar00      [10] 1191 	ld	hl,#_update_index + 0
   0257 56            [ 7] 1192 	ld	d, (hl)
   0258 21r9Ar00      [10] 1193 	ld	hl, #_update_index+0
   025B 34            [11] 1194 	inc	(hl)
   025C 3Er9B         [ 7] 1195 	ld	a,#<(_update_list)
   025E 82            [ 4] 1196 	add	a, d
   025F 5F            [ 4] 1197 	ld	e,a
   0260 3Es00         [ 7] 1198 	ld	a,#>(_update_list)
   0262 CE 00         [ 7] 1199 	adc	a, #0x00
   0264 57            [ 4] 1200 	ld	d,a
   0265 ED 4Br12r00   [20] 1201 	ld	bc,(_gp_addr)
   0269 21r12r00      [10] 1202 	ld	hl, #_gp_addr+0
   026C 34            [11] 1203 	inc	(hl)
   026D 20 04         [12] 1204 	jr	NZ,00103$
   026F 21r13r00      [10] 1205 	ld	hl, #_gp_addr+1
   0272 34            [11] 1206 	inc	(hl)
   0273                    1207 00103$:
   0273 79            [ 4] 1208 	ld	a,c
   0274 12            [ 7] 1209 	ld	(de),a
                           1210 ;engine/printer.h:22: update_list [update_index++] = _n;
   0275 21r9Ar00      [10] 1211 	ld	hl,#_update_index + 0
   0278 5E            [ 7] 1212 	ld	e, (hl)
   0279 21r9Ar00      [10] 1213 	ld	hl, #_update_index+0
   027C 34            [11] 1214 	inc	(hl)
   027D 21r9Br00      [10] 1215 	ld	hl,#_update_list
   0280 16 00         [ 7] 1216 	ld	d,#0x00
   0282 19            [11] 1217 	add	hl, de
   0283 3Ar02r00      [13] 1218 	ld	a,(#__n + 0)
   0286 77            [ 7] 1219 	ld	(hl),a
   0287 C9            [10] 1220 	ret
                           1221 ;engine/printer.h:26: void p_t (void) {
                           1222 ;	---------------------------------
                           1223 ; Function p_t
                           1224 ; ---------------------------------
   0288                    1225 _p_t::
                           1226 ;engine/printer.h:27: rda = _n; gp_addr = (_y << 5) + _x + PNTADDRESS;
   0288 3Ar02r00      [13] 1227 	ld	a,(#__n + 0)
   028B 32r18r00      [13] 1228 	ld	(#_rda + 0),a
   028E FD 21r01r00   [14] 1229 	ld	iy,#__y
   0292 FD 6E 00      [19] 1230 	ld	l,0 (iy)
   0295 26 00         [ 7] 1231 	ld	h,#0x00
   0297 29            [11] 1232 	add	hl, hl
   0298 29            [11] 1233 	add	hl, hl
   0299 29            [11] 1234 	add	hl, hl
   029A 29            [11] 1235 	add	hl, hl
   029B 29            [11] 1236 	add	hl, hl
   029C EB            [ 4] 1237 	ex	de,hl
   029D FD 21r00r00   [14] 1238 	ld	iy,#__x
   02A1 FD 6E 00      [19] 1239 	ld	l,0 (iy)
   02A4 26 00         [ 7] 1240 	ld	h,#0x00
   02A6 19            [11] 1241 	add	hl,de
   02A7 EB            [ 4] 1242 	ex	de,hl
   02A8 21 00 18      [10] 1243 	ld	hl,#0x1800
   02AB 19            [11] 1244 	add	hl,de
   02AC 22r12r00      [16] 1245 	ld	(_gp_addr),hl
                           1246 ;engine/printer.h:28: _n = ((rda/10)+16); ul_putc ();
   02AF 3E 0A         [ 7] 1247 	ld	a,#0x0A
   02B1 F5            [11] 1248 	push	af
   02B2 33            [ 6] 1249 	inc	sp
   02B3 3Ar18r00      [13] 1250 	ld	a,(_rda)
   02B6 F5            [11] 1251 	push	af
   02B7 33            [ 6] 1252 	inc	sp
   02B8 CDr00r00      [17] 1253 	call	__divuchar
   02BB F1            [10] 1254 	pop	af
   02BC 7D            [ 4] 1255 	ld	a,l
   02BD 21r02r00      [10] 1256 	ld	hl,#__n
   02C0 C6 10         [ 7] 1257 	add	a, #0x10
   02C2 77            [ 7] 1258 	ld	(hl),a
   02C3 CDr3Er02      [17] 1259 	call	_ul_putc
                           1260 ;engine/printer.h:29: _n = ((rda%10)+16); ul_putc ();
   02C6 3E 0A         [ 7] 1261 	ld	a,#0x0A
   02C8 F5            [11] 1262 	push	af
   02C9 33            [ 6] 1263 	inc	sp
   02CA 3Ar18r00      [13] 1264 	ld	a,(_rda)
   02CD F5            [11] 1265 	push	af
   02CE 33            [ 6] 1266 	inc	sp
   02CF CDr00r00      [17] 1267 	call	__moduchar
   02D2 F1            [10] 1268 	pop	af
   02D3 7D            [ 4] 1269 	ld	a,l
   02D4 21r02r00      [10] 1270 	ld	hl,#__n
   02D7 C6 10         [ 7] 1271 	add	a, #0x10
   02D9 77            [ 7] 1272 	ld	(hl),a
   02DA C3r3Er02      [10] 1273 	jp  _ul_putc
                           1274 ;engine/printer.h:34: void draw_tile (void) {
                           1275 ;	---------------------------------
                           1276 ; Function draw_tile
                           1277 ; ---------------------------------
   02DD                    1278 _draw_tile::
                           1279 ;engine/printer.h:38: gp_tmap = c_ts_tmaps + (_t << 2);
   02DD FD 21r03r00   [14] 1280 	ld	iy,#__t
   02E1 FD 6E 00      [19] 1281 	ld	l,0 (iy)
   02E4 26 00         [ 7] 1282 	ld	h,#0x00
   02E6 29            [11] 1283 	add	hl, hl
   02E7 29            [11] 1284 	add	hl, hl
   02E8 55            [ 4] 1285 	ld	d,l
   02E9 5C            [ 4] 1286 	ld	e,h
   02EA 21r0Er00      [10] 1287 	ld	hl,#_gp_tmap
   02ED 3Ar84r00      [13] 1288 	ld	a,(#_c_ts_tmaps + 0)
   02F0 82            [ 4] 1289 	add	a, d
   02F1 77            [ 7] 1290 	ld	(hl),a
   02F2 3Ar85r00      [13] 1291 	ld	a,(#_c_ts_tmaps + 1)
   02F5 8B            [ 4] 1292 	adc	a, e
   02F6 23            [ 6] 1293 	inc	hl
   02F7 77            [ 7] 1294 	ld	(hl),a
                           1295 ;engine/printer.h:39: gp_addr = (_y << 5) + _x + PNTADDRESS;
   02F8 FD 21r01r00   [14] 1296 	ld	iy,#__y
   02FC FD 6E 00      [19] 1297 	ld	l,0 (iy)
   02FF 26 00         [ 7] 1298 	ld	h,#0x00
   0301 29            [11] 1299 	add	hl, hl
   0302 29            [11] 1300 	add	hl, hl
   0303 29            [11] 1301 	add	hl, hl
   0304 29            [11] 1302 	add	hl, hl
   0305 29            [11] 1303 	add	hl, hl
   0306 EB            [ 4] 1304 	ex	de,hl
   0307 FD 21r00r00   [14] 1305 	ld	iy,#__x
   030B FD 6E 00      [19] 1306 	ld	l,0 (iy)
   030E 26 00         [ 7] 1307 	ld	h,#0x00
   0310 19            [11] 1308 	add	hl,de
   0311 EB            [ 4] 1309 	ex	de,hl
   0312 21 00 18      [10] 1310 	ld	hl,#0x1800
   0315 19            [11] 1311 	add	hl,de
   0316 22r12r00      [16] 1312 	ld	(_gp_addr),hl
                           1313 ;engine/printer.h:41: if (_y == TOP_ADJUST) {
   0319 3Ar01r00      [13] 1314 	ld	a,(#__y + 0)
   031C 3D            [ 4] 1315 	dec	a
   031D 20 0E         [12] 1316 	jr	NZ,00102$
                           1317 ;engine/printer.h:42: gp_tmap += 2;		
   031F 21r0Er00      [10] 1318 	ld	hl,#_gp_tmap
   0322 7E            [ 7] 1319 	ld	a,(hl)
   0323 C6 02         [ 7] 1320 	add	a, #0x02
   0325 77            [ 7] 1321 	ld	(hl),a
   0326 23            [ 6] 1322 	inc	hl
   0327 7E            [ 7] 1323 	ld	a,(hl)
   0328 CE 00         [ 7] 1324 	adc	a, #0x00
   032A 77            [ 7] 1325 	ld	(hl),a
   032B 18 2C         [12] 1326 	jr	00103$
   032D                    1327 00102$:
                           1328 ;engine/printer.h:44: VDPControlPort = LO (gp_addr); VDPControlPort = HI (gp_addr) | 0x40;
   032D 3Ar12r00      [13] 1329 	ld	a,(#_gp_addr + 0)
   0330 D3 BF         [11] 1330 	out	(_VDPControlPort),a
   0332 3Ar13r00      [13] 1331 	ld	a,(#_gp_addr + 1)
   0335 CB F7         [ 8] 1332 	set	6, a
   0337 D3 BF         [11] 1333 	out	(_VDPControlPort),a
                           1334 ;engine/printer.h:45: VDPDataPort = *gp_tmap ++;
   0339 2Ar0Er00      [16] 1335 	ld	hl,(_gp_tmap)
   033C 7E            [ 7] 1336 	ld	a,(hl)
   033D D3 BE         [11] 1337 	out	(_VDPDataPort),a
   033F 21r0Er00      [10] 1338 	ld	hl, #_gp_tmap+0
   0342 34            [11] 1339 	inc	(hl)
   0343 20 04         [12] 1340 	jr	NZ,00118$
   0345 21r0Fr00      [10] 1341 	ld	hl, #_gp_tmap+1
   0348 34            [11] 1342 	inc	(hl)
   0349                    1343 00118$:
                           1344 ;engine/printer.h:46: VDPDataPort = *gp_tmap ++;
   0349 2Ar0Er00      [16] 1345 	ld	hl,(_gp_tmap)
   034C 7E            [ 7] 1346 	ld	a,(hl)
   034D D3 BE         [11] 1347 	out	(_VDPDataPort),a
   034F 21r0Er00      [10] 1348 	ld	hl, #_gp_tmap+0
   0352 34            [11] 1349 	inc	(hl)
   0353 20 04         [12] 1350 	jr	NZ,00119$
   0355 21r0Fr00      [10] 1351 	ld	hl, #_gp_tmap+1
   0358 34            [11] 1352 	inc	(hl)
   0359                    1353 00119$:
   0359                    1354 00103$:
                           1355 ;engine/printer.h:49: if (_y < TOP_ADJUST + 22) {
   0359 3Ar01r00      [13] 1356 	ld	a,(#__y + 0)
   035C D6 17         [ 7] 1357 	sub	a, #0x17
   035E D0            [11] 1358 	ret	NC
                           1359 ;engine/printer.h:50: gp_addr += 32;
   035F 21r12r00      [10] 1360 	ld	hl,#_gp_addr
   0362 7E            [ 7] 1361 	ld	a,(hl)
   0363 C6 20         [ 7] 1362 	add	a, #0x20
   0365 77            [ 7] 1363 	ld	(hl),a
   0366 23            [ 6] 1364 	inc	hl
   0367 7E            [ 7] 1365 	ld	a,(hl)
   0368 CE 00         [ 7] 1366 	adc	a, #0x00
   036A 77            [ 7] 1367 	ld	(hl),a
                           1368 ;engine/printer.h:51: VDPControlPort = LO (gp_addr); VDPControlPort = HI (gp_addr) | 0x40;
   036B 3Ar12r00      [13] 1369 	ld	a,(#_gp_addr + 0)
   036E D3 BF         [11] 1370 	out	(_VDPControlPort),a
   0370 3Ar13r00      [13] 1371 	ld	a,(#_gp_addr + 1)
   0373 CB F7         [ 8] 1372 	set	6, a
   0375 D3 BF         [11] 1373 	out	(_VDPControlPort),a
                           1374 ;engine/printer.h:52: VDPDataPort = *gp_tmap ++;
   0377 2Ar0Er00      [16] 1375 	ld	hl,(_gp_tmap)
   037A 7E            [ 7] 1376 	ld	a,(hl)
   037B D3 BE         [11] 1377 	out	(_VDPDataPort),a
   037D 21r0Er00      [10] 1378 	ld	hl, #_gp_tmap+0
   0380 34            [11] 1379 	inc	(hl)
   0381 20 04         [12] 1380 	jr	NZ,00120$
   0383 21r0Fr00      [10] 1381 	ld	hl, #_gp_tmap+1
   0386 34            [11] 1382 	inc	(hl)
   0387                    1383 00120$:
                           1384 ;engine/printer.h:53: VDPDataPort = *gp_tmap ++;
   0387 2Ar0Er00      [16] 1385 	ld	hl,(_gp_tmap)
   038A 7E            [ 7] 1386 	ld	a,(hl)
   038B D3 BE         [11] 1387 	out	(_VDPDataPort),a
   038D 21r0Er00      [10] 1388 	ld	hl, #_gp_tmap+0
   0390 34            [11] 1389 	inc	(hl)
   0391 C0            [11] 1390 	ret	NZ
   0392 21r0Fr00      [10] 1391 	ld	hl, #_gp_tmap+1
   0395 34            [11] 1392 	inc	(hl)
   0396 C9            [10] 1393 	ret
                           1394 ;engine/printer.h:59: void update_list_tile (void) {
                           1395 ;	---------------------------------
                           1396 ; Function update_list_tile
                           1397 ; ---------------------------------
   0397                    1398 _update_list_tile::
                           1399 ;engine/printer.h:60: gp_tmap = c_ts_tmaps + (_t << 2);
   0397 FD 21r03r00   [14] 1400 	ld	iy,#__t
   039B FD 6E 00      [19] 1401 	ld	l,0 (iy)
   039E 26 00         [ 7] 1402 	ld	h,#0x00
   03A0 29            [11] 1403 	add	hl, hl
   03A1 29            [11] 1404 	add	hl, hl
   03A2 55            [ 4] 1405 	ld	d,l
   03A3 5C            [ 4] 1406 	ld	e,h
   03A4 21r0Er00      [10] 1407 	ld	hl,#_gp_tmap
   03A7 3Ar84r00      [13] 1408 	ld	a,(#_c_ts_tmaps + 0)
   03AA 82            [ 4] 1409 	add	a, d
   03AB 77            [ 7] 1410 	ld	(hl),a
   03AC 3Ar85r00      [13] 1411 	ld	a,(#_c_ts_tmaps + 1)
   03AF 8B            [ 4] 1412 	adc	a, e
   03B0 23            [ 6] 1413 	inc	hl
   03B1 77            [ 7] 1414 	ld	(hl),a
                           1415 ;engine/printer.h:61: gp_addr = ((_y << 5) + _x + PNTADDRESS);
   03B2 FD 21r01r00   [14] 1416 	ld	iy,#__y
   03B6 FD 6E 00      [19] 1417 	ld	l,0 (iy)
   03B9 26 00         [ 7] 1418 	ld	h,#0x00
   03BB 29            [11] 1419 	add	hl, hl
   03BC 29            [11] 1420 	add	hl, hl
   03BD 29            [11] 1421 	add	hl, hl
   03BE 29            [11] 1422 	add	hl, hl
   03BF 29            [11] 1423 	add	hl, hl
   03C0 EB            [ 4] 1424 	ex	de,hl
   03C1 FD 21r00r00   [14] 1425 	ld	iy,#__x
   03C5 FD 6E 00      [19] 1426 	ld	l,0 (iy)
   03C8 26 00         [ 7] 1427 	ld	h,#0x00
   03CA 19            [11] 1428 	add	hl,de
   03CB EB            [ 4] 1429 	ex	de,hl
   03CC 21 00 18      [10] 1430 	ld	hl,#0x1800
   03CF 19            [11] 1431 	add	hl,de
   03D0 22r12r00      [16] 1432 	ld	(_gp_addr),hl
                           1433 ;engine/printer.h:63: _n = *gp_tmap ++; ul_putc ();
   03D3 2Ar0Er00      [16] 1434 	ld	hl,(_gp_tmap)
   03D6 7E            [ 7] 1435 	ld	a,(hl)
   03D7 32r02r00      [13] 1436 	ld	(#__n + 0),a
   03DA 21r0Er00      [10] 1437 	ld	hl, #_gp_tmap+0
   03DD 34            [11] 1438 	inc	(hl)
   03DE 20 04         [12] 1439 	jr	NZ,00103$
   03E0 21r0Fr00      [10] 1440 	ld	hl, #_gp_tmap+1
   03E3 34            [11] 1441 	inc	(hl)
   03E4                    1442 00103$:
   03E4 CDr3Er02      [17] 1443 	call	_ul_putc
                           1444 ;engine/printer.h:64: _n = *gp_tmap ++; ul_putc ();
   03E7 2Ar0Er00      [16] 1445 	ld	hl,(_gp_tmap)
   03EA 7E            [ 7] 1446 	ld	a,(hl)
   03EB 32r02r00      [13] 1447 	ld	(#__n + 0),a
   03EE 21r0Er00      [10] 1448 	ld	hl, #_gp_tmap+0
   03F1 34            [11] 1449 	inc	(hl)
   03F2 20 04         [12] 1450 	jr	NZ,00104$
   03F4 21r0Fr00      [10] 1451 	ld	hl, #_gp_tmap+1
   03F7 34            [11] 1452 	inc	(hl)
   03F8                    1453 00104$:
   03F8 CDr3Er02      [17] 1454 	call	_ul_putc
                           1455 ;engine/printer.h:65: gp_addr += 30;
   03FB 21r12r00      [10] 1456 	ld	hl,#_gp_addr
   03FE 7E            [ 7] 1457 	ld	a,(hl)
   03FF C6 1E         [ 7] 1458 	add	a, #0x1E
   0401 77            [ 7] 1459 	ld	(hl),a
   0402 23            [ 6] 1460 	inc	hl
   0403 7E            [ 7] 1461 	ld	a,(hl)
   0404 CE 00         [ 7] 1462 	adc	a, #0x00
   0406 77            [ 7] 1463 	ld	(hl),a
                           1464 ;engine/printer.h:67: _n = *gp_tmap ++; ul_putc ();
   0407 2Ar0Er00      [16] 1465 	ld	hl,(_gp_tmap)
   040A 7E            [ 7] 1466 	ld	a,(hl)
   040B 32r02r00      [13] 1467 	ld	(#__n + 0),a
   040E 21r0Er00      [10] 1468 	ld	hl, #_gp_tmap+0
   0411 34            [11] 1469 	inc	(hl)
   0412 20 04         [12] 1470 	jr	NZ,00105$
   0414 21r0Fr00      [10] 1471 	ld	hl, #_gp_tmap+1
   0417 34            [11] 1472 	inc	(hl)
   0418                    1473 00105$:
   0418 CDr3Er02      [17] 1474 	call	_ul_putc
                           1475 ;engine/printer.h:68: _n = *gp_tmap   ; ul_putc ();
   041B 2Ar0Er00      [16] 1476 	ld	hl,(_gp_tmap)
   041E 7E            [ 7] 1477 	ld	a,(hl)
   041F 32r02r00      [13] 1478 	ld	(#__n + 0),a
   0422 C3r3Er02      [10] 1479 	jp  _ul_putc
                           1480 ;engine/printer.h:73: void map_set (void) {
                           1481 ;	---------------------------------
                           1482 ; Function map_set
                           1483 ; ---------------------------------
   0425                    1484 _map_set::
                           1485 ;engine/printer.h:74: map_buff [COORDS (_x, _y)] = _t;
   0425 11rFDr00      [10] 1486 	ld	de,#_map_buff+0
   0428 3Ar01r00      [13] 1487 	ld	a,(#__y + 0)
   042B 07            [ 4] 1488 	rlca
   042C 07            [ 4] 1489 	rlca
   042D 07            [ 4] 1490 	rlca
   042E 07            [ 4] 1491 	rlca
   042F E6 F0         [ 7] 1492 	and	a,#0xF0
   0431 21r00r00      [10] 1493 	ld	hl,#__x + 0
   0434 B6            [ 7] 1494 	or	a,(hl)
   0435 6F            [ 4] 1495 	ld	l, a
   0436 26 00         [ 7] 1496 	ld	h,#0x00
   0438 19            [11] 1497 	add	hl,de
   0439 3Ar03r00      [13] 1498 	ld	a,(#__t + 0)
   043C 77            [ 7] 1499 	ld	(hl),a
                           1500 ;engine/printer.h:78: _x = _x << 1; _y = TOP_ADJUST + (_y << 1);
   043D FD 21r00r00   [14] 1501 	ld	iy,#__x
   0441 FD CB 00 26   [23] 1502 	sla	0 (iy)
   0445 3Ar01r00      [13] 1503 	ld	a,(#__y + 0)
   0448 87            [ 4] 1504 	add	a, a
   0449 21r01r00      [10] 1505 	ld	hl,#__y
   044C 3C            [ 4] 1506 	inc	a
   044D 77            [ 7] 1507 	ld	(hl),a
                           1508 ;engine/printer.h:79: update_list_tile (); 
   044E C3r97r03      [10] 1509 	jp  _update_list_tile
                           1510 ;engine/printer.h:82: unsigned char get_byte (void) {
                           1511 ;	---------------------------------
                           1512 ; Function get_byte
                           1513 ; ---------------------------------
   0451                    1514 _get_byte::
                           1515 ;engine/printer.h:83: -- rdit; return *gp_gen ++;
   0451 21r17r00      [10] 1516 	ld	hl, #_rdit+0
   0454 35            [11] 1517 	dec	(hl)
   0455 2Ar0Cr00      [16] 1518 	ld	hl,(_gp_gen)
   0458 56            [ 7] 1519 	ld	d,(hl)
   0459 21r0Cr00      [10] 1520 	ld	hl, #_gp_gen+0
   045C 34            [11] 1521 	inc	(hl)
   045D 20 04         [12] 1522 	jr	NZ,00103$
   045F 21r0Dr00      [10] 1523 	ld	hl, #_gp_gen+1
   0462 34            [11] 1524 	inc	(hl)
   0463                    1525 00103$:
   0463 6A            [ 4] 1526 	ld	l,d
   0464 C9            [10] 1527 	ret
                           1528 ;engine/../engine/mapmods/map_renderer_complex.h:11: void add_tile (void) {
                           1529 ;	---------------------------------
                           1530 ; Function add_tile
                           1531 ; ---------------------------------
   0465                    1532 _add_tile::
                           1533 ;engine/../engine/mapmods/map_renderer_complex.h:12: map_buff [rdm] = rda;
   0465 11rFDr00      [10] 1534 	ld	de,#_map_buff+0
   0468 2Ar1Cr00      [16] 1535 	ld	hl,(_rdm)
   046B 26 00         [ 7] 1536 	ld	h,#0x00
   046D 19            [11] 1537 	add	hl,de
   046E 3Ar18r00      [13] 1538 	ld	a,(#_rda + 0)
   0471 77            [ 7] 1539 	ld	(hl),a
                           1540 ;engine/../engine/mapmods/map_renderer_complex.h:13: ++ rdm;
   0472 21r1Cr00      [10] 1541 	ld	hl, #_rdm+0
   0475 34            [11] 1542 	inc	(hl)
   0476 C9            [10] 1543 	ret
                           1544 ;engine/../engine/mapmods/map_renderer_complex.h:16: void draw_scr (void) {
                           1545 ;	---------------------------------
                           1546 ; Function draw_scr
                           1547 ; ---------------------------------
   0477                    1548 _draw_scr::
   0477 3B            [ 6] 1549 	dec	sp
                           1550 ;engine/../engine/mapmods/map_renderer_complex.h:20: rdm = 0;
   0478 21r1Cr00      [10] 1551 	ld	hl,#_rdm + 0
   047B 36 00         [10] 1552 	ld	(hl), #0x00
                           1553 ;engine/../engine/mapmods/map_renderer_complex.h:86: gp_gen = c_map [n_pant];
   047D FD 21rC0r01   [14] 1554 	ld	iy,#_n_pant
   0481 FD 6E 00      [19] 1555 	ld	l,0 (iy)
   0484 26 00         [ 7] 1556 	ld	h,#0x00
   0486 29            [11] 1557 	add	hl, hl
   0487 ED 5Br8Er00   [20] 1558 	ld	de,(_c_map)
   048B 19            [11] 1559 	add	hl,de
   048C 7E            [ 7] 1560 	ld	a,(hl)
   048D FD 21r0Cr00   [14] 1561 	ld	iy,#_gp_gen
   0491 FD 77 00      [19] 1562 	ld	0 (iy),a
   0494 23            [ 6] 1563 	inc	hl
   0495 7E            [ 7] 1564 	ld	a,(hl)
   0496 32r0Dr00      [13] 1565 	ld	(#_gp_gen + 1),a
                           1566 ;engine/../engine/mapmods/map_renderer_complex.h:88: while (rdm < 192) {
   0499                    1567 00104$:
                           1568 ;engine/../engine/mapmods/map_renderer_complex.h:89: rdt = *gp_gen ++;
   0499 ED 5Br0Cr00   [20] 1569 	ld	de,(_gp_gen)
   049D ED 4Br0Cr00   [20] 1570 	ld	bc,(_gp_gen)
   04A1 03            [ 6] 1571 	inc	bc
                           1572 ;engine/../engine/mapmods/map_renderer_complex.h:88: while (rdm < 192) {
   04A2 3Ar1Cr00      [13] 1573 	ld	a,(#_rdm + 0)
   04A5 D6 C0         [ 7] 1574 	sub	a, #0xC0
   04A7 30 38         [12] 1575 	jr	NC,00106$
                           1576 ;engine/../engine/mapmods/map_renderer_complex.h:89: rdt = *gp_gen ++;
   04A9 1A            [ 7] 1577 	ld	a,(de)
   04AA 32r16r00      [13] 1578 	ld	(#_rdt + 0),a
   04AD ED 43r0Cr00   [20] 1579 	ld	(_gp_gen),bc
                           1580 ;engine/../engine/mapmods/map_renderer_complex.h:90: gp_gen ++;
   04B1 21r0Cr00      [10] 1581 	ld	hl, #_gp_gen+0
   04B4 34            [11] 1582 	inc	(hl)
   04B5 20 04         [12] 1583 	jr	NZ,00218$
   04B7 21r0Dr00      [10] 1584 	ld	hl, #_gp_gen+1
   04BA 34            [11] 1585 	inc	(hl)
   04BB                    1586 00218$:
                           1587 ;engine/../engine/mapmods/map_renderer_complex.h:91: rda = rdt & 0x0f;
   04BB 3Ar16r00      [13] 1588 	ld	a,(#_rdt + 0)
   04BE E6 0F         [ 7] 1589 	and	a, #0x0F
   04C0 32r18r00      [13] 1590 	ld	(#_rda + 0),a
                           1591 ;engine/../engine/mapmods/map_renderer_complex.h:93: rdct = rdt;
   04C3 3Ar16r00      [13] 1592 	ld	a,(#_rdt + 0)
   04C6 32r1Er00      [13] 1593 	ld	(#_rdct + 0),a
                           1594 ;engine/../engine/mapmods/map_renderer_complex.h:94: while (rdct >= 16) {
   04C9                    1595 00101$:
   04C9 3Ar1Er00      [13] 1596 	ld	a,(#_rdct + 0)
   04CC D6 10         [ 7] 1597 	sub	a, #0x10
   04CE 38 0C         [12] 1598 	jr	C,00103$
                           1599 ;engine/../engine/mapmods/map_renderer_complex.h:95: add_tile (); rdct -= 16;
   04D0 CDr65r04      [17] 1600 	call	_add_tile
   04D3 21r1Er00      [10] 1601 	ld	hl,#_rdct
   04D6 7E            [ 7] 1602 	ld	a,(hl)
   04D7 C6 F0         [ 7] 1603 	add	a,#0xF0
   04D9 77            [ 7] 1604 	ld	(hl),a
   04DA 18 ED         [12] 1605 	jr	00101$
   04DC                    1606 00103$:
                           1607 ;engine/../engine/mapmods/map_renderer_complex.h:96: } add_tile ();
   04DC CDr65r04      [17] 1608 	call	_add_tile
   04DF 18 B8         [12] 1609 	jr	00104$
   04E1                    1610 00106$:
                           1611 ;engine/../engine/mapmods/map_renderer_complex.h:141: if (c_decos) {
   04E1 3Ar90r00      [13] 1612 	ld	a,(#_c_decos + 0)
   04E4 B7            [ 4] 1613 	or	a, a
   04E5 28 77         [12] 1614 	jr	Z,00117$
                           1615 ;engine/../engine/mapmods/map_renderer_complex.h:163: while (rda = *gp_gen ++) {
   04E7                    1616 00113$:
   04E7 1A            [ 7] 1617 	ld	a,(de)
   04E8 57            [ 4] 1618 	ld	d,a
   04E9 ED 43r0Cr00   [20] 1619 	ld	(_gp_gen),bc
   04ED 21r18r00      [10] 1620 	ld	hl,#_rda + 0
   04F0 72            [ 7] 1621 	ld	(hl), d
   04F1 7A            [ 4] 1622 	ld	a,d
   04F2 B7            [ 4] 1623 	or	a, a
   04F3 28 69         [12] 1624 	jr	Z,00117$
                           1625 ;engine/../engine/mapmods/map_renderer_complex.h:164: if (rda & 0x80) {
   04F5 21r18r00      [10] 1626 	ld	hl,#_rda+0
   04F8 CB 7E         [12] 1627 	bit	7, (hl)
   04FA 28 0F         [12] 1628 	jr	Z,00108$
                           1629 ;engine/../engine/mapmods/map_renderer_complex.h:165: rda &= 0x7F;
   04FC 3Ar18r00      [13] 1630 	ld	a,(#_rda + 0)
   04FF CB BF         [ 8] 1631 	res	7, a
   0501 32r18r00      [13] 1632 	ld	(#_rda + 0),a
                           1633 ;engine/../engine/mapmods/map_renderer_complex.h:166: rdct = 1;
   0504 21r1Er00      [10] 1634 	ld	hl,#_rdct + 0
   0507 36 01         [10] 1635 	ld	(hl), #0x01
   0509 18 1B         [12] 1636 	jr	00110$
   050B                    1637 00108$:
                           1638 ;engine/../engine/mapmods/map_renderer_complex.h:168: rdct = *gp_gen ++;
   050B 2Ar0Cr00      [16] 1639 	ld	hl,(_gp_gen)
   050E 7E            [ 7] 1640 	ld	a,(hl)
   050F 32r1Er00      [13] 1641 	ld	(#_rdct + 0),a
   0512 21r0Cr00      [10] 1642 	ld	hl, #_gp_gen+0
   0515 34            [11] 1643 	inc	(hl)
   0516 20 04         [12] 1644 	jr	NZ,00220$
   0518 21r0Dr00      [10] 1645 	ld	hl, #_gp_gen+1
   051B 34            [11] 1646 	inc	(hl)
   051C                    1647 00220$:
                           1648 ;engine/../engine/mapmods/map_renderer_complex.h:169: gp_gen ++;
   051C 21r0Cr00      [10] 1649 	ld	hl, #_gp_gen+0
   051F 34            [11] 1650 	inc	(hl)
   0520 20 04         [12] 1651 	jr	NZ,00221$
   0522 21r0Dr00      [10] 1652 	ld	hl, #_gp_gen+1
   0525 34            [11] 1653 	inc	(hl)
   0526                    1654 00221$:
                           1655 ;engine/../engine/mapmods/map_renderer_complex.h:171: while (rdct --) {
   0526                    1656 00110$:
   0526 3Ar1Er00      [13] 1657 	ld	a,(#_rdct + 0)
   0529 FD 21 00 00   [14] 1658 	ld	iy,#0
   052D FD 39         [15] 1659 	add	iy,sp
   052F FD 77 00      [19] 1660 	ld	0 (iy),a
   0532 21r1Er00      [10] 1661 	ld	hl, #_rdct+0
   0535 35            [11] 1662 	dec	(hl)
                           1663 ;engine/../engine/mapmods/map_renderer_complex.h:89: rdt = *gp_gen ++;
   0536 ED 5Br0Cr00   [20] 1664 	ld	de,(_gp_gen)
   053A ED 4Br0Cr00   [20] 1665 	ld	bc,(_gp_gen)
   053E 03            [ 6] 1666 	inc	bc
                           1667 ;engine/../engine/mapmods/map_renderer_complex.h:171: while (rdct --) {
   053F 21 00 00      [10] 1668 	ld	hl, #0+0
   0542 39            [11] 1669 	add	hl, sp
   0543 7E            [ 7] 1670 	ld	a, (hl)
   0544 B7            [ 4] 1671 	or	a, a
   0545 28 A0         [12] 1672 	jr	Z,00113$
                           1673 ;engine/../engine/mapmods/map_renderer_complex.h:172: rdm = *gp_gen ++;
   0547 1A            [ 7] 1674 	ld	a,(de)
   0548 32r1Cr00      [13] 1675 	ld	(#_rdm + 0),a
   054B ED 43r0Cr00   [20] 1676 	ld	(_gp_gen),bc
                           1677 ;engine/../engine/mapmods/map_renderer_complex.h:173: gp_gen ++;
   054F 21r0Cr00      [10] 1678 	ld	hl, #_gp_gen+0
   0552 34            [11] 1679 	inc	(hl)
   0553 20 04         [12] 1680 	jr	NZ,00222$
   0555 21r0Dr00      [10] 1681 	ld	hl, #_gp_gen+1
   0558 34            [11] 1682 	inc	(hl)
   0559                    1683 00222$:
                           1684 ;engine/../engine/mapmods/map_renderer_complex.h:174: add_tile ();
   0559 CDr65r04      [17] 1685 	call	_add_tile
   055C 18 C8         [12] 1686 	jr	00110$
   055E                    1687 00117$:
                           1688 ;engine/../engine/mapmods/map_renderer_complex.h:185: gp_gen = c_locks; rda = 0;
   055E 2Ar91r00      [16] 1689 	ld	hl,(_c_locks)
   0561 22r0Cr00      [16] 1690 	ld	(_gp_gen),hl
   0564 21r18r00      [10] 1691 	ld	hl,#_rda + 0
   0567 36 00         [10] 1692 	ld	(hl), #0x00
                           1693 ;engine/../engine/mapmods/map_renderer_complex.h:186: gpit = c_max_bolts; while (gpit --) {
   0569 3Ar97r00      [13] 1694 	ld	a,(#_c_max_bolts + 0)
   056C 32r08r00      [13] 1695 	ld	(#_gpit + 0),a
   056F 11rEAr01      [10] 1696 	ld	de,#_lkact+0
   0572                    1697 00122$:
   0572 21r08r00      [10] 1698 	ld	hl,#_gpit + 0
   0575 4E            [ 7] 1699 	ld	c, (hl)
   0576 21r08r00      [10] 1700 	ld	hl, #_gpit+0
   0579 35            [11] 1701 	dec	(hl)
   057A 79            [ 4] 1702 	ld	a,c
   057B B7            [ 4] 1703 	or	a, a
   057C 28 3F         [12] 1704 	jr	Z,00124$
                           1705 ;engine/../engine/mapmods/map_renderer_complex.h:187: rdb = *gp_gen ++;
   057E 2Ar0Cr00      [16] 1706 	ld	hl,(_gp_gen)
   0581 7E            [ 7] 1707 	ld	a,(hl)
   0582 32r19r00      [13] 1708 	ld	(#_rdb + 0),a
   0585 21r0Cr00      [10] 1709 	ld	hl, #_gp_gen+0
   0588 34            [11] 1710 	inc	(hl)
   0589 20 04         [12] 1711 	jr	NZ,00223$
   058B 21r0Dr00      [10] 1712 	ld	hl, #_gp_gen+1
   058E 34            [11] 1713 	inc	(hl)
   058F                    1714 00223$:
                           1715 ;engine/../engine/mapmods/map_renderer_complex.h:188: rdm = *gp_gen ++;
   058F 2Ar0Cr00      [16] 1716 	ld	hl,(_gp_gen)
   0592 7E            [ 7] 1717 	ld	a,(hl)
   0593 32r1Cr00      [13] 1718 	ld	(#_rdm + 0),a
   0596 21r0Cr00      [10] 1719 	ld	hl, #_gp_gen+0
   0599 34            [11] 1720 	inc	(hl)
   059A 20 04         [12] 1721 	jr	NZ,00224$
   059C 21r0Dr00      [10] 1722 	ld	hl, #_gp_gen+1
   059F 34            [11] 1723 	inc	(hl)
   05A0                    1724 00224$:
                           1725 ;engine/../engine/mapmods/map_renderer_complex.h:189: if (n_pant == rdb) {
   05A0 3ArC0r01      [13] 1726 	ld	a,(#_n_pant + 0)
   05A3 FD 21r19r00   [14] 1727 	ld	iy,#_rdb
   05A7 FD 96 00      [19] 1728 	sub	a, 0 (iy)
   05AA 20 C6         [12] 1729 	jr	NZ,00122$
                           1730 ;engine/../engine/mapmods/map_renderer_complex.h:190: if (!lkact [gpit]) add_tile ();
   05AC 2Ar08r00      [16] 1731 	ld	hl,(_gpit)
   05AF 26 00         [ 7] 1732 	ld	h,#0x00
   05B1 19            [11] 1733 	add	hl,de
   05B2 7E            [ 7] 1734 	ld	a,(hl)
   05B3 B7            [ 4] 1735 	or	a, a
   05B4 20 BC         [12] 1736 	jr	NZ,00122$
   05B6 D5            [11] 1737 	push	de
   05B7 CDr65r04      [17] 1738 	call	_add_tile
   05BA D1            [10] 1739 	pop	de
   05BB 18 B5         [12] 1740 	jr	00122$
   05BD                    1741 00124$:
                           1742 ;engine/../engine/mapmods/map_renderer_complex.h:201: _x = 0; _y = TOP_ADJUST; gp_ram = map_buff;
   05BD 21r00r00      [10] 1743 	ld	hl,#__x + 0
   05C0 36 00         [10] 1744 	ld	(hl), #0x00
   05C2 21r01r00      [10] 1745 	ld	hl,#__y + 0
   05C5 36 01         [10] 1746 	ld	(hl), #0x01
   05C7 11rFDr00      [10] 1747 	ld	de,#_map_buff+0
   05CA ED 53r10r00   [20] 1748 	ld	(_gp_ram),de
                           1749 ;engine/../engine/mapmods/map_renderer_complex.h:202: for (rdm = 0; rdm < 192; rdm ++) {
   05CE 21r1Cr00      [10] 1750 	ld	hl,#_rdm + 0
   05D1 36 00         [10] 1751 	ld	(hl), #0x00
   05D3                    1752 00134$:
                           1753 ;engine/../engine/mapmods/map_renderer_complex.h:203: rdt = *gp_ram ++;
   05D3 2Ar10r00      [16] 1754 	ld	hl,(_gp_ram)
   05D6 7E            [ 7] 1755 	ld	a,(hl)
   05D7 32r16r00      [13] 1756 	ld	(#_rdt + 0),a
   05DA 21r10r00      [10] 1757 	ld	hl, #_gp_ram+0
   05DD 34            [11] 1758 	inc	(hl)
   05DE 20 04         [12] 1759 	jr	NZ,00227$
   05E0 21r11r00      [10] 1760 	ld	hl, #_gp_ram+1
   05E3 34            [11] 1761 	inc	(hl)
   05E4                    1762 00227$:
                           1763 ;engine/../engine/mapmods/../../engine/mapmods/map_detectors.h:40: if (rdt >= CHAC_CHAC_DETECT_TILE && rdt <= CHAC_CHAC_DETECT_TILE + 2) {
   05E4 3Ar16r00      [13] 1764 	ld	a,(#_rdt + 0)
   05E7 D6 27         [ 7] 1765 	sub	a, #0x27
   05E9 38 1D         [12] 1766 	jr	C,00126$
   05EB 3E 29         [ 7] 1767 	ld	a,#0x29
   05ED FD 21r16r00   [14] 1768 	ld	iy,#_rdt
   05F1 FD 96 00      [19] 1769 	sub	a, 0 (iy)
   05F4 38 12         [12] 1770 	jr	C,00126$
                           1771 ;engine/../engine/mapmods/../../engine/mapmods/map_detectors.h:41: chac_chacs_add ();
   05F6 D5            [11] 1772 	push	de
   05F7 CDrEEr08      [17] 1773 	call	_chac_chacs_add
   05FA D1            [10] 1774 	pop	de
                           1775 ;engine/../engine/mapmods/../../engine/mapmods/map_detectors.h:43: rdt = map_buff [rdm] = 0;
   05FB 2Ar1Cr00      [16] 1776 	ld	hl,(_rdm)
   05FE 26 00         [ 7] 1777 	ld	h,#0x00
   0600 19            [11] 1778 	add	hl,de
   0601 36 00         [10] 1779 	ld	(hl),#0x00
   0603 21r16r00      [10] 1780 	ld	hl,#_rdt + 0
   0606 36 00         [10] 1781 	ld	(hl), #0x00
   0608                    1782 00126$:
                           1783 ;engine/../engine/mapmods/map_renderer_complex.h:220: _t = rdt; draw_tile ();
   0608 3Ar16r00      [13] 1784 	ld	a,(#_rdt + 0)
   060B 32r03r00      [13] 1785 	ld	(#__t + 0),a
   060E D5            [11] 1786 	push	de
   060F CDrDDr02      [17] 1787 	call	_draw_tile
   0612 D1            [10] 1788 	pop	de
                           1789 ;engine/../engine/mapmods/map_renderer_complex.h:221: _x = (_x + 2) & 0x1f; if (!_x) _y += 2;
   0613 3Ar00r00      [13] 1790 	ld	a,(#__x + 0)
   0616 C6 02         [ 7] 1791 	add	a, #0x02
   0618 E6 1F         [ 7] 1792 	and	a, #0x1F
   061A FD 21r00r00   [14] 1793 	ld	iy,#__x
   061E FD 77 00      [19] 1794 	ld	0 (iy),a
   0621 3Ar00r00      [13] 1795 	ld	a,(#__x + 0)
   0624 B7            [ 4] 1796 	or	a, a
   0625 20 0E         [12] 1797 	jr	NZ,00135$
   0627 FD 21r01r00   [14] 1798 	ld	iy,#__y
   062B FD 34 00      [23] 1799 	inc	0 (iy)
   062E FD 21r01r00   [14] 1800 	ld	iy,#__y
   0632 FD 34 00      [23] 1801 	inc	0 (iy)
   0635                    1802 00135$:
                           1803 ;engine/../engine/mapmods/map_renderer_complex.h:202: for (rdm = 0; rdm < 192; rdm ++) {
   0635 FD 21r1Cr00   [14] 1804 	ld	iy,#_rdm
   0639 FD 34 00      [23] 1805 	inc	0 (iy)
   063C 3Ar1Cr00      [13] 1806 	ld	a,(#_rdm + 0)
   063F D6 C0         [ 7] 1807 	sub	a, #0xC0
   0641 38 90         [12] 1808 	jr	C,00134$
                           1809 ;engine/../engine/mapmods/map_renderer_complex.h:225: gpit = max_chac_chacs; while (gpit --) {
   0643 3Ar93r02      [13] 1810 	ld	a,(#_max_chac_chacs + 0)
   0646 32r08r00      [13] 1811 	ld	(#_gpit + 0),a
   0649                    1812 00131$:
   0649 FD 21r08r00   [14] 1813 	ld	iy,#_gpit
   064D FD 5E 00      [19] 1814 	ld	e,0 (iy)
   0650 FD 21r08r00   [14] 1815 	ld	iy,#_gpit
   0654 FD 35 00      [23] 1816 	dec	0 (iy)
   0657 7B            [ 4] 1817 	ld	a,e
   0658 B7            [ 4] 1818 	or	a, a
   0659 28 47         [12] 1819 	jr	Z,00136$
                           1820 ;engine/../engine/mapmods/map_renderer_complex.h:226: _t = CHAC_CHAC_BASE_TILE + 6;
   065B FD 21r03r00   [14] 1821 	ld	iy,#__t
   065F FD 36 00 26   [19] 1822 	ld	0 (iy),#0x26
                           1823 ;engine/../engine/mapmods/map_renderer_complex.h:227: _x = (chac_chacs_yx [gpit] & 0xf) << 1;
   0663 3Ar08r00      [13] 1824 	ld	a,(#_gpit + 0)
   0666 C6r94         [ 7] 1825 	add	a, #<(_chac_chacs_yx)
   0668 5F            [ 4] 1826 	ld	e,a
   0669 3E 00         [ 7] 1827 	ld	a,#0x00
   066B CEs02         [ 7] 1828 	adc	a, #>(_chac_chacs_yx)
   066D 57            [ 4] 1829 	ld	d,a
   066E 1A            [ 7] 1830 	ld	a,(de)
   066F 6F            [ 4] 1831 	ld	l,a
   0670 E6 0F         [ 7] 1832 	and	a, #0x0F
   0672 87            [ 4] 1833 	add	a, a
   0673 FD 21r00r00   [14] 1834 	ld	iy,#__x
   0677 FD 77 00      [19] 1835 	ld	0 (iy),a
                           1836 ;engine/../engine/mapmods/map_renderer_complex.h:228: _y = ((chac_chacs_yx [gpit] & 0xf0) >> 3) + TOP_ADJUST;
   067A 7D            [ 4] 1837 	ld	a,l
   067B E6 F0         [ 7] 1838 	and	a, #0xF0
   067D 0F            [ 4] 1839 	rrca
   067E 0F            [ 4] 1840 	rrca
   067F 0F            [ 4] 1841 	rrca
   0680 E6 1F         [ 7] 1842 	and	a,#0x1F
   0682 21r01r00      [10] 1843 	ld	hl,#__y
   0685 3C            [ 4] 1844 	inc	a
   0686 77            [ 7] 1845 	ld	(hl),a
                           1846 ;engine/../engine/mapmods/map_renderer_complex.h:229: draw_tile ();
   0687 CDrDDr02      [17] 1847 	call	_draw_tile
                           1848 ;engine/../engine/mapmods/map_renderer_complex.h:230: _y += 2;
   068A 21r01r00      [10] 1849 	ld	hl, #__y+0
   068D 34            [11] 1850 	inc	(hl)
   068E 21r01r00      [10] 1851 	ld	hl, #__y+0
   0691 34            [11] 1852 	inc	(hl)
                           1853 ;engine/../engine/mapmods/map_renderer_complex.h:231: draw_tile ();
   0692 CDrDDr02      [17] 1854 	call	_draw_tile
                           1855 ;engine/../engine/mapmods/map_renderer_complex.h:232: _y += 2;
   0695 21r01r00      [10] 1856 	ld	hl, #__y+0
   0698 34            [11] 1857 	inc	(hl)
   0699 21r01r00      [10] 1858 	ld	hl, #__y+0
   069C 34            [11] 1859 	inc	(hl)
                           1860 ;engine/../engine/mapmods/map_renderer_complex.h:233: draw_tile ();
   069D CDrDDr02      [17] 1861 	call	_draw_tile
   06A0 18 A7         [12] 1862 	jr	00131$
   06A2                    1863 00136$:
   06A2 33            [ 6] 1864 	inc	sp
   06A3 C9            [10] 1865 	ret
                           1866 ;engine/printer.h:93: void pr_str (unsigned char *s) {
                           1867 ;	---------------------------------
                           1868 ; Function pr_str
                           1869 ; ---------------------------------
   06A4                    1870 _pr_str::
                           1871 ;engine/printer.h:94: SG_setNextTileatXY (_x, _y);
   06A4 3Ar01r00      [13] 1872 	ld	a,(__y)
   06A7 F5            [11] 1873 	push	af
   06A8 33            [ 6] 1874 	inc	sp
   06A9 3Ar00r00      [13] 1875 	ld	a,(__x)
   06AC F5            [11] 1876 	push	af
   06AD 33            [ 6] 1877 	inc	sp
   06AE CDr00r00      [17] 1878 	call	_SG_setNextTileatXY
   06B1 F1            [10] 1879 	pop	af
                           1880 ;engine/printer.h:95: while (gpit = *s++) {
   06B2 C1            [10] 1881 	pop	bc
   06B3 D1            [10] 1882 	pop	de
   06B4 D5            [11] 1883 	push	de
   06B5 C5            [11] 1884 	push	bc
   06B6                    1885 00104$:
   06B6 1A            [ 7] 1886 	ld	a,(de)
   06B7 13            [ 6] 1887 	inc	de
                           1888 ;engine/printer.h:96: if (gpit == '%') {
   06B8 32r08r00      [13] 1889 	ld	(#_gpit + 0),a
   06BB B7            [ 4] 1890 	or	a,a
   06BC C8            [11] 1891 	ret	Z
   06BD D6 25         [ 7] 1892 	sub	a, #0x25
   06BF 20 16         [12] 1893 	jr	NZ,00102$
                           1894 ;engine/printer.h:97: ++ _y; SG_setNextTileatXY (_x, _y);
   06C1 21r01r00      [10] 1895 	ld	hl, #__y+0
   06C4 34            [11] 1896 	inc	(hl)
   06C5 D5            [11] 1897 	push	de
   06C6 3Ar01r00      [13] 1898 	ld	a,(__y)
   06C9 F5            [11] 1899 	push	af
   06CA 33            [ 6] 1900 	inc	sp
   06CB 3Ar00r00      [13] 1901 	ld	a,(__x)
   06CE F5            [11] 1902 	push	af
   06CF 33            [ 6] 1903 	inc	sp
   06D0 CDr00r00      [17] 1904 	call	_SG_setNextTileatXY
   06D3 F1            [10] 1905 	pop	af
   06D4 D1            [10] 1906 	pop	de
   06D5 18 DF         [12] 1907 	jr	00104$
   06D7                    1908 00102$:
                           1909 ;engine/printer.h:99: else SG_setTile (gpit - 32); 
   06D7 3Ar08r00      [13] 1910 	ld	a,(#_gpit + 0)
   06DA C6 E0         [ 7] 1911 	add	a,#0xE0
   06DC D5            [11] 1912 	push	de
   06DD F5            [11] 1913 	push	af
   06DE 33            [ 6] 1914 	inc	sp
   06DF CDr00r00      [17] 1915 	call	_SG_setTile
   06E2 33            [ 6] 1916 	inc	sp
   06E3 D1            [10] 1917 	pop	de
   06E4 18 D0         [12] 1918 	jr	00104$
                           1919 ;engine/general.h:8: void cm_two_points (void) {
                           1920 ;	---------------------------------
                           1921 ; Function cm_two_points
                           1922 ; ---------------------------------
   06E6                    1923 _cm_two_points::
                           1924 ;engine/general.h:10: if (cy1 > 12 || cy2 > 12) { at1 = at2 = 0; return; }
   06E6 3E 0C         [ 7] 1925 	ld	a,#0x0C
   06E8 FD 21r24r00   [14] 1926 	ld	iy,#_cy1
   06EC FD 96 00      [19] 1927 	sub	a, 0 (iy)
   06EF 38 0B         [12] 1928 	jr	C,00101$
   06F1 3E 0C         [ 7] 1929 	ld	a,#0x0C
   06F3 FD 21r25r00   [14] 1930 	ld	iy,#_cy2
   06F7 FD 96 00      [19] 1931 	sub	a, 0 (iy)
   06FA 30 0B         [12] 1932 	jr	NC,00102$
   06FC                    1933 00101$:
   06FC 21r21r00      [10] 1934 	ld	hl,#_at2 + 0
   06FF 36 00         [10] 1935 	ld	(hl), #0x00
   0701 21r20r00      [10] 1936 	ld	hl,#_at1 + 0
   0704 36 00         [10] 1937 	ld	(hl), #0x00
   0706 C9            [10] 1938 	ret
   0707                    1939 00102$:
                           1940 ;engine/general.h:11: at1 = ATTR (cx1, cy1 ? cy1 - 1 : 0);
   0707 3Ar24r00      [13] 1941 	ld	a,(#_cy1 + 0)
   070A B7            [ 4] 1942 	or	a, a
   070B 28 07         [12] 1943 	jr	Z,00106$
   070D 3Ar24r00      [13] 1944 	ld	a,(#_cy1 + 0)
   0710 C6 FF         [ 7] 1945 	add	a,#0xFF
   0712 18 02         [12] 1946 	jr	00107$
   0714                    1947 00106$:
   0714 3E 00         [ 7] 1948 	ld	a,#0x00
   0716                    1949 00107$:
   0716 07            [ 4] 1950 	rlca
   0717 07            [ 4] 1951 	rlca
   0718 07            [ 4] 1952 	rlca
   0719 07            [ 4] 1953 	rlca
   071A E6 F0         [ 7] 1954 	and	a,#0xF0
   071C 21r22r00      [10] 1955 	ld	hl,#_cx1 + 0
   071F B6            [ 7] 1956 	or	a,(hl)
   0720 5F            [ 4] 1957 	ld	e,a
   0721 21rFDr00      [10] 1958 	ld	hl,#_map_buff
   0724 16 00         [ 7] 1959 	ld	d,#0x00
   0726 19            [11] 1960 	add	hl, de
   0727 5E            [ 7] 1961 	ld	e,(hl)
   0728 2Ar86r00      [16] 1962 	ld	hl,(_c_behs)
   072B 16 00         [ 7] 1963 	ld	d,#0x00
   072D 19            [11] 1964 	add	hl, de
   072E 7E            [ 7] 1965 	ld	a,(hl)
   072F 32r20r00      [13] 1966 	ld	(#_at1 + 0),a
                           1967 ;engine/general.h:12: at2 = ATTR (cx2, cy2 ? cy2 - 1 : 0);
   0732 3Ar25r00      [13] 1968 	ld	a,(#_cy2 + 0)
   0735 B7            [ 4] 1969 	or	a, a
   0736 28 07         [12] 1970 	jr	Z,00108$
   0738 3Ar25r00      [13] 1971 	ld	a,(#_cy2 + 0)
   073B C6 FF         [ 7] 1972 	add	a,#0xFF
   073D 18 02         [12] 1973 	jr	00109$
   073F                    1974 00108$:
   073F 3E 00         [ 7] 1975 	ld	a,#0x00
   0741                    1976 00109$:
   0741 07            [ 4] 1977 	rlca
   0742 07            [ 4] 1978 	rlca
   0743 07            [ 4] 1979 	rlca
   0744 07            [ 4] 1980 	rlca
   0745 E6 F0         [ 7] 1981 	and	a,#0xF0
   0747 21r23r00      [10] 1982 	ld	hl,#_cx2 + 0
   074A B6            [ 7] 1983 	or	a,(hl)
   074B 5F            [ 4] 1984 	ld	e,a
   074C 21rFDr00      [10] 1985 	ld	hl,#_map_buff
   074F 16 00         [ 7] 1986 	ld	d,#0x00
   0751 19            [11] 1987 	add	hl, de
   0752 5E            [ 7] 1988 	ld	e,(hl)
   0753 2Ar86r00      [16] 1989 	ld	hl,(_c_behs)
   0756 16 00         [ 7] 1990 	ld	d,#0x00
   0758 19            [11] 1991 	add	hl, de
   0759 7E            [ 7] 1992 	ld	a,(hl)
   075A 32r21r00      [13] 1993 	ld	(#_at2 + 0),a
   075D C9            [10] 1994 	ret
                           1995 ;engine/general.h:71: void pad_read (void) {
                           1996 ;	---------------------------------
                           1997 ; Function pad_read
                           1998 ; ---------------------------------
   075E                    1999 _pad_read::
                           2000 ;engine/general.h:74: pad_this_frame = pad0;
   075E 2Ar04r00      [16] 2001 	ld	hl,(_pad0)
   0761 22r06r00      [16] 2002 	ld	(_pad_this_frame),hl
                           2003 ;engine/general.h:75: pad0 = SG_getKeysStatus ();			// Read pads here.
   0764 CDr00r00      [17] 2004 	call	_SG_getKeysStatus
   0767 22r04r00      [16] 2005 	ld	(_pad0),hl
                           2006 ;engine/general.h:76: pad_this_frame = (pad_this_frame ^ pad0) & pad0;
   076A 3Ar06r00      [13] 2007 	ld	a,(#_pad_this_frame + 0)
   076D FD 21r04r00   [14] 2008 	ld	iy,#_pad0
   0771 FD AE 00      [19] 2009 	xor	a, 0 (iy)
   0774 57            [ 4] 2010 	ld	d,a
   0775 3Ar07r00      [13] 2011 	ld	a,(#_pad_this_frame + 1)
   0778 FD 21r04r00   [14] 2012 	ld	iy,#_pad0
   077C FD AE 01      [19] 2013 	xor	a, 1 (iy)
   077F 5F            [ 4] 2014 	ld	e,a
   0780 7A            [ 4] 2015 	ld	a,d
   0781 FD 21r04r00   [14] 2016 	ld	iy,#_pad0
   0785 FD A6 00      [19] 2017 	and	a, 0 (iy)
   0788 32r06r00      [13] 2018 	ld	(#_pad_this_frame + 0),a
   078B 7B            [ 4] 2019 	ld	a,e
   078C FD 21r04r00   [14] 2020 	ld	iy,#_pad0
   0790 FD A6 01      [19] 2021 	and	a, 1 (iy)
   0793 32r07r00      [13] 2022 	ld	(#_pad_this_frame + 1),a
   0796 C9            [10] 2023 	ret
                           2024 ;engine/general.h:82: unsigned char distance (void) {
                           2025 ;	---------------------------------
                           2026 ; Function distance
                           2027 ; ---------------------------------
   0797                    2028 _distance::
                           2029 ;engine/general.h:83: rda = DELTA (prx, rdx); // dx
   0797 21r14r00      [10] 2030 	ld	hl,#_rdx
   079A 3Ar52r00      [13] 2031 	ld	a,(#_prx + 0)
   079D 96            [ 7] 2032 	sub	a, (hl)
   079E 30 09         [12] 2033 	jr	NC,00103$
   07A0 21r52r00      [10] 2034 	ld	hl,#_prx
   07A3 3Ar14r00      [13] 2035 	ld	a,(#_rdx + 0)
   07A6 96            [ 7] 2036 	sub	a, (hl)
   07A7 18 07         [12] 2037 	jr	00104$
   07A9                    2038 00103$:
   07A9 21r14r00      [10] 2039 	ld	hl,#_rdx
   07AC 3Ar52r00      [13] 2040 	ld	a,(#_prx + 0)
   07AF 96            [ 7] 2041 	sub	a, (hl)
   07B0                    2042 00104$:
   07B0 32r18r00      [13] 2043 	ld	(#_rda + 0),a
                           2044 ;engine/general.h:84: rdb = DELTA (pry, rdy); // dy
   07B3 21r15r00      [10] 2045 	ld	hl,#_rdy
   07B6 3Ar53r00      [13] 2046 	ld	a,(#_pry + 0)
   07B9 96            [ 7] 2047 	sub	a, (hl)
   07BA 30 09         [12] 2048 	jr	NC,00105$
   07BC 21r53r00      [10] 2049 	ld	hl,#_pry
   07BF 3Ar15r00      [13] 2050 	ld	a,(#_rdy + 0)
   07C2 96            [ 7] 2051 	sub	a, (hl)
   07C3 18 07         [12] 2052 	jr	00106$
   07C5                    2053 00105$:
   07C5 21r15r00      [10] 2054 	ld	hl,#_rdy
   07C8 3Ar53r00      [13] 2055 	ld	a,(#_pry + 0)
   07CB 96            [ 7] 2056 	sub	a, (hl)
   07CC                    2057 00106$:
   07CC 32r19r00      [13] 2058 	ld	(#_rdb + 0),a
                           2059 ;engine/general.h:85: rdc = MIN (rda, rdb);
   07CF 21r19r00      [10] 2060 	ld	hl,#_rdb
   07D2 3Ar18r00      [13] 2061 	ld	a,(#_rda + 0)
   07D5 BE            [ 7] 2062 	cp	a,(hl)
   07D6 38 03         [12] 2063 	jr	C,00108$
   07D8 3Ar19r00      [13] 2064 	ld	a,(#_rdb + 0)
   07DB                    2065 00108$:
   07DB 32r1Ar00      [13] 2066 	ld	(#_rdc + 0),a
                           2067 ;engine/general.h:86: return (rda + rdb - (rdc >> 1) - (rdc >> 2) + (rdc >> 4));
   07DE 21r19r00      [10] 2068 	ld	hl,#_rdb
   07E1 3Ar18r00      [13] 2069 	ld	a,(#_rda + 0)
   07E4 86            [ 7] 2070 	add	a, (hl)
   07E5 57            [ 4] 2071 	ld	d,a
   07E6 FD 21r1Ar00   [14] 2072 	ld	iy,#_rdc
   07EA FD 5E 00      [19] 2073 	ld	e,0 (iy)
   07ED CB 3B         [ 8] 2074 	srl	e
   07EF 7A            [ 4] 2075 	ld	a,d
   07F0 93            [ 4] 2076 	sub	a, e
   07F1 57            [ 4] 2077 	ld	d,a
   07F2 FD 21r1Ar00   [14] 2078 	ld	iy,#_rdc
   07F6 FD 5E 00      [19] 2079 	ld	e,0 (iy)
   07F9 CB 3B         [ 8] 2080 	srl	e
   07FB CB 3B         [ 8] 2081 	srl	e
   07FD 7A            [ 4] 2082 	ld	a,d
   07FE 93            [ 4] 2083 	sub	a, e
   07FF 4F            [ 4] 2084 	ld	c,a
   0800 3Ar1Ar00      [13] 2085 	ld	a,(#_rdc + 0)
   0803 07            [ 4] 2086 	rlca
   0804 07            [ 4] 2087 	rlca
   0805 07            [ 4] 2088 	rlca
   0806 07            [ 4] 2089 	rlca
   0807 E6 0F         [ 7] 2090 	and	a,#0x0F
   0809 6F            [ 4] 2091 	ld	l,a
   080A 09            [11] 2092 	add	hl, bc
   080B C9            [10] 2093 	ret
                           2094 ;engine/general.h:91: void jump_start (void) {
                           2095 ;	---------------------------------
                           2096 ; Function jump_start
                           2097 ; ---------------------------------
   080C                    2098 _jump_start::
                           2099 ;engine/general.h:92: pj = 1; pctj = 0; 
   080C 21r5Br00      [10] 2100 	ld	hl,#_pj + 0
   080F 36 01         [10] 2101 	ld	(hl), #0x01
   0811 21r5Cr00      [10] 2102 	ld	hl,#_pctj + 0
   0814 36 00         [10] 2103 	ld	(hl), #0x00
                           2104 ;engine/general.h:108: pvy = -PLAYER_VY_JUMP_INITIAL;
   0816 21 C0 FF      [10] 2105 	ld	hl,#0xFFC0
   0819 22r50r00      [16] 2106 	ld	(_pvy),hl
   081C C9            [10] 2107 	ret
                           2108 ;engine/general.h:114: void update_cycle (void) {
                           2109 ;	---------------------------------
                           2110 ; Function update_cycle
                           2111 ; ---------------------------------
   081D                    2112 _update_cycle::
                           2113 ;engine/general.h:115: SG_finalizeSprites ();
   081D CDr00r00      [17] 2114 	call	_SG_finalizeSprites
                           2115 ;engine/general.h:116: SG_waitForVBlank ();
   0820 CDr00r00      [17] 2116 	call	_SG_waitForVBlank
                           2117 ;engine/general.h:117: UNSAFE_SG_copySpritestoSAT ();
   0823 CDr00r00      [17] 2118 	call	_UNSAFE_SG_copySpritestoSAT
                           2119 ;engine/general.h:119: SG_initSprites ();
   0826 CDr00r00      [17] 2120 	call	_SG_initSprites
                           2121 ;engine/general.h:120: clear_update_list ();
   0829 C3r00r00      [10] 2122 	jp  _clear_update_list
                           2123 ;engine/general.h:123: void do_update_list_and_wait (void) {
                           2124 ;	---------------------------------
                           2125 ; Function do_update_list_and_wait
                           2126 ; ---------------------------------
   082C                    2127 _do_update_list_and_wait::
                           2128 ;engine/general.h:124: SG_waitForVBlank ();
   082C C3r00r00      [10] 2129 	jp  _SG_waitForVBlank
                           2130 ;engine/hotspots.h:7: void hotspots_load (void) {
                           2131 ;	---------------------------------
                           2132 ; Function hotspots_load
                           2133 ; ---------------------------------
   082F                    2134 _hotspots_load::
                           2135 ;engine/hotspots.h:9: gp_gen = (unsigned char *) c_hotspots;
   082F 2Ar95r00      [16] 2136 	ld	hl,(_c_hotspots)
   0832 22r0Cr00      [16] 2137 	ld	(_gp_gen),hl
                           2138 ;engine/hotspots.h:11: for (gpit = 0; gpit < MAP_SIZE; gpit ++) {
   0835 21r08r00      [10] 2139 	ld	hl,#_gpit + 0
   0838 36 00         [10] 2140 	ld	(hl), #0x00
   083A 11rD2r01      [10] 2141 	ld	de,#_hact+0
   083D                    2142 00102$:
                           2143 ;engine/hotspots.h:16: hact [gpit] = 1;
   083D 2Ar08r00      [16] 2144 	ld	hl,(_gpit)
   0840 26 00         [ 7] 2145 	ld	h,#0x00
   0842 19            [11] 2146 	add	hl,de
   0843 36 01         [10] 2147 	ld	(hl),#0x01
                           2148 ;engine/hotspots.h:11: for (gpit = 0; gpit < MAP_SIZE; gpit ++) {
   0845 21r08r00      [10] 2149 	ld	hl, #_gpit+0
   0848 34            [11] 2150 	inc	(hl)
   0849 3Ar08r00      [13] 2151 	ld	a,(#_gpit + 0)
   084C D6 18         [ 7] 2152 	sub	a, #0x18
   084E 38 ED         [12] 2153 	jr	C,00102$
   0850 C9            [10] 2154 	ret
                           2155 ;engine/hotspots.h:20: void hotspots_paint (void) {
                           2156 ;	---------------------------------
                           2157 ; Function hotspots_paint
                           2158 ; ---------------------------------
   0851                    2159 _hotspots_paint::
                           2160 ;engine/hotspots.h:30: rda = hrt;
   0851 3Ar7Cr00      [13] 2161 	ld	a,(#_hrt + 0)
   0854 32r18r00      [13] 2162 	ld	(#_rda + 0),a
                           2163 ;engine/hotspots.h:33: if (hrt == HOTSPOT_TYPE_RESONATOR && res_on) rda = HOTSPOT_TYPE_RESONATOR_ON;
   0857 3Ar7Cr00      [13] 2164 	ld	a,(#_hrt + 0)
   085A D6 04         [ 7] 2165 	sub	a, #0x04
   085C 20 0B         [12] 2166 	jr	NZ,00102$
   085E 3ArB7r02      [13] 2167 	ld	a,(#_res_on + 0)
   0861 B7            [ 4] 2168 	or	a, a
   0862 28 05         [12] 2169 	jr	Z,00102$
   0864 21r18r00      [10] 2170 	ld	hl,#_rda + 0
   0867 36 05         [10] 2171 	ld	(hl), #0x05
   0869                    2172 00102$:
                           2173 ;engine/hotspots.h:38: spr_hs [rda]
   0869 11rC4r01      [10] 2174 	ld	de,#_spr_hs+0
   086C FD 21r18r00   [14] 2175 	ld	iy,#_rda
   0870 FD 6E 00      [19] 2176 	ld	l,0 (iy)
   0873 26 00         [ 7] 2177 	ld	h,#0x00
   0875 29            [11] 2178 	add	hl, hl
   0876 19            [11] 2179 	add	hl,de
   0877 5E            [ 7] 2180 	ld	e,(hl)
   0878 23            [ 6] 2181 	inc	hl
   0879 56            [ 7] 2182 	ld	d,(hl)
                           2183 ;engine/hotspots.h:37: hrx, hry + SPRITE_ADJUST, 
   087A 3Ar7Br00      [13] 2184 	ld	a,(#_hry + 0)
   087D C6 F8         [ 7] 2185 	add	a, #0xF8
   087F 67            [ 4] 2186 	ld	h,a
   0880 D5            [11] 2187 	push	de
   0881 E5            [11] 2188 	push	hl
   0882 33            [ 6] 2189 	inc	sp
   0883 3Ar7Ar00      [13] 2190 	ld	a,(_hrx)
   0886 F5            [11] 2191 	push	af
   0887 33            [ 6] 2192 	inc	sp
   0888 CDr00r00      [17] 2193 	call	_SG_addMetaSprite1x1
   088B F1            [10] 2194 	pop	af
   088C F1            [10] 2195 	pop	af
   088D C9            [10] 2196 	ret
                           2197 ;engine/hotspots.h:42: void hotspots_create (void) {
                           2198 ;	---------------------------------
                           2199 ; Function hotspots_create
                           2200 ; ---------------------------------
   088E                    2201 _hotspots_create::
                           2202 ;engine/hotspots.h:54: gp_gen = (unsigned char *) (c_hotspots + (n_pant << 1));
   088E FD 21rC0r01   [14] 2203 	ld	iy,#_n_pant
   0892 FD 6E 00      [19] 2204 	ld	l,0 (iy)
   0895 26 00         [ 7] 2205 	ld	h,#0x00
   0897 29            [11] 2206 	add	hl, hl
   0898 55            [ 4] 2207 	ld	d,l
   0899 5C            [ 4] 2208 	ld	e,h
   089A 21r0Cr00      [10] 2209 	ld	hl,#_gp_gen
   089D 3Ar95r00      [13] 2210 	ld	a,(#_c_hotspots + 0)
   08A0 82            [ 4] 2211 	add	a, d
   08A1 77            [ 7] 2212 	ld	(hl),a
   08A2 3Ar96r00      [13] 2213 	ld	a,(#_c_hotspots + 1)
   08A5 8B            [ 4] 2214 	adc	a, e
   08A6 23            [ 6] 2215 	inc	hl
   08A7 77            [ 7] 2216 	ld	(hl),a
                           2217 ;engine/hotspots.h:55: hrt = *gp_gen ++; rda = *gp_gen; 
   08A8 2Ar0Cr00      [16] 2218 	ld	hl,(_gp_gen)
   08AB 7E            [ 7] 2219 	ld	a,(hl)
   08AC 32r7Cr00      [13] 2220 	ld	(#_hrt + 0),a
   08AF 21r0Cr00      [10] 2221 	ld	hl, #_gp_gen+0
   08B2 34            [11] 2222 	inc	(hl)
   08B3 20 04         [12] 2223 	jr	NZ,00115$
   08B5 21r0Dr00      [10] 2224 	ld	hl, #_gp_gen+1
   08B8 34            [11] 2225 	inc	(hl)
   08B9                    2226 00115$:
   08B9 2Ar0Cr00      [16] 2227 	ld	hl,(_gp_gen)
   08BC 7E            [ 7] 2228 	ld	a,(hl)
   08BD 32r18r00      [13] 2229 	ld	(#_rda + 0),a
                           2230 ;engine/hotspots.h:56: if (hrt && hact [n_pant]) {
   08C0 3Ar7Cr00      [13] 2231 	ld	a,(#_hrt + 0)
   08C3 B7            [ 4] 2232 	or	a, a
   08C4 28 22         [12] 2233 	jr	Z,00102$
   08C6 11rD2r01      [10] 2234 	ld	de,#_hact+0
   08C9 2ArC0r01      [16] 2235 	ld	hl,(_n_pant)
   08CC 26 00         [ 7] 2236 	ld	h,#0x00
   08CE 19            [11] 2237 	add	hl,de
   08CF 7E            [ 7] 2238 	ld	a,(hl)
   08D0 B7            [ 4] 2239 	or	a, a
   08D1 28 15         [12] 2240 	jr	Z,00102$
                           2241 ;engine/hotspots.h:57: hry = rda & 0xf0; hrx = rda << 4;
   08D3 3Ar18r00      [13] 2242 	ld	a,(#_rda + 0)
   08D6 E6 F0         [ 7] 2243 	and	a, #0xF0
   08D8 32r7Br00      [13] 2244 	ld	(#_hry + 0),a
   08DB 3Ar18r00      [13] 2245 	ld	a,(#_rda + 0)
   08DE 07            [ 4] 2246 	rlca
   08DF 07            [ 4] 2247 	rlca
   08E0 07            [ 4] 2248 	rlca
   08E1 07            [ 4] 2249 	rlca
   08E2 E6 F0         [ 7] 2250 	and	a,#0xF0
   08E4 32r7Ar00      [13] 2251 	ld	(#_hrx + 0),a
   08E7 C9            [10] 2252 	ret
   08E8                    2253 00102$:
                           2254 ;engine/hotspots.h:58: } else hrt = 0;
   08E8 21r7Cr00      [10] 2255 	ld	hl,#_hrt + 0
   08EB 36 00         [10] 2256 	ld	(hl), #0x00
   08ED C9            [10] 2257 	ret
                           2258 ;engine/tile_chac_chac.h:6: void chac_chacs_add (void) {
                           2259 ;	---------------------------------
                           2260 ; Function chac_chacs_add
                           2261 ; ---------------------------------
   08EE                    2262 _chac_chacs_add::
                           2263 ;engine/tile_chac_chac.h:8: if (max_chac_chacs == MAX_CHAC_CHACS) return;
   08EE 3Ar93r02      [13] 2264 	ld	a,(#_max_chac_chacs + 0)
   08F1 D6 04         [ 7] 2265 	sub	a, #0x04
   08F3 C8            [11] 2266 	ret	Z
   08F4 18 00         [12] 2267 	jr	00102$
   08F6                    2268 00102$:
                           2269 ;engine/tile_chac_chac.h:9: rda = 1 + (rdt - CHAC_CHAC_DETECT_TILE);
   08F6 21r18r00      [10] 2270 	ld	hl,#_rda
   08F9 3Ar16r00      [13] 2271 	ld	a,(#_rdt + 0)
   08FC C6 DA         [ 7] 2272 	add	a, #0xDA
   08FE 77            [ 7] 2273 	ld	(hl),a
                           2274 ;engine/tile_chac_chac.h:10: rdb = rda << 4;
   08FF 3Ar18r00      [13] 2275 	ld	a,(#_rda + 0)
   0902 07            [ 4] 2276 	rlca
   0903 07            [ 4] 2277 	rlca
   0904 07            [ 4] 2278 	rlca
   0905 07            [ 4] 2279 	rlca
   0906 E6 F0         [ 7] 2280 	and	a,#0xF0
                           2281 ;engine/tile_chac_chac.h:11: rdc = (rdb << 1) + rdb;
   0908 32r19r00      [13] 2282 	ld	(#_rdb + 0),a
   090B 87            [ 4] 2283 	add	a, a
   090C 21r19r00      [10] 2284 	ld	hl,#_rdb
   090F FD 21r1Ar00   [14] 2285 	ld	iy,#_rdc
   0913 86            [ 7] 2286 	add	a, (hl)
   0914 FD 77 00      [19] 2287 	ld	0 (iy),a
                           2288 ;engine/tile_chac_chac.h:13: chac_chacs_yx [max_chac_chacs] = rdm;
   0917 11r94r02      [10] 2289 	ld	de,#_chac_chacs_yx+0
   091A 2Ar93r02      [16] 2290 	ld	hl,(_max_chac_chacs)
   091D 26 00         [ 7] 2291 	ld	h,#0x00
   091F 19            [11] 2292 	add	hl,de
   0920 3Ar1Cr00      [13] 2293 	ld	a,(#_rdm + 0)
   0923 77            [ 7] 2294 	ld	(hl),a
                           2295 ;engine/tile_chac_chac.h:14: chac_chacs_state [max_chac_chacs] = 0;
   0924 11r98r02      [10] 2296 	ld	de,#_chac_chacs_state+0
   0927 2Ar93r02      [16] 2297 	ld	hl,(_max_chac_chacs)
   092A 26 00         [ 7] 2298 	ld	h,#0x00
   092C 19            [11] 2299 	add	hl,de
   092D 36 00         [10] 2300 	ld	(hl),#0x00
                           2301 ;engine/tile_chac_chac.h:15: chac_chacs_idlewait [max_chac_chacs] = rdc;
   092F 11r9Cr02      [10] 2302 	ld	de,#_chac_chacs_idlewait+0
   0932 2Ar93r02      [16] 2303 	ld	hl,(_max_chac_chacs)
   0935 26 00         [ 7] 2304 	ld	h,#0x00
   0937 19            [11] 2305 	add	hl,de
   0938 3Ar1Ar00      [13] 2306 	ld	a,(#_rdc + 0)
   093B 77            [ 7] 2307 	ld	(hl),a
                           2308 ;engine/tile_chac_chac.h:16: chac_chacs_ct [max_chac_chacs] = rdc;
   093C 11rA0r02      [10] 2309 	ld	de,#_chac_chacs_ct+0
   093F 2Ar93r02      [16] 2310 	ld	hl,(_max_chac_chacs)
   0942 26 00         [ 7] 2311 	ld	h,#0x00
   0944 19            [11] 2312 	add	hl,de
   0945 3Ar1Ar00      [13] 2313 	ld	a,(#_rdc + 0)
   0948 77            [ 7] 2314 	ld	(hl),a
                           2315 ;engine/tile_chac_chac.h:18: ++ max_chac_chacs;
   0949 21r93r02      [10] 2316 	ld	hl, #_max_chac_chacs+0
   094C 34            [11] 2317 	inc	(hl)
   094D C9            [10] 2318 	ret
                           2319 ;engine/tile_chac_chac.h:21: void chac_chacs_do (void) {
                           2320 ;	---------------------------------
                           2321 ; Function chac_chacs_do
                           2322 ; ---------------------------------
   094E                    2323 _chac_chacs_do::
   094E DD E5         [15] 2324 	push	ix
   0950 DD 21 00 00   [14] 2325 	ld	ix,#0
   0954 DD 39         [15] 2326 	add	ix,sp
   0956 F5            [11] 2327 	push	af
                           2328 ;engine/tile_chac_chac.h:22: gpit = max_chac_chacs; while (gpit --) {
   0957 3Ar93r02      [13] 2329 	ld	a,(#_max_chac_chacs + 0)
   095A 32r08r00      [13] 2330 	ld	(#_gpit + 0),a
   095D                    2331 00106$:
   095D FD 21r08r00   [14] 2332 	ld	iy,#_gpit
   0961 FD 56 00      [19] 2333 	ld	d,0 (iy)
   0964 FD 21r08r00   [14] 2334 	ld	iy,#_gpit
   0968 FD 35 00      [23] 2335 	dec	0 (iy)
   096B 7A            [ 4] 2336 	ld	a,d
   096C B7            [ 4] 2337 	or	a, a
   096D CAr06r0A      [10] 2338 	jp	Z,00108$
                           2339 ;engine/tile_chac_chac.h:23: if (chac_chacs_ct [gpit]) -- chac_chacs_ct [gpit]; else {
   0970 3Ar08r00      [13] 2340 	ld	a,(#_gpit + 0)
   0973 C6rA0         [ 7] 2341 	add	a, #<(_chac_chacs_ct)
   0975 DD 77 FE      [19] 2342 	ld	-2 (ix),a
   0978 3E 00         [ 7] 2343 	ld	a,#0x00
   097A CEs02         [ 7] 2344 	adc	a, #>(_chac_chacs_ct)
   097C DD 77 FF      [19] 2345 	ld	-1 (ix),a
   097F E1            [10] 2346 	pop	hl
   0980 E5            [11] 2347 	push	hl
   0981 7E            [ 7] 2348 	ld	a,(hl)
   0982 B7            [ 4] 2349 	or	a, a
   0983 28 07         [12] 2350 	jr	Z,00104$
   0985 C6 FF         [ 7] 2351 	add	a,#0xFF
   0987 E1            [10] 2352 	pop	hl
   0988 E5            [11] 2353 	push	hl
   0989 77            [ 7] 2354 	ld	(hl),a
   098A 18 D1         [12] 2355 	jr	00106$
   098C                    2356 00104$:
                           2357 ;engine/tile_chac_chac.h:24: ++ chac_chacs_state [gpit];
   098C 3Er98         [ 7] 2358 	ld	a,#<(_chac_chacs_state)
   098E 21r08r00      [10] 2359 	ld	hl,#_gpit
   0991 86            [ 7] 2360 	add	a, (hl)
   0992 5F            [ 4] 2361 	ld	e,a
   0993 3Es02         [ 7] 2362 	ld	a,#>(_chac_chacs_state)
   0995 CE 00         [ 7] 2363 	adc	a, #0x00
   0997 57            [ 4] 2364 	ld	d,a
   0998 1A            [ 7] 2365 	ld	a,(de)
   0999 3C            [ 4] 2366 	inc	a
   099A 12            [ 7] 2367 	ld	(de),a
                           2368 ;engine/tile_chac_chac.h:25: if (chac_chacs_state [gpit] == 6) chac_chacs_state [gpit] = 0;
   099B 3Er98         [ 7] 2369 	ld	a,#<(_chac_chacs_state)
   099D 21r08r00      [10] 2370 	ld	hl,#_gpit
   09A0 86            [ 7] 2371 	add	a, (hl)
   09A1 5F            [ 4] 2372 	ld	e,a
   09A2 3Es02         [ 7] 2373 	ld	a,#>(_chac_chacs_state)
   09A4 CE 00         [ 7] 2374 	adc	a, #0x00
   09A6 57            [ 4] 2375 	ld	d,a
   09A7 1A            [ 7] 2376 	ld	a,(de)
   09A8 D6 06         [ 7] 2377 	sub	a, #0x06
   09AA 20 02         [12] 2378 	jr	NZ,00102$
   09AC AF            [ 4] 2379 	xor	a, a
   09AD 12            [ 7] 2380 	ld	(de),a
   09AE                    2381 00102$:
                           2382 ;engine/tile_chac_chac.h:26: chac_chacs_ct [gpit] = chac_chacs_state [gpit] ? 
   09AE 3ErA0         [ 7] 2383 	ld	a,#<(_chac_chacs_ct)
   09B0 21r08r00      [10] 2384 	ld	hl,#_gpit
   09B3 86            [ 7] 2385 	add	a, (hl)
   09B4 4F            [ 4] 2386 	ld	c,a
   09B5 3Es02         [ 7] 2387 	ld	a,#>(_chac_chacs_ct)
   09B7 CE 00         [ 7] 2388 	adc	a, #0x00
   09B9 47            [ 4] 2389 	ld	b,a
   09BA FD 21r98r02   [14] 2390 	ld	iy,#_chac_chacs_state
   09BE ED 5Br08r00   [20] 2391 	ld	de,(_gpit)
   09C2 16 00         [ 7] 2392 	ld	d,#0x00
   09C4 FD 19         [15] 2393 	add	iy, de
   09C6 FD 5E 00      [19] 2394 	ld	e, 0 (iy)
   09C9 7B            [ 4] 2395 	ld	a,e
   09CA B7            [ 4] 2396 	or	a, a
   09CB 28 09         [12] 2397 	jr	Z,00115$
                           2398 ;engine/tile_chac_chac.h:27: (chac_chacs_times [chac_chacs_state [gpit]]) :
   09CD 21r17r00      [10] 2399 	ld	hl,#_chac_chacs_times
   09D0 16 00         [ 7] 2400 	ld	d,#0x00
   09D2 19            [11] 2401 	add	hl, de
   09D3 7E            [ 7] 2402 	ld	a,(hl)
   09D4 18 0F         [12] 2403 	jr	00116$
   09D6                    2404 00115$:
                           2405 ;engine/tile_chac_chac.h:28: chac_chacs_idlewait [gpit];
   09D6 FD 21r9Cr02   [14] 2406 	ld	iy,#_chac_chacs_idlewait
   09DA ED 5Br08r00   [20] 2407 	ld	de,(_gpit)
   09DE 16 00         [ 7] 2408 	ld	d,#0x00
   09E0 FD 19         [15] 2409 	add	iy, de
   09E2 FD 7E 00      [19] 2410 	ld	a, 0 (iy)
   09E5                    2411 00116$:
   09E5 02            [ 7] 2412 	ld	(bc),a
                           2413 ;engine/tile_chac_chac.h:31: chac_chacs_queue [chac_chacs_queue_write] = gpit;
   09E6 3ErA4         [ 7] 2414 	ld	a,#<(_chac_chacs_queue)
   09E8 21rB5r02      [10] 2415 	ld	hl,#_chac_chacs_queue_write
   09EB 86            [ 7] 2416 	add	a, (hl)
   09EC 5F            [ 4] 2417 	ld	e,a
   09ED 3Es02         [ 7] 2418 	ld	a,#>(_chac_chacs_queue)
   09EF CE 00         [ 7] 2419 	adc	a, #0x00
   09F1 57            [ 4] 2420 	ld	d,a
   09F2 3Ar08r00      [13] 2421 	ld	a,(#_gpit + 0)
   09F5 12            [ 7] 2422 	ld	(de),a
                           2423 ;engine/tile_chac_chac.h:32: chac_chacs_queue_write = (chac_chacs_queue_write + 1) & (MAX_CHAC_CHACKS_QUEUED-1);
   09F6 3ArB5r02      [13] 2424 	ld	a,(#_chac_chacs_queue_write + 0)
   09F9 3C            [ 4] 2425 	inc	a
   09FA E6 0F         [ 7] 2426 	and	a, #0x0F
   09FC FD 21rB5r02   [14] 2427 	ld	iy,#_chac_chacs_queue_write
   0A00 FD 77 00      [19] 2428 	ld	0 (iy),a
   0A03 C3r5Dr09      [10] 2429 	jp	00106$
   0A06                    2430 00108$:
                           2431 ;engine/tile_chac_chac.h:36: if (chac_chacs_queue_write != chac_chacs_queue_read) {
   0A06 3ArB5r02      [13] 2432 	ld	a,(#_chac_chacs_queue_write + 0)
   0A09 FD 21rB4r02   [14] 2433 	ld	iy,#_chac_chacs_queue_read
   0A0D FD 96 00      [19] 2434 	sub	a, 0 (iy)
   0A10 CArB9r0A      [10] 2435 	jp	Z,00113$
                           2436 ;engine/tile_chac_chac.h:37: gpit = chac_chacs_queue [chac_chacs_queue_read];
   0A13 3ErA4         [ 7] 2437 	ld	a,#<(_chac_chacs_queue)
   0A15 21rB4r02      [10] 2438 	ld	hl,#_chac_chacs_queue_read
   0A18 86            [ 7] 2439 	add	a, (hl)
   0A19 5F            [ 4] 2440 	ld	e,a
   0A1A 3Es02         [ 7] 2441 	ld	a,#>(_chac_chacs_queue)
   0A1C CE 00         [ 7] 2442 	adc	a, #0x00
   0A1E 57            [ 4] 2443 	ld	d,a
   0A1F 1A            [ 7] 2444 	ld	a,(de)
   0A20 32r08r00      [13] 2445 	ld	(#_gpit + 0),a
                           2446 ;engine/tile_chac_chac.h:38: chac_chacs_queue_read = (chac_chacs_queue_read + 1) & (MAX_CHAC_CHACKS_QUEUED-1);
   0A23 3ArB4r02      [13] 2447 	ld	a,(#_chac_chacs_queue_read + 0)
   0A26 3C            [ 4] 2448 	inc	a
   0A27 E6 0F         [ 7] 2449 	and	a, #0x0F
   0A29 32rB4r02      [13] 2450 	ld	(#_chac_chacs_queue_read + 0),a
                           2451 ;engine/tile_chac_chac.h:39: rdm = chac_chacs_state [gpit];
   0A2C 3Er98         [ 7] 2452 	ld	a,#<(_chac_chacs_state)
   0A2E 21r08r00      [10] 2453 	ld	hl,#_gpit
   0A31 86            [ 7] 2454 	add	a, (hl)
   0A32 5F            [ 4] 2455 	ld	e,a
   0A33 3Es02         [ 7] 2456 	ld	a,#>(_chac_chacs_state)
   0A35 CE 00         [ 7] 2457 	adc	a, #0x00
   0A37 57            [ 4] 2458 	ld	d,a
   0A38 1A            [ 7] 2459 	ld	a,(de)
                           2460 ;engine/tile_chac_chac.h:40: if (rdm == 3) { 
   0A39 32r1Cr00      [13] 2461 	ld	(#_rdm + 0),a
   0A3C D6 03         [ 7] 2462 	sub	a, #0x03
   0A3E 20 05         [12] 2463 	jr	NZ,00110$
                           2464 ;engine/tile_chac_chac.h:41: shaker_ct = 8; 
   0A40 21rBCr02      [10] 2465 	ld	hl,#_shaker_ct + 0
   0A43 36 08         [10] 2466 	ld	(hl), #0x08
   0A45                    2467 00110$:
                           2468 ;engine/tile_chac_chac.h:44: rdx = chac_chacs_yx [gpit]; rdy = rdx >> 4; rdx &= 0xf;
   0A45 11r94r02      [10] 2469 	ld	de,#_chac_chacs_yx+0
   0A48 2Ar08r00      [16] 2470 	ld	hl,(_gpit)
   0A4B 26 00         [ 7] 2471 	ld	h,#0x00
   0A4D 19            [11] 2472 	add	hl,de
   0A4E 7E            [ 7] 2473 	ld	a,(hl)
   0A4F 32r14r00      [13] 2474 	ld	(#_rdx + 0),a
   0A52 07            [ 4] 2475 	rlca
   0A53 07            [ 4] 2476 	rlca
   0A54 07            [ 4] 2477 	rlca
   0A55 07            [ 4] 2478 	rlca
   0A56 E6 0F         [ 7] 2479 	and	a,#0x0F
   0A58 32r15r00      [13] 2480 	ld	(#_rdy + 0),a
   0A5B 3Ar14r00      [13] 2481 	ld	a,(#_rdx + 0)
   0A5E E6 0F         [ 7] 2482 	and	a, #0x0F
                           2483 ;engine/tile_chac_chac.h:45: _x = rdx; _y = rdy    ; _t = chac_chacs_t1 [rdm]; map_set ();
   0A60 32r14r00      [13] 2484 	ld	(#_rdx + 0),a
   0A63 32r00r00      [13] 2485 	ld	(#__x + 0),a
   0A66 3Ar15r00      [13] 2486 	ld	a,(#_rdy + 0)
   0A69 32r01r00      [13] 2487 	ld	(#__y + 0),a
   0A6C 11r1Dr00      [10] 2488 	ld	de,#_chac_chacs_t1+0
   0A6F 2Ar1Cr00      [16] 2489 	ld	hl,(_rdm)
   0A72 26 00         [ 7] 2490 	ld	h,#0x00
   0A74 19            [11] 2491 	add	hl,de
   0A75 7E            [ 7] 2492 	ld	a,(hl)
   0A76 32r03r00      [13] 2493 	ld	(#__t + 0),a
   0A79 CDr25r04      [17] 2494 	call	_map_set
                           2495 ;engine/tile_chac_chac.h:46: _x = rdx; _y = rdy + 1; _t = chac_chacs_t2 [rdm]; map_set ();
   0A7C 3Ar14r00      [13] 2496 	ld	a,(#_rdx + 0)
   0A7F 32r00r00      [13] 2497 	ld	(#__x + 0),a
   0A82 21r01r00      [10] 2498 	ld	hl,#__y
   0A85 3Ar15r00      [13] 2499 	ld	a,(#_rdy + 0)
   0A88 3C            [ 4] 2500 	inc	a
   0A89 77            [ 7] 2501 	ld	(hl),a
   0A8A 11r23r00      [10] 2502 	ld	de,#_chac_chacs_t2+0
   0A8D 2Ar1Cr00      [16] 2503 	ld	hl,(_rdm)
   0A90 26 00         [ 7] 2504 	ld	h,#0x00
   0A92 19            [11] 2505 	add	hl,de
   0A93 7E            [ 7] 2506 	ld	a,(hl)
   0A94 32r03r00      [13] 2507 	ld	(#__t + 0),a
   0A97 CDr25r04      [17] 2508 	call	_map_set
                           2509 ;engine/tile_chac_chac.h:47: _x = rdx; _y = rdy + 2; _t = chac_chacs_t3 [rdm]; map_set ();
   0A9A 3Ar14r00      [13] 2510 	ld	a,(#_rdx + 0)
   0A9D 32r00r00      [13] 2511 	ld	(#__x + 0),a
   0AA0 21r01r00      [10] 2512 	ld	hl,#__y
   0AA3 3Ar15r00      [13] 2513 	ld	a,(#_rdy + 0)
   0AA6 C6 02         [ 7] 2514 	add	a, #0x02
   0AA8 77            [ 7] 2515 	ld	(hl),a
   0AA9 11r29r00      [10] 2516 	ld	de,#_chac_chacs_t3+0
   0AAC 2Ar1Cr00      [16] 2517 	ld	hl,(_rdm)
   0AAF 26 00         [ 7] 2518 	ld	h,#0x00
   0AB1 19            [11] 2519 	add	hl,de
   0AB2 7E            [ 7] 2520 	ld	a,(hl)
   0AB3 32r03r00      [13] 2521 	ld	(#__t + 0),a
   0AB6 CDr25r04      [17] 2522 	call	_map_set
   0AB9                    2523 00113$:
   0AB9 DD F9         [10] 2524 	ld	sp, ix
   0ABB DD E1         [14] 2525 	pop	ix
   0ABD C9            [10] 2526 	ret
                           2527 ;engine/player.h:8: void player_register_safe_spot (void) {
                           2528 ;	---------------------------------
                           2529 ; Function player_register_safe_spot
                           2530 ; ---------------------------------
   0ABE                    2531 _player_register_safe_spot::
                           2532 ;engine/player.h:9: px_safe = px;
   0ABE 2Ar4Ar00      [16] 2533 	ld	hl,(_px)
   0AC1 22r76r00      [16] 2534 	ld	(_px_safe),hl
                           2535 ;engine/player.h:10: py_safe = py;
   0AC4 2Ar4Cr00      [16] 2536 	ld	hl,(_py)
   0AC7 22r78r00      [16] 2537 	ld	(_py_safe),hl
                           2538 ;engine/player.h:11: n_pant_safe = n_pant;
   0ACA 3ArC0r01      [13] 2539 	ld	a,(#_n_pant + 0)
   0ACD 32r75r00      [13] 2540 	ld	(#_n_pant_safe + 0),a
   0AD0 C9            [10] 2541 	ret
                           2542 ;engine/player.h:15: void player_stop (void) {
                           2543 ;	---------------------------------
                           2544 ; Function player_stop
                           2545 ; ---------------------------------
   0AD1                    2546 _player_stop::
                           2547 ;engine/player.h:16: pvx = pvy = 0;
   0AD1 21 00 00      [10] 2548 	ld	hl,#0x0000
   0AD4 22r50r00      [16] 2549 	ld	(_pvy),hl
   0AD7 2E 00         [ 7] 2550 	ld	l, #0x00
   0AD9 22r4Er00      [16] 2551 	ld	(_pvx),hl
   0ADC C9            [10] 2552 	ret
                           2553 ;engine/player.h:19: void player_init (void) {
                           2554 ;	---------------------------------
                           2555 ; Function player_init
                           2556 ; ---------------------------------
   0ADD                    2557 _player_init::
                           2558 ;engine/player.h:22: if (!warp_to_level) player_stop ();
   0ADD 3ArC7r01      [13] 2559 	ld	a,(#_warp_to_level + 0)
   0AE0 B7            [ 4] 2560 	or	a, a
   0AE1 20 03         [12] 2561 	jr	NZ,00102$
   0AE3 CDrD1r0A      [17] 2562 	call	_player_stop
   0AE6                    2563 00102$:
                           2564 ;engine/player.h:27: pfacing = 0;
   0AE6 21r56r00      [10] 2565 	ld	hl,#_pfacing + 0
   0AE9 36 00         [10] 2566 	ld	(hl), #0x00
                           2567 ;engine/player.h:30: pfr = pctfr = 0;
   0AEB 21rD1r01      [10] 2568 	ld	hl,#_pctfr + 0
   0AEE 36 00         [10] 2569 	ld	(hl), #0x00
   0AF0 21r57r00      [10] 2570 	ld	hl,#_pfr + 0
   0AF3 36 00         [10] 2571 	ld	(hl), #0x00
                           2572 ;engine/player.h:31: pj = pctj = 0;
   0AF5 21r5Cr00      [10] 2573 	ld	hl,#_pctj + 0
   0AF8 36 00         [10] 2574 	ld	(hl), #0x00
   0AFA 21r5Br00      [10] 2575 	ld	hl,#_pj + 0
   0AFD 36 00         [10] 2576 	ld	(hl), #0x00
                           2577 ;engine/player.h:32: psprid = 0;
   0AFF 21r58r00      [10] 2578 	ld	hl,#_psprid + 0
   0B02 36 00         [10] 2579 	ld	(hl), #0x00
                           2580 ;engine/player.h:39: pkeys = 0;
   0B04 21r70r00      [10] 2581 	ld	hl,#_pkeys + 0
   0B07 36 00         [10] 2582 	ld	(hl), #0x00
                           2583 ;engine/player.h:42: pgotten = 0;
   0B09 21r5Dr00      [10] 2584 	ld	hl,#_pgotten + 0
   0B0C 36 00         [10] 2585 	ld	(hl), #0x00
                           2586 ;engine/player.h:43: pfiring = 0;
   0B0E 21r74r00      [10] 2587 	ld	hl,#_pfiring + 0
   0B11 36 00         [10] 2588 	ld	(hl), #0x00
                           2589 ;engine/player.h:46: pkilled = 0;
   0B13 21r73r00      [10] 2590 	ld	hl,#_pkilled + 0
   0B16 36 00         [10] 2591 	ld	(hl), #0x00
                           2592 ;engine/player.h:62: pflickering = pbouncing = 0;
   0B18 21r61r00      [10] 2593 	ld	hl,#_pbouncing + 0
   0B1B 36 00         [10] 2594 	ld	(hl), #0x00
   0B1D 21r60r00      [10] 2595 	ld	hl,#_pflickering + 0
   0B20 36 00         [10] 2596 	ld	(hl), #0x00
                           2597 ;engine/player.h:65: player_register_safe_spot ();
   0B22 CDrBEr0A      [17] 2598 	call	_player_register_safe_spot
                           2599 ;engine/player.h:75: vertical_engine_type = ENGINE_TYPE_JUMP;
   0B25 21r49r00      [10] 2600 	ld	hl,#_vertical_engine_type + 0
   0B28 36 00         [10] 2601 	ld	(hl), #0x00
   0B2A C9            [10] 2602 	ret
                           2603 ;engine/player.h:94: void player_render (void) {
                           2604 ;	---------------------------------
                           2605 ; Function player_render
                           2606 ; ---------------------------------
   0B2B                    2607 _player_render::
                           2608 ;engine/player.h:95: if (0 == pflickering || half_life) 
   0B2B 3Ar60r00      [13] 2609 	ld	a,(#_pflickering + 0)
   0B2E B7            [ 4] 2610 	or	a, a
   0B2F 28 05         [12] 2611 	jr	Z,00101$
   0B31 3ArC2r01      [13] 2612 	ld	a,(#_half_life + 0)
   0B34 B7            [ 4] 2613 	or	a, a
   0B35 C8            [11] 2614 	ret	Z
   0B36                    2615 00101$:
                           2616 ;engine/player.h:98: spr_player [psprid]
   0B36 11rAEr00      [10] 2617 	ld	de,#_spr_player+0
   0B39 FD 21r58r00   [14] 2618 	ld	iy,#_psprid
   0B3D FD 6E 00      [19] 2619 	ld	l,0 (iy)
   0B40 26 00         [ 7] 2620 	ld	h,#0x00
   0B42 29            [11] 2621 	add	hl, hl
   0B43 19            [11] 2622 	add	hl,de
   0B44 5E            [ 7] 2623 	ld	e,(hl)
   0B45 23            [ 6] 2624 	inc	hl
   0B46 56            [ 7] 2625 	ld	d,(hl)
                           2626 ;engine/player.h:97: prx, pry + SPRITE_ADJUST, 
   0B47 3Ar53r00      [13] 2627 	ld	a,(#_pry + 0)
   0B4A C6 F8         [ 7] 2628 	add	a, #0xF8
   0B4C 67            [ 4] 2629 	ld	h,a
   0B4D D5            [11] 2630 	push	de
   0B4E E5            [11] 2631 	push	hl
   0B4F 33            [ 6] 2632 	inc	sp
   0B50 3Ar52r00      [13] 2633 	ld	a,(_prx)
   0B53 F5            [11] 2634 	push	af
   0B54 33            [ 6] 2635 	inc	sp
   0B55 CDr00r00      [17] 2636 	call	_SG_addMetaSprite1x1
   0B58 F1            [10] 2637 	pop	af
   0B59 F1            [10] 2638 	pop	af
   0B5A C9            [10] 2639 	ret
                           2640 ;engine/player.h:102: void player_to_pixels (void) {
                           2641 ;	---------------------------------
                           2642 ; Function player_to_pixels
                           2643 ; ---------------------------------
   0B5B                    2644 _player_to_pixels::
                           2645 ;engine/player.h:103: prx = px >> FIXBITS;
   0B5B 2Ar4Ar00      [16] 2646 	ld	hl,(_px)
   0B5E CB 2C         [ 8] 2647 	sra	h
   0B60 CB 1D         [ 8] 2648 	rr	l
   0B62 CB 2C         [ 8] 2649 	sra	h
   0B64 CB 1D         [ 8] 2650 	rr	l
   0B66 CB 2C         [ 8] 2651 	sra	h
   0B68 CB 1D         [ 8] 2652 	rr	l
   0B6A CB 2C         [ 8] 2653 	sra	h
   0B6C CB 1D         [ 8] 2654 	rr	l
   0B6E CB 2C         [ 8] 2655 	sra	h
   0B70 CB 1D         [ 8] 2656 	rr	l
   0B72 CB 2C         [ 8] 2657 	sra	h
   0B74 CB 1D         [ 8] 2658 	rr	l
   0B76 FD 21r52r00   [14] 2659 	ld	iy,#_prx
   0B7A FD 75 00      [19] 2660 	ld	0 (iy),l
                           2661 ;engine/player.h:104: pry = py >> FIXBITS;
   0B7D 2Ar4Cr00      [16] 2662 	ld	hl,(_py)
   0B80 CB 2C         [ 8] 2663 	sra	h
   0B82 CB 1D         [ 8] 2664 	rr	l
   0B84 CB 2C         [ 8] 2665 	sra	h
   0B86 CB 1D         [ 8] 2666 	rr	l
   0B88 CB 2C         [ 8] 2667 	sra	h
   0B8A CB 1D         [ 8] 2668 	rr	l
   0B8C CB 2C         [ 8] 2669 	sra	h
   0B8E CB 1D         [ 8] 2670 	rr	l
   0B90 CB 2C         [ 8] 2671 	sra	h
   0B92 CB 1D         [ 8] 2672 	rr	l
   0B94 CB 2C         [ 8] 2673 	sra	h
   0B96 CB 1D         [ 8] 2674 	rr	l
   0B98 FD 21r53r00   [14] 2675 	ld	iy,#_pry
   0B9C FD 75 00      [19] 2676 	ld	0 (iy),l
   0B9F C9            [10] 2677 	ret
                           2678 ;engine/player.h:107: void player_kill (void) {
                           2679 ;	---------------------------------
                           2680 ; Function player_kill
                           2681 ; ---------------------------------
   0BA0                    2682 _player_kill::
                           2683 ;engine/player.h:108: SG_setStp (cur_stp);
   0BA0 2Ar27r00      [16] 2684 	ld	hl,(_cur_stp)
   0BA3 E5            [11] 2685 	push	hl
   0BA4 CDr00r00      [17] 2686 	call	_SG_setStp
   0BA7 F1            [10] 2687 	pop	af
                           2688 ;engine/player.h:109: player_render ();
   0BA8 CDr2Br0B      [17] 2689 	call	_player_render
                           2690 ;engine/player.h:110: update_cycle ();
   0BAB CDr1Dr08      [17] 2691 	call	_update_cycle
                           2692 ;engine/player.h:112: pkill = phit = 0;
   0BAE 21r62r00      [10] 2693 	ld	hl,#_phit + 0
   0BB1 36 00         [10] 2694 	ld	(hl), #0x00
   0BB3 21r6Br00      [10] 2695 	ld	hl,#_pkill + 0
   0BB6 36 00         [10] 2696 	ld	(hl), #0x00
                           2697 ;engine/player.h:115: if (plife) -- plife; else game_over = 1;
   0BB8 3Ar6Fr00      [13] 2698 	ld	a,(#_plife + 0)
   0BBB B7            [ 4] 2699 	or	a, a
   0BBC 28 06         [12] 2700 	jr	Z,00102$
   0BBE 21r6Fr00      [10] 2701 	ld	hl, #_plife+0
   0BC1 35            [11] 2702 	dec	(hl)
   0BC2 18 05         [12] 2703 	jr	00103$
   0BC4                    2704 00102$:
   0BC4 21rC6r01      [10] 2705 	ld	hl,#_game_over + 0
   0BC7 36 01         [10] 2706 	ld	(hl), #0x01
   0BC9                    2707 00103$:
                           2708 ;engine/player.h:118: pflickering = PLAYER_FLICKERS;
   0BC9 21r60r00      [10] 2709 	ld	hl,#_pflickering + 0
   0BCC 36 64         [10] 2710 	ld	(hl), #0x64
                           2711 ;engine/player.h:131: delay (60);
   0BCE 3E 3C         [ 7] 2712 	ld	a,#0x3C
   0BD0 F5            [11] 2713 	push	af
   0BD1 33            [ 6] 2714 	inc	sp
   0BD2 CDr00r00      [17] 2715 	call	_delay
   0BD5 33            [ 6] 2716 	inc	sp
                           2717 ;engine/player.h:136: px = px_safe; 
   0BD6 2Ar76r00      [16] 2718 	ld	hl,(_px_safe)
   0BD9 22r4Ar00      [16] 2719 	ld	(_px),hl
                           2720 ;engine/player.h:137: py = py_safe; 
   0BDC 2Ar78r00      [16] 2721 	ld	hl,(_py_safe)
   0BDF 22r4Cr00      [16] 2722 	ld	(_py),hl
                           2723 ;engine/player.h:138: player_to_pixels ();
   0BE2 CDr5Br0B      [17] 2724 	call	_player_to_pixels
                           2725 ;engine/player.h:139: n_pant = n_pant_safe;		
   0BE5 3Ar75r00      [13] 2726 	ld	a,(#_n_pant_safe + 0)
   0BE8 32rC0r01      [13] 2727 	ld	(#_n_pant + 0),a
                           2728 ;engine/player.h:140: player_stop ();
   0BEB C3rD1r0A      [10] 2729 	jp  _player_stop
                           2730 ;engine/../engine/playermods/process_tile.h:4: void player_process_tile (unsigned char at, unsigned char x0, unsigned char y0, unsigned char x1, unsigned char y1) {
                           2731 ;	---------------------------------
                           2732 ; Function player_process_tile
                           2733 ; ---------------------------------
   0BEE                    2734 _player_process_tile::
   0BEE DD E5         [15] 2735 	push	ix
   0BF0 DD 21 00 00   [14] 2736 	ld	ix,#0
   0BF4 DD 39         [15] 2737 	add	ix,sp
                           2738 ;engine/../engine/playermods/process_tile.h:5: if (y0) -- y0;
   0BF6 DD 7E 06      [19] 2739 	ld	a,6 (ix)
   0BF9 B7            [ 4] 2740 	or	a, a
   0BFA 28 03         [12] 2741 	jr	Z,00102$
   0BFC DD 35 06      [23] 2742 	dec	6 (ix)
   0BFF                    2743 00102$:
                           2744 ;engine/../engine/playermods/process_tile.h:46: at == 10 &&
   0BFF DD 7E 04      [19] 2745 	ld	a,4 (ix)
   0C02 D6 0A         [ 7] 2746 	sub	a, #0x0A
   0C04 C2r9Fr0C      [10] 2747 	jp	NZ,00110$
                           2748 ;engine/../engine/playermods/process_tile.h:47: pkeys
   0C07 3Ar70r00      [13] 2749 	ld	a,(#_pkeys + 0)
   0C0A B7            [ 4] 2750 	or	a, a
   0C0B CAr9Fr0C      [10] 2751 	jp	Z,00110$
                           2752 ;engine/../engine/playermods/process_tile.h:49: _x = x0; _y = y0; _t = 0; map_set ();
   0C0E DD 7E 05      [19] 2753 	ld	a,5 (ix)
   0C11 32r00r00      [13] 2754 	ld	(#__x + 0),a
   0C14 DD 7E 06      [19] 2755 	ld	a,6 (ix)
   0C17 32r01r00      [13] 2756 	ld	(#__y + 0),a
   0C1A 21r03r00      [10] 2757 	ld	hl,#__t + 0
   0C1D 36 00         [10] 2758 	ld	(hl), #0x00
   0C1F CDr25r04      [17] 2759 	call	_map_set
                           2760 ;engine/../engine/playermods/process_tile.h:52: gp_gen = (unsigned char *) c_locks;
   0C22 2Ar91r00      [16] 2761 	ld	hl,(_c_locks)
   0C25 22r0Cr00      [16] 2762 	ld	(_gp_gen),hl
                           2763 ;engine/../engine/playermods/process_tile.h:53: gpit = c_max_bolts; while (gpit --) {
   0C28 3Ar97r00      [13] 2764 	ld	a,(#_c_max_bolts + 0)
   0C2B 32r08r00      [13] 2765 	ld	(#_gpit + 0),a
   0C2E                    2766 00106$:
   0C2E 21r08r00      [10] 2767 	ld	hl,#_gpit + 0
   0C31 5E            [ 7] 2768 	ld	e, (hl)
   0C32 21r08r00      [10] 2769 	ld	hl, #_gpit+0
   0C35 35            [11] 2770 	dec	(hl)
   0C36 7B            [ 4] 2771 	ld	a,e
   0C37 B7            [ 4] 2772 	or	a, a
   0C38 28 5F         [12] 2773 	jr	Z,00108$
                           2774 ;engine/../engine/playermods/process_tile.h:54: rda = *gp_gen ++; rdb = *gp_gen ++;
   0C3A 2Ar0Cr00      [16] 2775 	ld	hl,(_gp_gen)
   0C3D 7E            [ 7] 2776 	ld	a,(hl)
   0C3E 32r18r00      [13] 2777 	ld	(#_rda + 0),a
   0C41 21r0Cr00      [10] 2778 	ld	hl, #_gp_gen+0
   0C44 34            [11] 2779 	inc	(hl)
   0C45 20 04         [12] 2780 	jr	NZ,00145$
   0C47 21r0Dr00      [10] 2781 	ld	hl, #_gp_gen+1
   0C4A 34            [11] 2782 	inc	(hl)
   0C4B                    2783 00145$:
   0C4B 2Ar0Cr00      [16] 2784 	ld	hl,(_gp_gen)
   0C4E 7E            [ 7] 2785 	ld	a,(hl)
   0C4F 32r19r00      [13] 2786 	ld	(#_rdb + 0),a
   0C52 21r0Cr00      [10] 2787 	ld	hl, #_gp_gen+0
   0C55 34            [11] 2788 	inc	(hl)
   0C56 20 04         [12] 2789 	jr	NZ,00146$
   0C58 21r0Dr00      [10] 2790 	ld	hl, #_gp_gen+1
   0C5B 34            [11] 2791 	inc	(hl)
   0C5C                    2792 00146$:
                           2793 ;engine/../engine/playermods/process_tile.h:55: if (n_pant == rda && COORDS (x0, y0) == rdb) {
   0C5C 3ArC0r01      [13] 2794 	ld	a,(#_n_pant + 0)
   0C5F FD 21r18r00   [14] 2795 	ld	iy,#_rda
   0C63 FD 96 00      [19] 2796 	sub	a, 0 (iy)
   0C66 20 C6         [12] 2797 	jr	NZ,00106$
   0C68 DD 6E 06      [19] 2798 	ld	l,6 (ix)
   0C6B 26 00         [ 7] 2799 	ld	h,#0x00
   0C6D 29            [11] 2800 	add	hl, hl
   0C6E 29            [11] 2801 	add	hl, hl
   0C6F 29            [11] 2802 	add	hl, hl
   0C70 29            [11] 2803 	add	hl, hl
   0C71 DD 7E 05      [19] 2804 	ld	a, 5 (ix)
   0C74 16 00         [ 7] 2805 	ld	d, #0x00
   0C76 B5            [ 4] 2806 	or	a, l
   0C77 5F            [ 4] 2807 	ld	e,a
   0C78 7A            [ 4] 2808 	ld	a,d
   0C79 B4            [ 4] 2809 	or	a, h
   0C7A 57            [ 4] 2810 	ld	d,a
   0C7B 21r19r00      [10] 2811 	ld	hl,#_rdb + 0
   0C7E 4E            [ 7] 2812 	ld	c, (hl)
   0C7F 06 00         [ 7] 2813 	ld	b,#0x00
   0C81 7B            [ 4] 2814 	ld	a,e
   0C82 91            [ 4] 2815 	sub	a, c
   0C83 20 A9         [12] 2816 	jr	NZ,00106$
   0C85 7A            [ 4] 2817 	ld	a,d
   0C86 90            [ 4] 2818 	sub	a, b
   0C87 20 A5         [12] 2819 	jr	NZ,00106$
                           2820 ;engine/../engine/playermods/process_tile.h:56: lkact [gpit] = 0;
   0C89 3ErEA         [ 7] 2821 	ld	a,#<(_lkact)
   0C8B 21r08r00      [10] 2822 	ld	hl,#_gpit
   0C8E 86            [ 7] 2823 	add	a, (hl)
   0C8F 5F            [ 4] 2824 	ld	e,a
   0C90 3Es01         [ 7] 2825 	ld	a,#>(_lkact)
   0C92 CE 00         [ 7] 2826 	adc	a, #0x00
   0C94 57            [ 4] 2827 	ld	d,a
   0C95 AF            [ 4] 2828 	xor	a, a
   0C96 12            [ 7] 2829 	ld	(de),a
   0C97 18 95         [12] 2830 	jr	00106$
   0C99                    2831 00108$:
                           2832 ;engine/../engine/playermods/process_tile.h:60: -- pkeys;
   0C99 21r70r00      [10] 2833 	ld	hl, #_pkeys+0
   0C9C 35            [11] 2834 	dec	(hl)
   0C9D 18 05         [12] 2835 	jr	00113$
   0C9F                    2836 00110$:
                           2837 ;engine/../engine/playermods/process_tile.h:64: no_ct = 100;
   0C9F 21rD0r01      [10] 2838 	ld	hl,#_no_ct + 0
   0CA2 36 64         [10] 2839 	ld	(hl), #0x64
   0CA4                    2840 00113$:
   0CA4 DD E1         [14] 2841 	pop	ix
   0CA6 C9            [10] 2842 	ret
                           2843 ;engine/player.h:163: void player_move (void) {
                           2844 ;	---------------------------------
                           2845 ; Function player_move
                           2846 ; ---------------------------------
   0CA7                    2847 _player_move::
   0CA7 DD E5         [15] 2848 	push	ix
   0CA9 DD 21 00 00   [14] 2849 	ld	ix,#0
   0CAD DD 39         [15] 2850 	add	ix,sp
   0CAF F5            [11] 2851 	push	af
                           2852 ;engine/player.h:164: if (pflickering) -- pflickering;
   0CB0 3Ar60r00      [13] 2853 	ld	a,(#_pflickering + 0)
   0CB3 B7            [ 4] 2854 	or	a, a
   0CB4 28 04         [12] 2855 	jr	Z,00102$
   0CB6 21r60r00      [10] 2856 	ld	hl, #_pflickering+0
   0CB9 35            [11] 2857 	dec	(hl)
   0CBA                    2858 00102$:
                           2859 ;engine/player.h:165: if (pbouncing) -- pbouncing;
   0CBA 3Ar61r00      [13] 2860 	ld	a,(#_pbouncing + 0)
   0CBD B7            [ 4] 2861 	or	a, a
   0CBE 28 04         [12] 2862 	jr	Z,00104$
   0CC0 21r61r00      [10] 2863 	ld	hl, #_pbouncing+0
   0CC3 35            [11] 2864 	dec	(hl)
   0CC4                    2865 00104$:
                           2866 ;engine/player.h:201: hitv = hith = 0;
   0CC4 21r68r00      [10] 2867 	ld	hl,#_hith + 0
   0CC7 36 00         [10] 2868 	ld	(hl), #0x00
   0CC9 21r67r00      [10] 2869 	ld	hl,#_hitv + 0
   0CCC 36 00         [10] 2870 	ld	(hl), #0x00
                           2871 ;engine/player.h:202: pcx = prx; pcy = pry;
   0CCE 3Ar52r00      [13] 2872 	ld	a,(#_prx + 0)
   0CD1 32r54r00      [13] 2873 	ld	(#_pcx + 0),a
   0CD4 3Ar53r00      [13] 2874 	ld	a,(#_pry + 0)
   0CD7 32r55r00      [13] 2875 	ld	(#_pcy + 0),a
                           2876 ;engine/player.h:203: pnotsafe = 0;
   0CDA 21r6Dr00      [10] 2877 	ld	hl,#_pnotsafe + 0
   0CDD 36 00         [10] 2878 	ld	(hl), #0x00
                           2879 ;engine/player.h:213: cx1 = prx >> 4; cx2 = (prx + 7) >> 4;
   0CDF 3Ar52r00      [13] 2880 	ld	a,(#_prx + 0)
   0CE2 07            [ 4] 2881 	rlca
   0CE3 07            [ 4] 2882 	rlca
   0CE4 07            [ 4] 2883 	rlca
   0CE5 07            [ 4] 2884 	rlca
   0CE6 E6 0F         [ 7] 2885 	and	a,#0x0F
   0CE8 32r22r00      [13] 2886 	ld	(#_cx1 + 0),a
   0CEB FD 21r52r00   [14] 2887 	ld	iy,#_prx
   0CEF FD 6E 00      [19] 2888 	ld	l,0 (iy)
   0CF2 26 00         [ 7] 2889 	ld	h,#0x00
   0CF4 01 07 00      [10] 2890 	ld	bc,#0x0007
   0CF7 09            [11] 2891 	add	hl,bc
   0CF8 CB 2C         [ 8] 2892 	sra	h
   0CFA CB 1D         [ 8] 2893 	rr	l
   0CFC CB 2C         [ 8] 2894 	sra	h
   0CFE CB 1D         [ 8] 2895 	rr	l
   0D00 CB 2C         [ 8] 2896 	sra	h
   0D02 CB 1D         [ 8] 2897 	rr	l
   0D04 CB 2C         [ 8] 2898 	sra	h
   0D06 CB 1D         [ 8] 2899 	rr	l
   0D08 FD 21r23r00   [14] 2900 	ld	iy,#_cx2
   0D0C FD 75 00      [19] 2901 	ld	0 (iy),l
                           2902 ;engine/player.h:214: cy1 = cy2 = (pry + 15) >> 4;
   0D0F FD 21r53r00   [14] 2903 	ld	iy,#_pry
   0D13 FD 6E 00      [19] 2904 	ld	l,0 (iy)
   0D16 26 00         [ 7] 2905 	ld	h,#0x00
   0D18 01 0F 00      [10] 2906 	ld	bc,#0x000F
   0D1B 09            [11] 2907 	add	hl,bc
   0D1C CB 2C         [ 8] 2908 	sra	h
   0D1E CB 1D         [ 8] 2909 	rr	l
   0D20 CB 2C         [ 8] 2910 	sra	h
   0D22 CB 1D         [ 8] 2911 	rr	l
   0D24 CB 2C         [ 8] 2912 	sra	h
   0D26 CB 1D         [ 8] 2913 	rr	l
   0D28 CB 2C         [ 8] 2914 	sra	h
   0D2A CB 1D         [ 8] 2915 	rr	l
   0D2C 7D            [ 4] 2916 	ld	a,l
   0D2D 32r25r00      [13] 2917 	ld	(#_cy2 + 0),a
   0D30 32r24r00      [13] 2918 	ld	(#_cy1 + 0),a
                           2919 ;engine/player.h:215: cm_two_points ();
   0D33 CDrE6r06      [17] 2920 	call	_cm_two_points
                           2921 ;engine/player.h:230: if (springs_on && cy1 < 12) {
   0D36 3ArBBr02      [13] 2922 	ld	a,(#_springs_on + 0)
   0D39 B7            [ 4] 2923 	or	a, a
   0D3A CArDCr0D      [10] 2924 	jp	Z,00116$
                           2925 ;engine/player.h:231: if (cy1) -- cy1;
   0D3D 3Ar24r00      [13] 2926 	ld	a,(#_cy1 + 0)
   0D40 FE 0C         [ 7] 2927 	cp	a,#0x0C
   0D42 D2rDCr0D      [10] 2928 	jp	NC,00116$
   0D45 B7            [ 4] 2929 	or	a, a
   0D46 28 04         [12] 2930 	jr	Z,00106$
   0D48 21r24r00      [10] 2931 	ld	hl, #_cy1+0
   0D4B 35            [11] 2932 	dec	(hl)
   0D4C                    2933 00106$:
                           2934 ;engine/player.h:232: _t = SPRING_SPIKE_TILE; 
   0D4C 21r03r00      [10] 2935 	ld	hl,#__t + 0
   0D4F 36 0A         [10] 2936 	ld	(hl), #0x0A
                           2937 ;engine/player.h:234: if (ppossee)
   0D51 3Ar5Er00      [13] 2938 	ld	a,(#_ppossee + 0)
   0D54 B7            [ 4] 2939 	or	a, a
   0D55 CArDCr0D      [10] 2940 	jp	Z,00116$
                           2941 ;engine/player.h:237: if (QTILE (cx1, cy1 + 1) == SPRING_TILE && QTILE (cx1, cy1) != SPRING_SPIKE_TILE) { _x = cx1; _y = cy1; map_set (); //PSGSFXPlay (SFX_SPRING, 1);
   0D58 3Ar24r00      [13] 2942 	ld	a,(#_cy1 + 0)
   0D5B 3C            [ 4] 2943 	inc	a
   0D5C 07            [ 4] 2944 	rlca
   0D5D 07            [ 4] 2945 	rlca
   0D5E 07            [ 4] 2946 	rlca
   0D5F 07            [ 4] 2947 	rlca
   0D60 E6 F0         [ 7] 2948 	and	a,#0xF0
   0D62 21r22r00      [10] 2949 	ld	hl,#_cx1 + 0
   0D65 B6            [ 7] 2950 	or	a,(hl)
   0D66 5F            [ 4] 2951 	ld	e,a
   0D67 21rFDr00      [10] 2952 	ld	hl,#_map_buff
   0D6A 16 00         [ 7] 2953 	ld	d,#0x00
   0D6C 19            [11] 2954 	add	hl, de
   0D6D 7E            [ 7] 2955 	ld	a,(hl)
   0D6E D6 1F         [ 7] 2956 	sub	a, #0x1F
   0D70 20 28         [12] 2957 	jr	NZ,00108$
   0D72 3Ar24r00      [13] 2958 	ld	a,(#_cy1 + 0)
   0D75 07            [ 4] 2959 	rlca
   0D76 07            [ 4] 2960 	rlca
   0D77 07            [ 4] 2961 	rlca
   0D78 07            [ 4] 2962 	rlca
   0D79 E6 F0         [ 7] 2963 	and	a,#0xF0
   0D7B 21r22r00      [10] 2964 	ld	hl,#_cx1 + 0
   0D7E B6            [ 7] 2965 	or	a,(hl)
   0D7F 5F            [ 4] 2966 	ld	e,a
   0D80 21rFDr00      [10] 2967 	ld	hl,#_map_buff
   0D83 16 00         [ 7] 2968 	ld	d,#0x00
   0D85 19            [11] 2969 	add	hl, de
   0D86 7E            [ 7] 2970 	ld	a,(hl)
   0D87 D6 0A         [ 7] 2971 	sub	a, #0x0A
   0D89 28 0F         [12] 2972 	jr	Z,00108$
   0D8B 3Ar22r00      [13] 2973 	ld	a,(#_cx1 + 0)
   0D8E 32r00r00      [13] 2974 	ld	(#__x + 0),a
   0D91 3Ar24r00      [13] 2975 	ld	a,(#_cy1 + 0)
   0D94 32r01r00      [13] 2976 	ld	(#__y + 0),a
   0D97 CDr25r04      [17] 2977 	call	_map_set
   0D9A                    2978 00108$:
                           2979 ;engine/player.h:239: if (QTILE (cx2, cy1 + 1) == SPRING_TILE && QTILE (cx2, cy1) != SPRING_SPIKE_TILE) { _x = cx2; _y = cy1; map_set (); //PSGSFXPlay (SFX_SPRING, 1);
   0D9A 3Ar24r00      [13] 2980 	ld	a,(#_cy1 + 0)
   0D9D 3C            [ 4] 2981 	inc	a
   0D9E 07            [ 4] 2982 	rlca
   0D9F 07            [ 4] 2983 	rlca
   0DA0 07            [ 4] 2984 	rlca
   0DA1 07            [ 4] 2985 	rlca
   0DA2 E6 F0         [ 7] 2986 	and	a,#0xF0
   0DA4 21r23r00      [10] 2987 	ld	hl,#_cx2 + 0
   0DA7 B6            [ 7] 2988 	or	a,(hl)
   0DA8 5F            [ 4] 2989 	ld	e,a
   0DA9 21rFDr00      [10] 2990 	ld	hl,#_map_buff
   0DAC 16 00         [ 7] 2991 	ld	d,#0x00
   0DAE 19            [11] 2992 	add	hl, de
   0DAF 7E            [ 7] 2993 	ld	a,(hl)
   0DB0 D6 1F         [ 7] 2994 	sub	a, #0x1F
   0DB2 20 28         [12] 2995 	jr	NZ,00116$
   0DB4 3Ar24r00      [13] 2996 	ld	a,(#_cy1 + 0)
   0DB7 07            [ 4] 2997 	rlca
   0DB8 07            [ 4] 2998 	rlca
   0DB9 07            [ 4] 2999 	rlca
   0DBA 07            [ 4] 3000 	rlca
   0DBB E6 F0         [ 7] 3001 	and	a,#0xF0
   0DBD 21r23r00      [10] 3002 	ld	hl,#_cx2 + 0
   0DC0 B6            [ 7] 3003 	or	a,(hl)
   0DC1 5F            [ 4] 3004 	ld	e,a
   0DC2 21rFDr00      [10] 3005 	ld	hl,#_map_buff
   0DC5 16 00         [ 7] 3006 	ld	d,#0x00
   0DC7 19            [11] 3007 	add	hl, de
   0DC8 7E            [ 7] 3008 	ld	a,(hl)
   0DC9 D6 0A         [ 7] 3009 	sub	a, #0x0A
   0DCB 28 0F         [12] 3010 	jr	Z,00116$
   0DCD 3Ar23r00      [13] 3011 	ld	a,(#_cx2 + 0)
   0DD0 32r00r00      [13] 3012 	ld	(#__x + 0),a
   0DD3 3Ar24r00      [13] 3013 	ld	a,(#_cy1 + 0)
   0DD6 32r01r00      [13] 3014 	ld	(#__y + 0),a
   0DD9 CDr25r04      [17] 3015 	call	_map_set
   0DDC                    3016 00116$:
                           3017 ;engine/player.h:245: oppossee = ppossee;
   0DDC 3Ar5Er00      [13] 3018 	ld	a,(#_ppossee + 0)
   0DDF 32r5Fr00      [13] 3019 	ld	(#_oppossee + 0),a
                           3020 ;engine/player.h:246: ppossee = 0;
   0DE2 21r5Er00      [10] 3021 	ld	hl,#_ppossee + 0
   0DE5 36 00         [10] 3022 	ld	(hl), #0x00
                           3023 ;engine/player.h:318: if (vertical_engine_type != ENGINE_TYPE_SWIM) {
   0DE7 3Ar49r00      [13] 3024 	ld	a,(#_vertical_engine_type + 0)
   0DEA D6 02         [ 7] 3025 	sub	a, #0x02
   0DEC 28 31         [12] 3026 	jr	Z,00123$
                           3027 ;engine/player.h:329: if (!pj) {
   0DEE 3Ar5Br00      [13] 3028 	ld	a,(#_pj + 0)
   0DF1 B7            [ 4] 3029 	or	a, a
   0DF2 20 2B         [12] 3030 	jr	NZ,00123$
                           3031 ;engine/player.h:330: pvy += PLAYER_G;
   0DF4 21r50r00      [10] 3032 	ld	hl,#_pvy
   0DF7 7E            [ 7] 3033 	ld	a,(hl)
   0DF8 C6 08         [ 7] 3034 	add	a, #0x08
   0DFA 77            [ 7] 3035 	ld	(hl),a
   0DFB 23            [ 6] 3036 	inc	hl
   0DFC 7E            [ 7] 3037 	ld	a,(hl)
   0DFD CE 00         [ 7] 3038 	adc	a, #0x00
   0DFF 77            [ 7] 3039 	ld	(hl),a
                           3040 ;engine/player.h:331: if (pvy > PLAYER_VY_FALLING_MAX) pvy = PLAYER_VY_FALLING_MAX; 
   0E00 AF            [ 4] 3041 	xor	a, a
   0E01 FD 21r50r00   [14] 3042 	ld	iy,#_pvy
   0E05 FD BE 00      [19] 3043 	cp	a, 0 (iy)
   0E08 3E 01         [ 7] 3044 	ld	a,#0x01
   0E0A FD 21r50r00   [14] 3045 	ld	iy,#_pvy
   0E0E FD 9E 01      [19] 3046 	sbc	a, 1 (iy)
   0E11 E2r16r0E      [10] 3047 	jp	PO, 00584$
   0E14 EE 80         [ 7] 3048 	xor	a, #0x80
   0E16                    3049 00584$:
   0E16 F2r1Fr0E      [10] 3050 	jp	P,00123$
   0E19 21 00 01      [10] 3051 	ld	hl,#0x0100
   0E1C 22r50r00      [16] 3052 	ld	(_pvy),hl
   0E1F                    3053 00123$:
                           3054 ;engine/player.h:338: if (pgotten) pvy = 0;			
   0E1F 3Ar5Dr00      [13] 3055 	ld	a,(#_pgotten + 0)
   0E22 B7            [ 4] 3056 	or	a, a
   0E23 28 06         [12] 3057 	jr	Z,00125$
   0E25 21 00 00      [10] 3058 	ld	hl,#0x0000
   0E28 22r50r00      [16] 3059 	ld	(_pvy),hl
   0E2B                    3060 00125$:
                           3061 ;engine/player.h:375: py += pvy;
   0E2B 21r50r00      [10] 3062 	ld	hl,#_pvy
   0E2E D5            [11] 3063 	push	de
   0E2F FD 21r4Cr00   [14] 3064 	ld	iy,#_py
   0E33 FD E5         [15] 3065 	push	iy
   0E35 D1            [10] 3066 	pop	de
   0E36 1A            [ 7] 3067 	ld	a,(de)
   0E37 86            [ 7] 3068 	add	a, (hl)
   0E38 12            [ 7] 3069 	ld	(de),a
   0E39 13            [ 6] 3070 	inc	de
   0E3A 1A            [ 7] 3071 	ld	a,(de)
   0E3B 23            [ 6] 3072 	inc	hl
   0E3C 8E            [ 7] 3073 	adc	a, (hl)
   0E3D 12            [ 7] 3074 	ld	(de),a
   0E3E D1            [10] 3075 	pop	de
                           3076 ;engine/player.h:376: if (py < 0) py = 0;
   0E3F 3Ar4Dr00      [13] 3077 	ld	a,(#_py + 1)
   0E42 CB 7F         [ 8] 3078 	bit	7,a
   0E44 28 06         [12] 3079 	jr	Z,00127$
   0E46 21 00 00      [10] 3080 	ld	hl,#0x0000
   0E49 22r4Cr00      [16] 3081 	ld	(_py),hl
   0E4C                    3082 00127$:
                           3083 ;engine/player.h:377: pry = py >> FIXBITS;
   0E4C 2Ar4Cr00      [16] 3084 	ld	hl,(_py)
   0E4F CB 2C         [ 8] 3085 	sra	h
   0E51 CB 1D         [ 8] 3086 	rr	l
   0E53 CB 2C         [ 8] 3087 	sra	h
   0E55 CB 1D         [ 8] 3088 	rr	l
   0E57 CB 2C         [ 8] 3089 	sra	h
   0E59 CB 1D         [ 8] 3090 	rr	l
   0E5B CB 2C         [ 8] 3091 	sra	h
   0E5D CB 1D         [ 8] 3092 	rr	l
   0E5F CB 2C         [ 8] 3093 	sra	h
   0E61 CB 1D         [ 8] 3094 	rr	l
   0E63 CB 2C         [ 8] 3095 	sra	h
   0E65 CB 1D         [ 8] 3096 	rr	l
   0E67 FD 21r53r00   [14] 3097 	ld	iy,#_pry
   0E6B FD 75 00      [19] 3098 	ld	0 (iy),l
                           3099 ;engine/player.h:380: player_to_pixels ();
   0E6E CDr5Br0B      [17] 3100 	call	_player_to_pixels
                           3101 ;engine/player.h:382: cx1 = prx >> 4;
   0E71 3Ar52r00      [13] 3102 	ld	a,(#_prx + 0)
   0E74 07            [ 4] 3103 	rlca
   0E75 07            [ 4] 3104 	rlca
   0E76 07            [ 4] 3105 	rlca
   0E77 07            [ 4] 3106 	rlca
   0E78 E6 0F         [ 7] 3107 	and	a,#0x0F
   0E7A 32r22r00      [13] 3108 	ld	(#_cx1 + 0),a
                           3109 ;engine/player.h:383: cx2 = (prx + 7) >> 4;
   0E7D FD 21r52r00   [14] 3110 	ld	iy,#_prx
   0E81 FD 6E 00      [19] 3111 	ld	l,0 (iy)
   0E84 26 00         [ 7] 3112 	ld	h,#0x00
   0E86 01 07 00      [10] 3113 	ld	bc,#0x0007
   0E89 09            [11] 3114 	add	hl,bc
   0E8A CB 2C         [ 8] 3115 	sra	h
   0E8C CB 1D         [ 8] 3116 	rr	l
   0E8E CB 2C         [ 8] 3117 	sra	h
   0E90 CB 1D         [ 8] 3118 	rr	l
   0E92 CB 2C         [ 8] 3119 	sra	h
   0E94 CB 1D         [ 8] 3120 	rr	l
   0E96 CB 2C         [ 8] 3121 	sra	h
   0E98 CB 1D         [ 8] 3122 	rr	l
   0E9A FD 21r23r00   [14] 3123 	ld	iy,#_cx2
   0E9E FD 75 00      [19] 3124 	ld	0 (iy),l
                           3125 ;engine/player.h:388: rds16 = pvy + pgtmy;
   0EA1 21r65r00      [10] 3126 	ld	hl,#_pgtmy
   0EA4 D5            [11] 3127 	push	de
   0EA5 FD 21r0Ar00   [14] 3128 	ld	iy,#_rds16
   0EA9 FD E5         [15] 3129 	push	iy
   0EAB D1            [10] 3130 	pop	de
   0EAC 3Ar50r00      [13] 3131 	ld	a,(#_pvy + 0)
   0EAF 86            [ 7] 3132 	add	a, (hl)
   0EB0 12            [ 7] 3133 	ld	(de),a
   0EB1 3Ar51r00      [13] 3134 	ld	a,(#_pvy + 1)
   0EB4 23            [ 6] 3135 	inc	hl
   0EB5 8E            [ 7] 3136 	adc	a, (hl)
   0EB6 13            [ 6] 3137 	inc	de
   0EB7 12            [ 7] 3138 	ld	(de),a
   0EB8 D1            [10] 3139 	pop	de
                           3140 ;engine/player.h:214: cy1 = cy2 = (pry + 15) >> 4;
   0EB9 3Ar53r00      [13] 3141 	ld	a,(#_pry + 0)
   0EBC DD 77 FE      [19] 3142 	ld	-2 (ix),a
   0EBF DD 36 FF 00   [19] 3143 	ld	-1 (ix),#0x00
                           3144 ;engine/player.h:389: if (rds16 < 0)
   0EC3 3Ar0Br00      [13] 3145 	ld	a,(#_rds16 + 1)
   0EC6 CB 7F         [ 8] 3146 	bit	7,a
   0EC8 CAr61r0F      [10] 3147 	jp	Z,00163$
                           3148 ;engine/player.h:392: cy1 = cy2 = (pry - PLAYER_COLLISION_VSTRETCH_BG) >> 4;			
   0ECB DD 7E FE      [19] 3149 	ld	a,-2 (ix)
   0ECE C6 04         [ 7] 3150 	add	a,#0x04
   0ED0 57            [ 4] 3151 	ld	d,a
   0ED1 DD 7E FF      [19] 3152 	ld	a,-1 (ix)
   0ED4 CE 00         [ 7] 3153 	adc	a,#0x00
   0ED6 6F            [ 4] 3154 	ld	l,a
   0ED7 CB 2D         [ 8] 3155 	sra	l
   0ED9 CB 1A         [ 8] 3156 	rr	d
   0EDB CB 2D         [ 8] 3157 	sra	l
   0EDD CB 1A         [ 8] 3158 	rr	d
   0EDF CB 2D         [ 8] 3159 	sra	l
   0EE1 CB 1A         [ 8] 3160 	rr	d
   0EE3 CB 2D         [ 8] 3161 	sra	l
   0EE5 CB 1A         [ 8] 3162 	rr	d
   0EE7 21r25r00      [10] 3163 	ld	hl,#_cy2 + 0
   0EEA 72            [ 7] 3164 	ld	(hl), d
   0EEB 21r24r00      [10] 3165 	ld	hl,#_cy1 + 0
   0EEE 72            [ 7] 3166 	ld	(hl), d
                           3167 ;engine/player.h:393: cm_two_points ();
   0EEF CDrE6r06      [17] 3168 	call	_cm_two_points
                           3169 ;engine/player.h:394: if ((at1 & 8) || (at2 & 8)) {
   0EF2 FD 21r20r00   [14] 3170 	ld	iy,#_at1
   0EF6 FD CB 00 5E   [20] 3171 	bit	3, 0 (iy)
   0EFA 20 0A         [12] 3172 	jr	NZ,00131$
   0EFC FD 21r21r00   [14] 3173 	ld	iy,#_at2
   0F00 FD CB 00 5E   [20] 3174 	bit	3, 0 (iy)
   0F04 28 3B         [12] 3175 	jr	Z,00132$
   0F06                    3176 00131$:
                           3177 ;engine/player.h:395: pry = ((cy1 + 1) << 4) + PLAYER_COLLISION_VSTRETCH_BG;
   0F06 3Ar24r00      [13] 3178 	ld	a,(#_cy1 + 0)
   0F09 3C            [ 4] 3179 	inc	a
   0F0A 07            [ 4] 3180 	rlca
   0F0B 07            [ 4] 3181 	rlca
   0F0C 07            [ 4] 3182 	rlca
   0F0D 07            [ 4] 3183 	rlca
   0F0E E6 F0         [ 7] 3184 	and	a,#0xF0
   0F10 21r53r00      [10] 3185 	ld	hl,#_pry
   0F13 C6 FC         [ 7] 3186 	add	a, #0xFC
   0F15 77            [ 7] 3187 	ld	(hl),a
                           3188 ;engine/player.h:396: pvy = 0; py = pry << FIXBITS;
   0F16 21 00 00      [10] 3189 	ld	hl,#0x0000
   0F19 22r50r00      [16] 3190 	ld	(_pvy),hl
   0F1C FD 21r53r00   [14] 3191 	ld	iy,#_pry
   0F20 FD 6E 00      [19] 3192 	ld	l,0 (iy)
   0F23 26 00         [ 7] 3193 	ld	h,#0x00
   0F25 29            [11] 3194 	add	hl, hl
   0F26 29            [11] 3195 	add	hl, hl
   0F27 29            [11] 3196 	add	hl, hl
   0F28 29            [11] 3197 	add	hl, hl
   0F29 29            [11] 3198 	add	hl, hl
   0F2A 29            [11] 3199 	add	hl, hl
   0F2B 22r4Cr00      [16] 3200 	ld	(_py),hl
                           3201 ;engine/player.h:397: pgotten = 0;
   0F2E FD 21r5Dr00   [14] 3202 	ld	iy,#_pgotten
   0F32 FD 36 00 00   [19] 3203 	ld	0 (iy),#0x00
                           3204 ;engine/player.h:398: pfiring = 1;
   0F36 FD 21r74r00   [14] 3205 	ld	iy,#_pfiring
   0F3A FD 36 00 01   [19] 3206 	ld	0 (iy),#0x01
   0F3E C3rCDr10      [10] 3207 	jp	00164$
   0F41                    3208 00132$:
                           3209 ;engine/player.h:404: } else if ((at1 & 1) || (at2 & 1)) {
   0F41 FD 21r20r00   [14] 3210 	ld	iy,#_at1
   0F45 FD CB 00 46   [20] 3211 	bit	0, 0 (iy)
   0F49 20 0B         [12] 3212 	jr	NZ,00128$
   0F4B FD 21r21r00   [14] 3213 	ld	iy,#_at2
   0F4F FD CB 00 46   [20] 3214 	bit	0, 0 (iy)
   0F53 CArCDr10      [10] 3215 	jp	Z,00164$
   0F56                    3216 00128$:
                           3217 ;engine/player.h:405: hitv = 1;
   0F56 FD 21r67r00   [14] 3218 	ld	iy,#_hitv
   0F5A FD 36 00 01   [19] 3219 	ld	0 (iy),#0x01
   0F5E C3rCDr10      [10] 3220 	jp	00164$
   0F61                    3221 00163$:
                           3222 ;engine/player.h:416: } else if (rds16 > 0)
   0F61 AF            [ 4] 3223 	xor	a, a
   0F62 FD 21r0Ar00   [14] 3224 	ld	iy,#_rds16
   0F66 FD BE 00      [19] 3225 	cp	a, 0 (iy)
   0F69 FD 21r0Ar00   [14] 3226 	ld	iy,#_rds16
   0F6D FD 9E 01      [19] 3227 	sbc	a, 1 (iy)
   0F70 E2r75r0F      [10] 3228 	jp	PO, 00591$
   0F73 EE 80         [ 7] 3229 	xor	a, #0x80
   0F75                    3230 00591$:
   0F75 F2rCDr10      [10] 3231 	jp	P,00164$
                           3232 ;engine/player.h:419: cy1 = cy2 = (pry + 16) >> 4; 
   0F78 DD 7E FE      [19] 3233 	ld	a,-2 (ix)
   0F7B C6 10         [ 7] 3234 	add	a, #0x10
   0F7D 57            [ 4] 3235 	ld	d,a
   0F7E DD 7E FF      [19] 3236 	ld	a,-1 (ix)
   0F81 CE 00         [ 7] 3237 	adc	a, #0x00
   0F83 67            [ 4] 3238 	ld	h,a
   0F84 CB 2C         [ 8] 3239 	sra	h
   0F86 CB 1A         [ 8] 3240 	rr	d
   0F88 CB 2C         [ 8] 3241 	sra	h
   0F8A CB 1A         [ 8] 3242 	rr	d
   0F8C CB 2C         [ 8] 3243 	sra	h
   0F8E CB 1A         [ 8] 3244 	rr	d
   0F90 CB 2C         [ 8] 3245 	sra	h
   0F92 CB 1A         [ 8] 3246 	rr	d
   0F94 21r25r00      [10] 3247 	ld	hl,#_cy2 + 0
   0F97 72            [ 7] 3248 	ld	(hl), d
   0F98 21r24r00      [10] 3249 	ld	hl,#_cy1 + 0
   0F9B 72            [ 7] 3250 	ld	(hl), d
                           3251 ;engine/player.h:420: cm_two_points (); 
   0F9C CDrE6r06      [17] 3252 	call	_cm_two_points
                           3253 ;engine/player.h:425: pry < ((cy1 - 1) << 4) + 4 && 
   0F9F FD 21r24r00   [14] 3254 	ld	iy,#_cy1
   0FA3 FD 6E 00      [19] 3255 	ld	l,0 (iy)
   0FA6 26 00         [ 7] 3256 	ld	h,#0x00
   0FA8 2B            [ 6] 3257 	dec	hl
   0FA9 29            [11] 3258 	add	hl, hl
   0FAA 29            [11] 3259 	add	hl, hl
   0FAB 29            [11] 3260 	add	hl, hl
   0FAC 29            [11] 3261 	add	hl, hl
   0FAD 4D            [ 4] 3262 	ld	c, l
   0FAE 44            [ 4] 3263 	ld	b, h
   0FAF 03            [ 6] 3264 	inc	bc
   0FB0 03            [ 6] 3265 	inc	bc
   0FB1 03            [ 6] 3266 	inc	bc
   0FB2 03            [ 6] 3267 	inc	bc
   0FB3 3Ar53r00      [13] 3268 	ld	a,(#_pry + 0)
   0FB6 DD 77 FE      [19] 3269 	ld	-2 (ix),a
   0FB9 DD 36 FF 00   [19] 3270 	ld	-1 (ix),#0x00
                           3271 ;engine/player.h:404: } else if ((at1 & 1) || (at2 & 1)) {
   0FBD 3Ar20r00      [13] 3272 	ld	a,(#_at1 + 0)
   0FC0 E6 01         [ 7] 3273 	and	a, #0x01
   0FC2 5F            [ 4] 3274 	ld	e,a
   0FC3 FD 21r21r00   [14] 3275 	ld	iy,#_at2
   0FC7 FD 7E 00      [19] 3276 	ld	a,0 (iy)
   0FCA E6 01         [ 7] 3277 	and	a, #0x01
   0FCC 57            [ 4] 3278 	ld	d,a
                           3279 ;engine/player.h:425: pry < ((cy1 - 1) << 4) + 4 && 
   0FCD DD 7E FE      [19] 3280 	ld	a,-2 (ix)
   0FD0 91            [ 4] 3281 	sub	a, c
   0FD1 DD 7E FF      [19] 3282 	ld	a,-1 (ix)
   0FD4 98            [ 4] 3283 	sbc	a, b
   0FD5 E2rDAr0F      [10] 3284 	jp	PO, 00592$
   0FD8 EE 80         [ 7] 3285 	xor	a, #0x80
   0FDA                    3286 00592$:
   0FDA F2rB3r10      [10] 3287 	jp	P,00156$
                           3288 ;engine/player.h:427: (at1 & 12) || (at2 & 12)
   0FDD 3Ar20r00      [13] 3289 	ld	a,(#_at1 + 0)
   0FE0 E6 0C         [ 7] 3290 	and	a, #0x0C
   0FE2 20 08         [12] 3291 	jr	NZ,00155$
   0FE4 3Ar21r00      [13] 3292 	ld	a,(#_at2 + 0)
   0FE7 E6 0C         [ 7] 3293 	and	a, #0x0C
   0FE9 CArB3r10      [10] 3294 	jp	Z,00156$
   0FEC                    3295 00155$:
                           3296 ;engine/player.h:435: pvy = 0; pry = ((cy1 - 1) << 4);py = pry << FIXBITS;
   0FEC 21 00 00      [10] 3297 	ld	hl,#0x0000
   0FEF 22r50r00      [16] 3298 	ld	(_pvy),hl
   0FF2 3Ar24r00      [13] 3299 	ld	a,(#_cy1 + 0)
   0FF5 C6 FF         [ 7] 3300 	add	a,#0xFF
   0FF7 07            [ 4] 3301 	rlca
   0FF8 07            [ 4] 3302 	rlca
   0FF9 07            [ 4] 3303 	rlca
   0FFA 07            [ 4] 3304 	rlca
   0FFB E6 F0         [ 7] 3305 	and	a,#0xF0
   0FFD 32r53r00      [13] 3306 	ld	(#_pry + 0),a
   1000 FD 21r53r00   [14] 3307 	ld	iy,#_pry
   1004 FD 6E 00      [19] 3308 	ld	l,0 (iy)
   1007 26 00         [ 7] 3309 	ld	h,#0x00
   1009 29            [11] 3310 	add	hl, hl
   100A 29            [11] 3311 	add	hl, hl
   100B 29            [11] 3312 	add	hl, hl
   100C 29            [11] 3313 	add	hl, hl
   100D 29            [11] 3314 	add	hl, hl
   100E 29            [11] 3315 	add	hl, hl
   100F 22r4Cr00      [16] 3316 	ld	(_py),hl
                           3317 ;engine/player.h:436: pgotten = 0;
   1012 FD 21r5Dr00   [14] 3318 	ld	iy,#_pgotten
   1016 FD 36 00 00   [19] 3319 	ld	0 (iy),#0x00
                           3320 ;engine/player.h:437: pfiring = 1;
   101A FD 21r74r00   [14] 3321 	ld	iy,#_pfiring
   101E FD 36 00 01   [19] 3322 	ld	0 (iy),#0x01
                           3323 ;engine/player.h:438: ppossee = 1;
   1022 FD 21r5Er00   [14] 3324 	ld	iy,#_ppossee
   1026 FD 36 00 01   [19] 3325 	ld	0 (iy),#0x01
                           3326 ;engine/player.h:462: cfx = 0;
   102A FD 21rBAr02   [14] 3327 	ld	iy,#_cfx
   102E FD 36 00 00   [19] 3328 	ld	0 (iy),#0x00
                           3329 ;engine/player.h:463: if ((at1 & 40) == 40) { if (at1 & 1) cfx = pgtmx = PLAYER_VX_CONVEYORS; else cfx = pgtmx = -PLAYER_VX_CONVEYORS; pgotten = 1; } 
   1032 3Ar20r00      [13] 3330 	ld	a,(#_at1 + 0)
   1035 E6 28         [ 7] 3331 	and	a, #0x28
   1037 D6 28         [ 7] 3332 	sub	a,#0x28
   1039 20 29         [12] 3333 	jr	NZ,00139$
   103B B3            [ 4] 3334 	or	a,e
   103C 28 10         [12] 3335 	jr	Z,00136$
   103E 21 30 00      [10] 3336 	ld	hl,#0x0030
   1041 22r63r00      [16] 3337 	ld	(_pgtmx),hl
   1044 FD 21rBAr02   [14] 3338 	ld	iy,#_cfx
   1048 FD 36 00 30   [19] 3339 	ld	0 (iy),#0x30
   104C 18 0E         [12] 3340 	jr	00137$
   104E                    3341 00136$:
   104E 21 D0 FF      [10] 3342 	ld	hl,#0xFFD0
   1051 22r63r00      [16] 3343 	ld	(_pgtmx),hl
   1054 FD 21rBAr02   [14] 3344 	ld	iy,#_cfx
   1058 FD 36 00 D0   [19] 3345 	ld	0 (iy),#0xD0
   105C                    3346 00137$:
   105C FD 21r5Dr00   [14] 3347 	ld	iy,#_pgotten
   1060 FD 36 00 01   [19] 3348 	ld	0 (iy),#0x01
   1064                    3349 00139$:
                           3350 ;engine/player.h:464: if (cx1 != cx2) if ((at2 & 40) == 40) { if (at2 & 1) cfx = pgtmx = PLAYER_VX_CONVEYORS; else cfx = pgtmx = -PLAYER_VX_CONVEYORS; pgotten = 1; } 
   1064 3Ar22r00      [13] 3351 	ld	a,(#_cx1 + 0)
   1067 FD 21r23r00   [14] 3352 	ld	iy,#_cx2
   106B FD 96 00      [19] 3353 	sub	a, 0 (iy)
   106E 28 32         [12] 3354 	jr	Z,00146$
   1070 3Ar21r00      [13] 3355 	ld	a,(#_at2 + 0)
   1073 E6 28         [ 7] 3356 	and	a, #0x28
   1075 D6 28         [ 7] 3357 	sub	a,#0x28
   1077 20 29         [12] 3358 	jr	NZ,00146$
   1079 B2            [ 4] 3359 	or	a,d
   107A 28 10         [12] 3360 	jr	Z,00141$
   107C 21 30 00      [10] 3361 	ld	hl,#0x0030
   107F 22r63r00      [16] 3362 	ld	(_pgtmx),hl
   1082 FD 21rBAr02   [14] 3363 	ld	iy,#_cfx
   1086 FD 36 00 30   [19] 3364 	ld	0 (iy),#0x30
   108A 18 0E         [12] 3365 	jr	00142$
   108C                    3366 00141$:
   108C 21 D0 FF      [10] 3367 	ld	hl,#0xFFD0
   108F 22r63r00      [16] 3368 	ld	(_pgtmx),hl
   1092 FD 21rBAr02   [14] 3369 	ld	iy,#_cfx
   1096 FD 36 00 D0   [19] 3370 	ld	0 (iy),#0xD0
   109A                    3371 00142$:
   109A FD 21r5Dr00   [14] 3372 	ld	iy,#_pgotten
   109E FD 36 00 01   [19] 3373 	ld	0 (iy),#0x01
   10A2                    3374 00146$:
                           3375 ;engine/player.h:472: if ((at1 & 1) || (at2 & 1)) pnotsafe = 1; 
   10A2 7B            [ 4] 3376 	ld	a,e
   10A3 B7            [ 4] 3377 	or	a,a
   10A4 20 03         [12] 3378 	jr	NZ,00147$
   10A6 B2            [ 4] 3379 	or	a,d
   10A7 28 24         [12] 3380 	jr	Z,00164$
   10A9                    3381 00147$:
   10A9 FD 21r6Dr00   [14] 3382 	ld	iy,#_pnotsafe
   10AD FD 36 00 01   [19] 3383 	ld	0 (iy),#0x01
   10B1 18 1A         [12] 3384 	jr	00164$
   10B3                    3385 00156$:
                           3386 ;engine/player.h:473: } else if ((at1 & 1) || (at2 & 1)) {
   10B3 7B            [ 4] 3387 	ld	a,e
   10B4 B7            [ 4] 3388 	or	a,a
   10B5 20 03         [12] 3389 	jr	NZ,00152$
   10B7 B2            [ 4] 3390 	or	a,d
   10B8 28 13         [12] 3391 	jr	Z,00164$
   10BA                    3392 00152$:
                           3393 ;engine/player.h:474: if ((pry & 15) > 4) hitv = 1;
   10BA 3Ar53r00      [13] 3394 	ld	a,(#_pry + 0)
   10BD E6 0F         [ 7] 3395 	and	a, #0x0F
   10BF 67            [ 4] 3396 	ld	h,a
   10C0 3E 04         [ 7] 3397 	ld	a,#0x04
   10C2 94            [ 4] 3398 	sub	a, h
   10C3 30 08         [12] 3399 	jr	NC,00164$
   10C5 FD 21r67r00   [14] 3400 	ld	iy,#_hitv
   10C9 FD 36 00 01   [19] 3401 	ld	0 (iy),#0x01
   10CD                    3402 00164$:
                           3403 ;engine/player.h:491: if (vertical_engine_type == ENGINE_TYPE_JUMP) {
   10CD 3Ar49r00      [13] 3404 	ld	a,(#_vertical_engine_type + 0)
   10D0 B7            [ 4] 3405 	or	a, a
   10D1 C2r6Er11      [10] 3406 	jp	NZ,00187$
                           3407 ;engine/player.h:537: a_button 
   10D4 3Ar59r00      [13] 3408 	ld	a,(#_a_button + 0)
   10D7 B7            [ 4] 3409 	or	a, a
   10D8 28 30         [12] 3410 	jr	Z,00170$
                           3411 ;engine/player.h:538: && !pj
   10DA 3Ar5Br00      [13] 3412 	ld	a,(#_pj + 0)
   10DD B7            [ 4] 3413 	or	a, a
   10DE 20 2A         [12] 3414 	jr	NZ,00170$
                           3415 ;engine/player.h:540: pgotten || ppossee || hitv
   10E0 3Ar5Dr00      [13] 3416 	ld	a,(#_pgotten + 0)
   10E3 B7            [ 4] 3417 	or	a, a
   10E4 20 0C         [12] 3418 	jr	NZ,00169$
   10E6 3Ar5Er00      [13] 3419 	ld	a,(#_ppossee + 0)
   10E9 B7            [ 4] 3420 	or	a, a
   10EA 20 06         [12] 3421 	jr	NZ,00169$
   10EC 3Ar67r00      [13] 3422 	ld	a,(#_hitv + 0)
   10EF B7            [ 4] 3423 	or	a, a
   10F0 28 18         [12] 3424 	jr	Z,00170$
   10F2                    3425 00169$:
                           3426 ;engine/player.h:546: jump_start ();
   10F2 CDr0Cr08      [17] 3427 	call	_jump_start
                           3428 ;engine/player.h:549: if (!(pgotten || hitv || pnotsafe)) {
   10F5 3Ar5Dr00      [13] 3429 	ld	a,(#_pgotten + 0)
   10F8 B7            [ 4] 3430 	or	a, a
   10F9 20 0F         [12] 3431 	jr	NZ,00170$
   10FB 3Ar67r00      [13] 3432 	ld	a,(#_hitv + 0)
   10FE B7            [ 4] 3433 	or	a, a
   10FF 20 09         [12] 3434 	jr	NZ,00170$
   1101 3Ar6Dr00      [13] 3435 	ld	a,(#_pnotsafe + 0)
   1104 B7            [ 4] 3436 	or	a, a
   1105 20 03         [12] 3437 	jr	NZ,00170$
                           3438 ;engine/player.h:550: player_register_safe_spot ();
   1107 CDrBEr0A      [17] 3439 	call	_player_register_safe_spot
   110A                    3440 00170$:
                           3441 ;engine/player.h:569: if (pad0 & PAD_A) {
   110A FD 21r04r00   [14] 3442 	ld	iy,#_pad0
   110E FD CB 00 6E   [20] 3443 	bit	5, 0 (iy)
   1112 28 52         [12] 3444 	jr	Z,00184$
                           3445 ;engine/player.h:570: if (pj) {
   1114 3Ar5Br00      [13] 3446 	ld	a,(#_pj + 0)
   1117 B7            [ 4] 3447 	or	a, a
   1118 28 54         [12] 3448 	jr	Z,00187$
                           3449 ;engine/player.h:571: if (pctj < PLAYER_AY_JUMP) pvy -= (PLAYER_AY_JUMP - (pctj));
   111A 3Ar5Cr00      [13] 3450 	ld	a,(#_pctj + 0)
   111D D6 0C         [ 7] 3451 	sub	a, #0x0C
   111F 30 18         [12] 3452 	jr	NC,00176$
   1121 21r5Cr00      [10] 3453 	ld	hl,#_pctj + 0
   1124 66            [ 7] 3454 	ld	h, (hl)
   1125 2E 00         [ 7] 3455 	ld	l,#0x00
   1127 3E 0C         [ 7] 3456 	ld	a,#0x0C
   1129 94            [ 4] 3457 	sub	a, h
   112A 57            [ 4] 3458 	ld	d,a
   112B 3E 00         [ 7] 3459 	ld	a,#0x00
   112D 9D            [ 4] 3460 	sbc	a, l
   112E 5F            [ 4] 3461 	ld	e,a
   112F 21r50r00      [10] 3462 	ld	hl,#_pvy
   1132 7E            [ 7] 3463 	ld	a,(hl)
   1133 92            [ 4] 3464 	sub	a, d
   1134 77            [ 7] 3465 	ld	(hl),a
   1135 23            [ 6] 3466 	inc	hl
   1136 7E            [ 7] 3467 	ld	a,(hl)
   1137 9B            [ 4] 3468 	sbc	a, e
   1138 77            [ 7] 3469 	ld	(hl),a
   1139                    3470 00176$:
                           3471 ;engine/player.h:572: if (pvy < -PLAYER_VY_JUMP_MAX) pvy = -PLAYER_VY_JUMP_MAX;
   1139 3Ar50r00      [13] 3472 	ld	a,(#_pvy + 0)
   113C D6 60         [ 7] 3473 	sub	a, #0x60
   113E 3Ar51r00      [13] 3474 	ld	a,(#_pvy + 1)
   1141 17            [ 4] 3475 	rla
   1142 3F            [ 4] 3476 	ccf
   1143 1F            [ 4] 3477 	rra
   1144 DE 7F         [ 7] 3478 	sbc	a, #0x7F
   1146 30 06         [12] 3479 	jr	NC,00178$
   1148 21 60 FF      [10] 3480 	ld	hl,#0xFF60
   114B 22r50r00      [16] 3481 	ld	(_pvy),hl
   114E                    3482 00178$:
                           3483 ;engine/player.h:573: ++ pctj; if (pctj == 16) pj = 0;	
   114E FD 21r5Cr00   [14] 3484 	ld	iy,#_pctj
   1152 FD 34 00      [23] 3485 	inc	0 (iy)
   1155 3Ar5Cr00      [13] 3486 	ld	a,(#_pctj + 0)
   1158 D6 10         [ 7] 3487 	sub	a, #0x10
   115A 20 12         [12] 3488 	jr	NZ,00187$
   115C FD 21r5Br00   [14] 3489 	ld	iy,#_pj
   1160 FD 36 00 00   [19] 3490 	ld	0 (iy),#0x00
   1164 18 08         [12] 3491 	jr	00187$
   1166                    3492 00184$:
                           3493 ;engine/player.h:576: pj = 0; 
   1166 FD 21r5Br00   [14] 3494 	ld	iy,#_pj
   116A FD 36 00 00   [19] 3495 	ld	0 (iy),#0x00
   116E                    3496 00187$:
                           3497 ;engine/player.h:628: if (!(pad0 & PAD_LEFT || pad0 & PAD_RIGHT)) {
   116E 3Ar04r00      [13] 3498 	ld	a,(#_pad0 + 0)
   1171 E6 04         [ 7] 3499 	and	a, #0x04
   1173 57            [ 4] 3500 	ld	d,a
   1174 1E 00         [ 7] 3501 	ld	e,#0x00
   1176 3Ar04r00      [13] 3502 	ld	a,(#_pad0 + 0)
   1179 E6 08         [ 7] 3503 	and	a, #0x08
   117B 47            [ 4] 3504 	ld	b,a
   117C 0E 00         [ 7] 3505 	ld	c,#0x00
   117E 7B            [ 4] 3506 	ld	a,e
   117F B2            [ 4] 3507 	or	a,d
   1180 20 66         [12] 3508 	jr	NZ,00198$
   1182 79            [ 4] 3509 	ld	a,c
   1183 B0            [ 4] 3510 	or	a,b
   1184 20 62         [12] 3511 	jr	NZ,00198$
                           3512 ;engine/player.h:636: if (pvx > 0) {
   1186 AF            [ 4] 3513 	xor	a, a
   1187 FD 21r4Er00   [14] 3514 	ld	iy,#_pvx
   118B FD BE 00      [19] 3515 	cp	a, 0 (iy)
   118E FD 21r4Er00   [14] 3516 	ld	iy,#_pvx
   1192 FD 9E 01      [19] 3517 	sbc	a, 1 (iy)
   1195 E2r9Ar11      [10] 3518 	jp	PO, 00604$
   1198 EE 80         [ 7] 3519 	xor	a, #0x80
   119A                    3520 00604$:
   119A F2rB8r11      [10] 3521 	jp	P,00195$
                           3522 ;engine/player.h:641: pvx -= PLAYER_RX;
   119D 21r4Er00      [10] 3523 	ld	hl,#_pvx
   11A0 7E            [ 7] 3524 	ld	a,(hl)
   11A1 C6 F4         [ 7] 3525 	add	a,#0xF4
   11A3 77            [ 7] 3526 	ld	(hl),a
   11A4 23            [ 6] 3527 	inc	hl
   11A5 7E            [ 7] 3528 	ld	a,(hl)
   11A6 CE FF         [ 7] 3529 	adc	a,#0xFF
   11A8 77            [ 7] 3530 	ld	(hl),a
                           3531 ;engine/player.h:644: if (pvx < 0) pvx = 0;
   11A9 3Ar4Fr00      [13] 3532 	ld	a,(#_pvx + 1)
   11AC CB 7F         [ 8] 3533 	bit	7,a
   11AE 28 38         [12] 3534 	jr	Z,00198$
   11B0 21 00 00      [10] 3535 	ld	hl,#0x0000
   11B3 22r4Er00      [16] 3536 	ld	(_pvx),hl
   11B6 18 30         [12] 3537 	jr	00198$
   11B8                    3538 00195$:
                           3539 ;engine/player.h:645: } else if (pvx < 0) {
   11B8 3Ar4Fr00      [13] 3540 	ld	a,(#_pvx + 1)
   11BB CB 7F         [ 8] 3541 	bit	7,a
   11BD 28 29         [12] 3542 	jr	Z,00198$
                           3543 ;engine/player.h:650: pvx += PLAYER_RX;
   11BF 21r4Er00      [10] 3544 	ld	hl,#_pvx
   11C2 7E            [ 7] 3545 	ld	a,(hl)
   11C3 C6 0C         [ 7] 3546 	add	a, #0x0C
   11C5 77            [ 7] 3547 	ld	(hl),a
   11C6 23            [ 6] 3548 	inc	hl
   11C7 7E            [ 7] 3549 	ld	a,(hl)
   11C8 CE 00         [ 7] 3550 	adc	a, #0x00
   11CA 77            [ 7] 3551 	ld	(hl),a
                           3552 ;engine/player.h:653: if (pvx > 0) pvx = 0;
   11CB AF            [ 4] 3553 	xor	a, a
   11CC FD 21r4Er00   [14] 3554 	ld	iy,#_pvx
   11D0 FD BE 00      [19] 3555 	cp	a, 0 (iy)
   11D3 FD 21r4Er00   [14] 3556 	ld	iy,#_pvx
   11D7 FD 9E 01      [19] 3557 	sbc	a, 1 (iy)
   11DA E2rDFr11      [10] 3558 	jp	PO, 00605$
   11DD EE 80         [ 7] 3559 	xor	a, #0x80
   11DF                    3560 00605$:
   11DF F2rE8r11      [10] 3561 	jp	P,00198$
   11E2 21 00 00      [10] 3562 	ld	hl,#0x0000
   11E5 22r4Er00      [16] 3563 	ld	(_pvx),hl
   11E8                    3564 00198$:
                           3565 ;engine/player.h:658: if (pad0 & PAD_LEFT) {
   11E8 7B            [ 4] 3566 	ld	a,e
   11E9 B2            [ 4] 3567 	or	a,d
   11EA 28 2E         [12] 3568 	jr	Z,00203$
                           3569 ;engine/player.h:662: pfacing = CELL_FACING_LEFT;		
   11EC FD 21r56r00   [14] 3570 	ld	iy,#_pfacing
   11F0 FD 36 00 08   [19] 3571 	ld	0 (iy),#0x08
                           3572 ;engine/player.h:665: if (pvx > -PLAYER_VX_MAX) {
   11F4 3E 90         [ 7] 3573 	ld	a,#0x90
   11F6 FD 21r4Er00   [14] 3574 	ld	iy,#_pvx
   11FA FD BE 00      [19] 3575 	cp	a, 0 (iy)
   11FD 3E FF         [ 7] 3576 	ld	a,#0xFF
   11FF FD 21r4Er00   [14] 3577 	ld	iy,#_pvx
   1203 FD 9E 01      [19] 3578 	sbc	a, 1 (iy)
   1206 E2r0Br12      [10] 3579 	jp	PO, 00606$
   1209 EE 80         [ 7] 3580 	xor	a, #0x80
   120B                    3581 00606$:
   120B F2r1Ar12      [10] 3582 	jp	P,00203$
                           3583 ;engine/player.h:670: pvx -= PLAYER_AX;
   120E 21r4Er00      [10] 3584 	ld	hl,#_pvx
   1211 7E            [ 7] 3585 	ld	a,(hl)
   1212 C6 F4         [ 7] 3586 	add	a,#0xF4
   1214 77            [ 7] 3587 	ld	(hl),a
   1215 23            [ 6] 3588 	inc	hl
   1216 7E            [ 7] 3589 	ld	a,(hl)
   1217 CE FF         [ 7] 3590 	adc	a,#0xFF
   1219 77            [ 7] 3591 	ld	(hl),a
   121A                    3592 00203$:
                           3593 ;engine/player.h:675: if (pad0 & PAD_RIGHT) {
   121A 79            [ 4] 3594 	ld	a,c
   121B B0            [ 4] 3595 	or	a,b
   121C 28 20         [12] 3596 	jr	Z,00207$
                           3597 ;engine/player.h:679: pfacing = CELL_FACING_RIGHT;
   121E 21r56r00      [10] 3598 	ld	hl,#_pfacing + 0
   1221 36 00         [10] 3599 	ld	(hl), #0x00
                           3600 ;engine/player.h:682: if (pvx < PLAYER_VX_MAX) {
   1223 3Ar4Er00      [13] 3601 	ld	a,(#_pvx + 0)
   1226 D6 70         [ 7] 3602 	sub	a, #0x70
   1228 3Ar4Fr00      [13] 3603 	ld	a,(#_pvx + 1)
   122B 17            [ 4] 3604 	rla
   122C 3F            [ 4] 3605 	ccf
   122D 1F            [ 4] 3606 	rra
   122E DE 80         [ 7] 3607 	sbc	a, #0x80
   1230 30 0C         [12] 3608 	jr	NC,00207$
                           3609 ;engine/player.h:687: pvx += PLAYER_AX;
   1232 21r4Er00      [10] 3610 	ld	hl,#_pvx
   1235 7E            [ 7] 3611 	ld	a,(hl)
   1236 C6 0C         [ 7] 3612 	add	a, #0x0C
   1238 77            [ 7] 3613 	ld	(hl),a
   1239 23            [ 6] 3614 	inc	hl
   123A 7E            [ 7] 3615 	ld	a,(hl)
   123B CE 00         [ 7] 3616 	adc	a, #0x00
   123D 77            [ 7] 3617 	ld	(hl),a
   123E                    3618 00207$:
                           3619 ;engine/player.h:693: px += pvx;
   123E 21r4Er00      [10] 3620 	ld	hl,#_pvx
   1241 D5            [11] 3621 	push	de
   1242 FD 21r4Ar00   [14] 3622 	ld	iy,#_px
   1246 FD E5         [15] 3623 	push	iy
   1248 D1            [10] 3624 	pop	de
   1249 1A            [ 7] 3625 	ld	a,(de)
   124A 86            [ 7] 3626 	add	a, (hl)
   124B 12            [ 7] 3627 	ld	(de),a
   124C 13            [ 6] 3628 	inc	de
   124D 1A            [ 7] 3629 	ld	a,(de)
   124E 23            [ 6] 3630 	inc	hl
   124F 8E            [ 7] 3631 	adc	a, (hl)
   1250 12            [ 7] 3632 	ld	(de),a
   1251 D1            [10] 3633 	pop	de
                           3634 ;engine/player.h:695: if (pgotten) px += pgtmx;
   1252 3Ar5Dr00      [13] 3635 	ld	a,(#_pgotten + 0)
   1255 B7            [ 4] 3636 	or	a, a
   1256 28 14         [12] 3637 	jr	Z,00209$
   1258 21r63r00      [10] 3638 	ld	hl,#_pgtmx
   125B D5            [11] 3639 	push	de
   125C FD 21r4Ar00   [14] 3640 	ld	iy,#_px
   1260 FD E5         [15] 3641 	push	iy
   1262 D1            [10] 3642 	pop	de
   1263 1A            [ 7] 3643 	ld	a,(de)
   1264 86            [ 7] 3644 	add	a, (hl)
   1265 12            [ 7] 3645 	ld	(de),a
   1266 13            [ 6] 3646 	inc	de
   1267 1A            [ 7] 3647 	ld	a,(de)
   1268 23            [ 6] 3648 	inc	hl
   1269 8E            [ 7] 3649 	adc	a, (hl)
   126A 12            [ 7] 3650 	ld	(de),a
   126B D1            [10] 3651 	pop	de
   126C                    3652 00209$:
                           3653 ;engine/player.h:698: if (px < (4<<FIXBITS)) { px = 4 << FIXBITS; prx = 4;}
   126C 3Ar4Br00      [13] 3654 	ld	a,(#_px + 1)
   126F EE 80         [ 7] 3655 	xor	a, #0x80
   1271 D6 81         [ 7] 3656 	sub	a, #0x81
   1273 30 0D         [12] 3657 	jr	NC,00214$
   1275 21 00 01      [10] 3658 	ld	hl,#0x0100
   1278 22r4Ar00      [16] 3659 	ld	(_px),hl
   127B 21r52r00      [10] 3660 	ld	hl,#_prx + 0
   127E 36 04         [10] 3661 	ld	(hl), #0x04
   1280 18 29         [12] 3662 	jr	00215$
   1282                    3663 00214$:
                           3664 ;engine/player.h:699: else if (px > (244<<FIXBITS)) { px = 244 << FIXBITS; prx = 244; }
   1282 AF            [ 4] 3665 	xor	a, a
   1283 FD 21r4Ar00   [14] 3666 	ld	iy,#_px
   1287 FD BE 00      [19] 3667 	cp	a, 0 (iy)
   128A 3E 3D         [ 7] 3668 	ld	a,#0x3D
   128C FD 21r4Ar00   [14] 3669 	ld	iy,#_px
   1290 FD 9E 01      [19] 3670 	sbc	a, 1 (iy)
   1293 E2r98r12      [10] 3671 	jp	PO, 00607$
   1296 EE 80         [ 7] 3672 	xor	a, #0x80
   1298                    3673 00607$:
   1298 F2rA8r12      [10] 3674 	jp	P,00211$
   129B 21 00 3D      [10] 3675 	ld	hl,#0x3D00
   129E 22r4Ar00      [16] 3676 	ld	(_px),hl
   12A1 21r52r00      [10] 3677 	ld	hl,#_prx + 0
   12A4 36 F4         [10] 3678 	ld	(hl), #0xF4
   12A6 18 03         [12] 3679 	jr	00215$
   12A8                    3680 00211$:
                           3681 ;engine/player.h:700: else player_to_pixels ();
   12A8 CDr5Br0B      [17] 3682 	call	_player_to_pixels
   12AB                    3683 00215$:
                           3684 ;engine/player.h:705: cy1 = (pry - PLAYER_COLLISION_VSTRETCH_BG) >> 4;
   12AB 21r53r00      [10] 3685 	ld	hl,#_pry + 0
   12AE 5E            [ 7] 3686 	ld	e, (hl)
   12AF 16 00         [ 7] 3687 	ld	d,#0x00
   12B1 7B            [ 4] 3688 	ld	a,e
   12B2 C6 04         [ 7] 3689 	add	a,#0x04
   12B4 6F            [ 4] 3690 	ld	l,a
   12B5 7A            [ 4] 3691 	ld	a,d
   12B6 CE 00         [ 7] 3692 	adc	a,#0x00
   12B8 67            [ 4] 3693 	ld	h,a
   12B9 CB 2C         [ 8] 3694 	sra	h
   12BB CB 1D         [ 8] 3695 	rr	l
   12BD CB 2C         [ 8] 3696 	sra	h
   12BF CB 1D         [ 8] 3697 	rr	l
   12C1 CB 2C         [ 8] 3698 	sra	h
   12C3 CB 1D         [ 8] 3699 	rr	l
   12C5 CB 2C         [ 8] 3700 	sra	h
   12C7 CB 1D         [ 8] 3701 	rr	l
   12C9 FD 21r24r00   [14] 3702 	ld	iy,#_cy1
   12CD FD 75 00      [19] 3703 	ld	0 (iy),l
                           3704 ;engine/player.h:706: cy2 = (pry + 15) >> 4;
   12D0 21 0F 00      [10] 3705 	ld	hl,#0x000F
   12D3 19            [11] 3706 	add	hl,de
   12D4 CB 2C         [ 8] 3707 	sra	h
   12D6 CB 1D         [ 8] 3708 	rr	l
   12D8 CB 2C         [ 8] 3709 	sra	h
   12DA CB 1D         [ 8] 3710 	rr	l
   12DC CB 2C         [ 8] 3711 	sra	h
   12DE CB 1D         [ 8] 3712 	rr	l
   12E0 CB 2C         [ 8] 3713 	sra	h
   12E2 CB 1D         [ 8] 3714 	rr	l
   12E4 FD 21r25r00   [14] 3715 	ld	iy,#_cy2
   12E8 FD 75 00      [19] 3716 	ld	0 (iy),l
                           3717 ;engine/player.h:709: rds16 = pvx + pgtmx;
   12EB 21r63r00      [10] 3718 	ld	hl,#_pgtmx
   12EE D5            [11] 3719 	push	de
   12EF FD 21r0Ar00   [14] 3720 	ld	iy,#_rds16
   12F3 FD E5         [15] 3721 	push	iy
   12F5 D1            [10] 3722 	pop	de
   12F6 3Ar4Er00      [13] 3723 	ld	a,(#_pvx + 0)
   12F9 86            [ 7] 3724 	add	a, (hl)
   12FA 12            [ 7] 3725 	ld	(de),a
   12FB 3Ar4Fr00      [13] 3726 	ld	a,(#_pvx + 1)
   12FE 23            [ 6] 3727 	inc	hl
   12FF 8E            [ 7] 3728 	adc	a, (hl)
   1300 13            [ 6] 3729 	inc	de
   1301 12            [ 7] 3730 	ld	(de),a
   1302 D1            [10] 3731 	pop	de
                           3732 ;engine/player.h:710: if (rds16) 	{
   1303 3Ar0Br00      [13] 3733 	ld	a,(#_rds16 + 1)
   1306 FD 21r0Ar00   [14] 3734 	ld	iy,#_rds16
   130A FD B6 00      [19] 3735 	or	a,0 (iy)
   130D CAr5Fr14      [10] 3736 	jp	Z,00232$
                           3737 ;engine/player.h:711: if (rds16 < 0) {
   1310 3Ar0Br00      [13] 3738 	ld	a,(#_rds16 + 1)
   1313 CB 7F         [ 8] 3739 	bit	7,a
   1315 28 24         [12] 3740 	jr	Z,00217$
                           3741 ;engine/player.h:712: cx1 = cx2 = prx >> 4; 
   1317 3Ar52r00      [13] 3742 	ld	a,(#_prx + 0)
   131A 07            [ 4] 3743 	rlca
   131B 07            [ 4] 3744 	rlca
   131C 07            [ 4] 3745 	rlca
   131D 07            [ 4] 3746 	rlca
   131E E6 0F         [ 7] 3747 	and	a,#0x0F
   1320 32r23r00      [13] 3748 	ld	(#_cx2 + 0),a
                           3749 ;engine/player.h:713: rda = (cx1 + 1) << 4;
   1323 32r22r00      [13] 3750 	ld	(#_cx1 + 0),a
   1326 3C            [ 4] 3751 	inc	a
   1327 07            [ 4] 3752 	rlca
   1328 07            [ 4] 3753 	rlca
   1329 07            [ 4] 3754 	rlca
   132A 07            [ 4] 3755 	rlca
   132B E6 F0         [ 7] 3756 	and	a,#0xF0
   132D 32r18r00      [13] 3757 	ld	(#_rda + 0),a
                           3758 ;engine/player.h:714: rdm = cx1 - 1;
   1330 21r1Cr00      [10] 3759 	ld	hl,#_rdm
   1333 3Ar22r00      [13] 3760 	ld	a,(#_cx1 + 0)
   1336 C6 FF         [ 7] 3761 	add	a,#0xFF
   1338 77            [ 7] 3762 	ld	(hl),a
   1339 18 3A         [12] 3763 	jr	00218$
   133B                    3764 00217$:
                           3765 ;engine/player.h:716: cx1 = cx2 = (prx + 8) >> 4;
   133B FD 21r52r00   [14] 3766 	ld	iy,#_prx
   133F FD 6E 00      [19] 3767 	ld	l,0 (iy)
   1342 26 00         [ 7] 3768 	ld	h,#0x00
   1344 01 08 00      [10] 3769 	ld	bc,#0x0008
   1347 09            [11] 3770 	add	hl,bc
   1348 CB 2C         [ 8] 3771 	sra	h
   134A CB 1D         [ 8] 3772 	rr	l
   134C CB 2C         [ 8] 3773 	sra	h
   134E CB 1D         [ 8] 3774 	rr	l
   1350 CB 2C         [ 8] 3775 	sra	h
   1352 CB 1D         [ 8] 3776 	rr	l
   1354 CB 2C         [ 8] 3777 	sra	h
   1356 CB 1D         [ 8] 3778 	rr	l
   1358 7D            [ 4] 3779 	ld	a,l
   1359 32r23r00      [13] 3780 	ld	(#_cx2 + 0),a
                           3781 ;engine/player.h:717: rda = ((cx1 - 1) << 4) + 8;
   135C 32r22r00      [13] 3782 	ld	(#_cx1 + 0),a
   135F C6 FF         [ 7] 3783 	add	a,#0xFF
   1361 07            [ 4] 3784 	rlca
   1362 07            [ 4] 3785 	rlca
   1363 07            [ 4] 3786 	rlca
   1364 07            [ 4] 3787 	rlca
   1365 E6 F0         [ 7] 3788 	and	a,#0xF0
   1367 21r18r00      [10] 3789 	ld	hl,#_rda
   136A C6 08         [ 7] 3790 	add	a, #0x08
   136C 77            [ 7] 3791 	ld	(hl),a
                           3792 ;engine/player.h:718: rdm = cx1 + 1;
   136D 21r1Cr00      [10] 3793 	ld	hl,#_rdm
   1370 3Ar22r00      [13] 3794 	ld	a,(#_cx1 + 0)
   1373 3C            [ 4] 3795 	inc	a
   1374 77            [ 7] 3796 	ld	(hl),a
   1375                    3797 00218$:
                           3798 ;engine/player.h:734: cm_two_points ();
   1375 CDrE6r06      [17] 3799 	call	_cm_two_points
                           3800 ;engine/player.h:735: if ((at1 & 8) || (at2 & 8)) {
   1378 FD 21r20r00   [14] 3801 	ld	iy,#_at1
   137C FD CB 00 5E   [20] 3802 	bit	3, 0 (iy)
   1380 20 0B         [12] 3803 	jr	NZ,00225$
   1382 FD 21r21r00   [14] 3804 	ld	iy,#_at2
   1386 FD CB 00 5E   [20] 3805 	bit	3, 0 (iy)
   138A CAr13r14      [10] 3806 	jp	Z,00226$
   138D                    3807 00225$:
                           3808 ;engine/player.h:736: pvx = 0; prx = rda; px = prx << FIXBITS; pfiring = 1;
   138D 21 00 00      [10] 3809 	ld	hl,#0x0000
   1390 22r4Er00      [16] 3810 	ld	(_pvx),hl
   1393 3Ar18r00      [13] 3811 	ld	a,(#_rda + 0)
   1396 32r52r00      [13] 3812 	ld	(#_prx + 0),a
   1399 FD 21r52r00   [14] 3813 	ld	iy,#_prx
   139D FD 6E 00      [19] 3814 	ld	l,0 (iy)
   13A0 26 00         [ 7] 3815 	ld	h,#0x00
   13A2 29            [11] 3816 	add	hl, hl
   13A3 29            [11] 3817 	add	hl, hl
   13A4 29            [11] 3818 	add	hl, hl
   13A5 29            [11] 3819 	add	hl, hl
   13A6 29            [11] 3820 	add	hl, hl
   13A7 29            [11] 3821 	add	hl, hl
   13A8 22r4Ar00      [16] 3822 	ld	(_px),hl
   13AB FD 21r74r00   [14] 3823 	ld	iy,#_pfiring
   13AF FD 36 00 01   [19] 3824 	ld	0 (iy),#0x01
                           3825 ;engine/player.h:740: if (at1 & 2) player_process_tile (at1, cx1, cy1, rdm, cy1);
   13B3 FD 21r20r00   [14] 3826 	ld	iy,#_at1
   13B7 FD CB 00 4E   [20] 3827 	bit	1, 0 (iy)
   13BB 28 1F         [12] 3828 	jr	Z,00220$
   13BD 3Ar24r00      [13] 3829 	ld	a,(_cy1)
   13C0 F5            [11] 3830 	push	af
   13C1 33            [ 6] 3831 	inc	sp
   13C2 3Ar1Cr00      [13] 3832 	ld	a,(_rdm)
   13C5 F5            [11] 3833 	push	af
   13C6 33            [ 6] 3834 	inc	sp
   13C7 3Ar24r00      [13] 3835 	ld	a,(_cy1)
   13CA F5            [11] 3836 	push	af
   13CB 33            [ 6] 3837 	inc	sp
   13CC 3Ar22r00      [13] 3838 	ld	a,(_cx1)
   13CF F5            [11] 3839 	push	af
   13D0 33            [ 6] 3840 	inc	sp
   13D1 3Ar20r00      [13] 3841 	ld	a,(_at1)
   13D4 F5            [11] 3842 	push	af
   13D5 33            [ 6] 3843 	inc	sp
   13D6 CDrEEr0B      [17] 3844 	call	_player_process_tile
   13D9 F1            [10] 3845 	pop	af
   13DA F1            [10] 3846 	pop	af
   13DB 33            [ 6] 3847 	inc	sp
   13DC                    3848 00220$:
                           3849 ;engine/player.h:741: if (cy1 != cy2) if (at2 & 2) player_process_tile (at2, cx1, cy2, rdm, cy2);
   13DC 3Ar24r00      [13] 3850 	ld	a,(#_cy1 + 0)
   13DF FD 21r25r00   [14] 3851 	ld	iy,#_cy2
   13E3 FD 96 00      [19] 3852 	sub	a, 0 (iy)
   13E6 28 4C         [12] 3853 	jr	Z,00227$
   13E8 FD 21r21r00   [14] 3854 	ld	iy,#_at2
   13EC FD CB 00 4E   [20] 3855 	bit	1, 0 (iy)
   13F0 28 42         [12] 3856 	jr	Z,00227$
   13F2 3Ar25r00      [13] 3857 	ld	a,(_cy2)
   13F5 F5            [11] 3858 	push	af
   13F6 33            [ 6] 3859 	inc	sp
   13F7 3Ar1Cr00      [13] 3860 	ld	a,(_rdm)
   13FA F5            [11] 3861 	push	af
   13FB 33            [ 6] 3862 	inc	sp
   13FC 3Ar25r00      [13] 3863 	ld	a,(_cy2)
   13FF F5            [11] 3864 	push	af
   1400 33            [ 6] 3865 	inc	sp
   1401 3Ar22r00      [13] 3866 	ld	a,(_cx1)
   1404 F5            [11] 3867 	push	af
   1405 33            [ 6] 3868 	inc	sp
   1406 3Ar21r00      [13] 3869 	ld	a,(_at2)
   1409 F5            [11] 3870 	push	af
   140A 33            [ 6] 3871 	inc	sp
   140B CDrEEr0B      [17] 3872 	call	_player_process_tile
   140E F1            [10] 3873 	pop	af
   140F F1            [10] 3874 	pop	af
   1410 33            [ 6] 3875 	inc	sp
   1411 18 21         [12] 3876 	jr	00227$
   1413                    3877 00226$:
                           3878 ;engine/player.h:744: hith = ((at1 & 1) || (at2 & 1));
   1413 FD 21r20r00   [14] 3879 	ld	iy,#_at1
   1417 FD CB 00 46   [20] 3880 	bit	0, 0 (iy)
   141B 20 0E         [12] 3881 	jr	NZ,00259$
   141D FD 21r21r00   [14] 3882 	ld	iy,#_at2
   1421 FD CB 00 46   [20] 3883 	bit	0, 0 (iy)
   1425 20 04         [12] 3884 	jr	NZ,00259$
   1427 3E 00         [ 7] 3885 	ld	a,#0x00
   1429 18 02         [12] 3886 	jr	00260$
   142B                    3887 00259$:
   142B 3E 01         [ 7] 3888 	ld	a,#0x01
   142D                    3889 00260$:
   142D FD 21r68r00   [14] 3890 	ld	iy,#_hith
   1431 FD 77 00      [19] 3891 	ld	0 (iy),a
   1434                    3892 00227$:
                           3893 ;engine/player.h:747: if (pvy > 0) hith &= ((pry & 15) > 4);
   1434 AF            [ 4] 3894 	xor	a, a
   1435 FD 21r50r00   [14] 3895 	ld	iy,#_pvy
   1439 FD BE 00      [19] 3896 	cp	a, 0 (iy)
   143C FD 21r50r00   [14] 3897 	ld	iy,#_pvy
   1440 FD 9E 01      [19] 3898 	sbc	a, 1 (iy)
   1443 E2r48r14      [10] 3899 	jp	PO, 00618$
   1446 EE 80         [ 7] 3900 	xor	a, #0x80
   1448                    3901 00618$:
   1448 F2r5Fr14      [10] 3902 	jp	P,00232$
   144B 3Ar53r00      [13] 3903 	ld	a,(#_pry + 0)
   144E E6 0F         [ 7] 3904 	and	a, #0x0F
   1450 67            [ 4] 3905 	ld	h,a
   1451 3E 04         [ 7] 3906 	ld	a,#0x04
   1453 94            [ 4] 3907 	sub	a, h
   1454 3E 00         [ 7] 3908 	ld	a,#0x00
   1456 17            [ 4] 3909 	rla
   1457 57            [ 4] 3910 	ld	d,a
   1458 3Ar68r00      [13] 3911 	ld	a,(#_hith + 0)
   145B A2            [ 4] 3912 	and	a, d
                           3913 ;engine/player.h:775: phit = 0;
   145C 32r68r00      [13] 3914 	ld	(#_hith + 0),a
   145F                    3915 00232$:
   145F FD 21r62r00   [14] 3916 	ld	iy,#_phit
   1463 FD 36 00 00   [19] 3917 	ld	0 (iy),#0x00
                           3918 ;engine/player.h:777: if (pgotten == 0) {
   1467 3Ar5Dr00      [13] 3919 	ld	a,(#_pgotten + 0)
   146A B7            [ 4] 3920 	or	a, a
   146B C2rAEr15      [10] 3921 	jp	NZ,00247$
                           3922 ;engine/player.h:785: if (hitv) { phit = 1; pvy = ADD_SIGN (-pvy, PLAYER_V_REBOUND); pry = pcy; py = pry << FIXBITS; } 
   146E 3Ar67r00      [13] 3923 	ld	a,(#_hitv + 0)
   1471 B7            [ 4] 3924 	or	a, a
   1472 28 50         [12] 3925 	jr	Z,00236$
   1474 21r62r00      [10] 3926 	ld	hl,#_phit + 0
   1477 36 01         [10] 3927 	ld	(hl), #0x01
   1479 AF            [ 4] 3928 	xor	a, a
   147A FD 21r50r00   [14] 3929 	ld	iy,#_pvy
   147E FD 96 00      [19] 3930 	sub	a, 0 (iy)
   1481 67            [ 4] 3931 	ld	h,a
   1482 3E 00         [ 7] 3932 	ld	a, #0x00
   1484 FD 21r50r00   [14] 3933 	ld	iy,#_pvy
   1488 FD 9E 01      [19] 3934 	sbc	a, 1 (iy)
   148B 6F            [ 4] 3935 	ld	l,a
   148C B4            [ 4] 3936 	or	a,h
   148D 28 15         [12] 3937 	jr	Z,00261$
   148F AF            [ 4] 3938 	xor	a, a
   1490 BC            [ 4] 3939 	cp	a, h
   1491 9D            [ 4] 3940 	sbc	a, l
   1492 E2r97r14      [10] 3941 	jp	PO, 00619$
   1495 EE 80         [ 7] 3942 	xor	a, #0x80
   1497                    3943 00619$:
   1497 F2r9Fr14      [10] 3944 	jp	P,00263$
   149A 21 E0 00      [10] 3945 	ld	hl,#0x00E0
   149D 18 08         [12] 3946 	jr	00262$
   149F                    3947 00263$:
   149F 21 20 FF      [10] 3948 	ld	hl,#0xFF20
   14A2 18 03         [12] 3949 	jr	00262$
   14A4                    3950 00261$:
   14A4 21 00 00      [10] 3951 	ld	hl,#0x0000
   14A7                    3952 00262$:
   14A7 22r50r00      [16] 3953 	ld	(_pvy),hl
   14AA 3Ar55r00      [13] 3954 	ld	a,(#_pcy + 0)
   14AD 32r53r00      [13] 3955 	ld	(#_pry + 0),a
   14B0 FD 21r53r00   [14] 3956 	ld	iy,#_pry
   14B4 FD 6E 00      [19] 3957 	ld	l,0 (iy)
   14B7 26 00         [ 7] 3958 	ld	h,#0x00
   14B9 29            [11] 3959 	add	hl, hl
   14BA 29            [11] 3960 	add	hl, hl
   14BB 29            [11] 3961 	add	hl, hl
   14BC 29            [11] 3962 	add	hl, hl
   14BD 29            [11] 3963 	add	hl, hl
   14BE 29            [11] 3964 	add	hl, hl
   14BF 22r4Cr00      [16] 3965 	ld	(_py),hl
   14C2 18 54         [12] 3966 	jr	00237$
   14C4                    3967 00236$:
                           3968 ;engine/player.h:789: if (hith) { phit = 1; pvx = ADD_SIGN (-pvx, PLAYER_V_REBOUND); prx = pcx; px = prx << FIXBITS; }
   14C4 3Ar68r00      [13] 3969 	ld	a,(#_hith + 0)
   14C7 B7            [ 4] 3970 	or	a, a
   14C8 28 4E         [12] 3971 	jr	Z,00237$
   14CA 21r62r00      [10] 3972 	ld	hl,#_phit + 0
   14CD 36 01         [10] 3973 	ld	(hl), #0x01
   14CF AF            [ 4] 3974 	xor	a, a
   14D0 FD 21r4Er00   [14] 3975 	ld	iy,#_pvx
   14D4 FD 96 00      [19] 3976 	sub	a, 0 (iy)
   14D7 67            [ 4] 3977 	ld	h,a
   14D8 3E 00         [ 7] 3978 	ld	a, #0x00
   14DA FD 21r4Er00   [14] 3979 	ld	iy,#_pvx
   14DE FD 9E 01      [19] 3980 	sbc	a, 1 (iy)
   14E1 6F            [ 4] 3981 	ld	l,a
   14E2 B4            [ 4] 3982 	or	a,h
   14E3 28 15         [12] 3983 	jr	Z,00265$
   14E5 AF            [ 4] 3984 	xor	a, a
   14E6 BC            [ 4] 3985 	cp	a, h
   14E7 9D            [ 4] 3986 	sbc	a, l
   14E8 E2rEDr14      [10] 3987 	jp	PO, 00620$
   14EB EE 80         [ 7] 3988 	xor	a, #0x80
   14ED                    3989 00620$:
   14ED F2rF5r14      [10] 3990 	jp	P,00267$
   14F0 21 E0 00      [10] 3991 	ld	hl,#0x00E0
   14F3 18 08         [12] 3992 	jr	00266$
   14F5                    3993 00267$:
   14F5 21 20 FF      [10] 3994 	ld	hl,#0xFF20
   14F8 18 03         [12] 3995 	jr	00266$
   14FA                    3996 00265$:
   14FA 21 00 00      [10] 3997 	ld	hl,#0x0000
   14FD                    3998 00266$:
   14FD 22r4Er00      [16] 3999 	ld	(_pvx),hl
   1500 3Ar54r00      [13] 4000 	ld	a,(#_pcx + 0)
   1503 32r52r00      [13] 4001 	ld	(#_prx + 0),a
   1506 FD 21r52r00   [14] 4002 	ld	iy,#_prx
   150A FD 6E 00      [19] 4003 	ld	l,0 (iy)
   150D 26 00         [ 7] 4004 	ld	h,#0x00
   150F 29            [11] 4005 	add	hl, hl
   1510 29            [11] 4006 	add	hl, hl
   1511 29            [11] 4007 	add	hl, hl
   1512 29            [11] 4008 	add	hl, hl
   1513 29            [11] 4009 	add	hl, hl
   1514 29            [11] 4010 	add	hl, hl
   1515 22r4Ar00      [16] 4011 	ld	(_px),hl
   1518                    4012 00237$:
                           4013 ;engine/player.h:793: cx1 = cx2 = (prx + 4) >> 4;
   1518 21r52r00      [10] 4014 	ld	hl,#_prx + 0
   151B 5E            [ 7] 4015 	ld	e, (hl)
   151C 16 00         [ 7] 4016 	ld	d,#0x00
   151E 13            [ 6] 4017 	inc	de
   151F 13            [ 6] 4018 	inc	de
   1520 13            [ 6] 4019 	inc	de
   1521 13            [ 6] 4020 	inc	de
   1522 CB 2A         [ 8] 4021 	sra	d
   1524 CB 1B         [ 8] 4022 	rr	e
   1526 CB 2A         [ 8] 4023 	sra	d
   1528 CB 1B         [ 8] 4024 	rr	e
   152A CB 2A         [ 8] 4025 	sra	d
   152C CB 1B         [ 8] 4026 	rr	e
   152E CB 2A         [ 8] 4027 	sra	d
   1530 CB 1B         [ 8] 4028 	rr	e
   1532 21r23r00      [10] 4029 	ld	hl,#_cx2 + 0
   1535 73            [ 7] 4030 	ld	(hl), e
   1536 21r22r00      [10] 4031 	ld	hl,#_cx1 + 0
   1539 73            [ 7] 4032 	ld	(hl), e
                           4033 ;engine/player.h:794: cy1 = pry >> 4; cy2 = (pry + 15) >> 4;
   153A 3Ar53r00      [13] 4034 	ld	a,(#_pry + 0)
   153D 07            [ 4] 4035 	rlca
   153E 07            [ 4] 4036 	rlca
   153F 07            [ 4] 4037 	rlca
   1540 07            [ 4] 4038 	rlca
   1541 E6 0F         [ 7] 4039 	and	a,#0x0F
   1543 32r24r00      [13] 4040 	ld	(#_cy1 + 0),a
   1546 FD 21r53r00   [14] 4041 	ld	iy,#_pry
   154A FD 6E 00      [19] 4042 	ld	l,0 (iy)
   154D 26 00         [ 7] 4043 	ld	h,#0x00
   154F 01 0F 00      [10] 4044 	ld	bc,#0x000F
   1552 09            [11] 4045 	add	hl,bc
   1553 CB 2C         [ 8] 4046 	sra	h
   1555 CB 1D         [ 8] 4047 	rr	l
   1557 CB 2C         [ 8] 4048 	sra	h
   1559 CB 1D         [ 8] 4049 	rr	l
   155B CB 2C         [ 8] 4050 	sra	h
   155D CB 1D         [ 8] 4051 	rr	l
   155F CB 2C         [ 8] 4052 	sra	h
   1561 CB 1D         [ 8] 4053 	rr	l
   1563 FD 21r25r00   [14] 4054 	ld	iy,#_cy2
   1567 FD 75 00      [19] 4055 	ld	0 (iy),l
                           4056 ;engine/player.h:795: cm_two_points ();
   156A CDrE6r06      [17] 4057 	call	_cm_two_points
                           4058 ;engine/player.h:796: if ((at1 & 1) || (at2 & 1)) phit = 1;
   156D FD 21r20r00   [14] 4059 	ld	iy,#_at1
   1571 FD CB 00 46   [20] 4060 	bit	0, 0 (iy)
   1575 20 0A         [12] 4061 	jr	NZ,00238$
   1577 FD 21r21r00   [14] 4062 	ld	iy,#_at2
   157B FD CB 00 46   [20] 4063 	bit	0, 0 (iy)
   157F 28 08         [12] 4064 	jr	Z,00239$
   1581                    4065 00238$:
   1581 FD 21r62r00   [14] 4066 	ld	iy,#_phit
   1585 FD 36 00 01   [19] 4067 	ld	0 (iy),#0x01
   1589                    4068 00239$:
                           4069 ;engine/player.h:799: if (!pflickering && !pbouncing) if (phit) { 
   1589 3Ar60r00      [13] 4070 	ld	a,(#_pflickering + 0)
   158C B7            [ 4] 4071 	or	a, a
   158D 20 1F         [12] 4072 	jr	NZ,00247$
   158F 3Ar61r00      [13] 4073 	ld	a,(#_pbouncing + 0)
   1592 B7            [ 4] 4074 	or	a, a
   1593 20 19         [12] 4075 	jr	NZ,00247$
   1595 3Ar62r00      [13] 4076 	ld	a,(#_phit + 0)
   1598 B7            [ 4] 4077 	or	a, a
   1599 28 13         [12] 4078 	jr	Z,00247$
                           4079 ;engine/player.h:800: player_to_pixels ();
   159B CDr5Br0B      [17] 4080 	call	_player_to_pixels
                           4081 ;engine/player.h:801: en_sg_2 = 1;
   159E FD 21r48r00   [14] 4082 	ld	iy,#_en_sg_2
   15A2 FD 36 00 01   [19] 4083 	ld	0 (iy),#0x01
                           4084 ;engine/player.h:808: pkill = en_sg_2;
   15A6 FD 21r6Br00   [14] 4085 	ld	iy,#_pkill
   15AA FD 36 00 01   [19] 4086 	ld	0 (iy),#0x01
   15AE                    4087 00247$:
                           4088 ;engine/../my/player_frame_selector.h:37: if (ppossee || pgotten) {
   15AE 3Ar5Er00      [13] 4089 	ld	a,(#_ppossee + 0)
   15B1 B7            [ 4] 4090 	or	a, a
   15B2 20 06         [12] 4091 	jr	NZ,00252$
   15B4 3Ar5Dr00      [13] 4092 	ld	a,(#_pgotten + 0)
   15B7 B7            [ 4] 4093 	or	a, a
   15B8 28 41         [12] 4094 	jr	Z,00253$
   15BA                    4095 00252$:
                           4096 ;engine/../my/player_frame_selector.h:39: if (pvx > PLAYER_VX_MIN || pvx < -PLAYER_VX_MIN) {
   15BA 3E 18         [ 7] 4097 	ld	a,#0x18
   15BC FD 21r4Er00   [14] 4098 	ld	iy,#_pvx
   15C0 FD BE 00      [19] 4099 	cp	a, 0 (iy)
   15C3 3E 00         [ 7] 4100 	ld	a,#0x00
   15C5 FD 21r4Er00   [14] 4101 	ld	iy,#_pvx
   15C9 FD 9E 01      [19] 4102 	sbc	a, 1 (iy)
   15CC E2rD1r15      [10] 4103 	jp	PO, 00624$
   15CF EE 80         [ 7] 4104 	xor	a, #0x80
   15D1                    4105 00624$:
   15D1 FArE3r15      [10] 4106 	jp	M,00248$
   15D4 3Ar4Er00      [13] 4107 	ld	a,(#_pvx + 0)
   15D7 D6 E8         [ 7] 4108 	sub	a, #0xE8
   15D9 3Ar4Fr00      [13] 4109 	ld	a,(#_pvx + 1)
   15DC 17            [ 4] 4110 	rla
   15DD 3F            [ 4] 4111 	ccf
   15DE 1F            [ 4] 4112 	rra
   15DF DE 7F         [ 7] 4113 	sbc	a, #0x7F
   15E1 30 11         [12] 4114 	jr	NC,00249$
   15E3                    4115 00248$:
                           4116 ;engine/../my/player_frame_selector.h:40: psprid = CELL_WALK_CYCLE + ((prx >> 3) & 3);
   15E3 3Ar52r00      [13] 4117 	ld	a,(#_prx + 0)
   15E6 0F            [ 4] 4118 	rrca
   15E7 0F            [ 4] 4119 	rrca
   15E8 0F            [ 4] 4120 	rrca
   15E9 E6 1F         [ 7] 4121 	and	a,#0x1F
   15EB E6 03         [ 7] 4122 	and	a, #0x03
   15ED 21r58r00      [10] 4123 	ld	hl,#_psprid
   15F0 3C            [ 4] 4124 	inc	a
   15F1 77            [ 7] 4125 	ld	(hl),a
   15F2 18 0C         [12] 4126 	jr	00254$
   15F4                    4127 00249$:
                           4128 ;engine/../my/player_frame_selector.h:42: psprid = CELL_IDLE;
   15F4 21r58r00      [10] 4129 	ld	hl,#_psprid + 0
   15F7 36 00         [10] 4130 	ld	(hl), #0x00
   15F9 18 05         [12] 4131 	jr	00254$
   15FB                    4132 00253$:
                           4133 ;engine/../my/player_frame_selector.h:45: psprid = CELL_AIRBORNE;
   15FB 21r58r00      [10] 4134 	ld	hl,#_psprid + 0
   15FE 36 05         [10] 4135 	ld	(hl), #0x05
   1600                    4136 00254$:
                           4137 ;engine/../my/player_frame_selector.h:55: psprid += pfacing;
   1600 21r56r00      [10] 4138 	ld	hl,#_pfacing
   1603 D5            [11] 4139 	push	de
   1604 FD 21r58r00   [14] 4140 	ld	iy,#_psprid
   1608 FD E5         [15] 4141 	push	iy
   160A D1            [10] 4142 	pop	de
   160B 1A            [ 7] 4143 	ld	a,(de)
   160C 86            [ 7] 4144 	add	a, (hl)
   160D 12            [ 7] 4145 	ld	(de),a
   160E D1            [10] 4146 	pop	de
                           4147 ;engine/player.h:930: prx_old = prx;
   160F 3Ar52r00      [13] 4148 	ld	a,(#_prx + 0)
   1612 32r69r00      [13] 4149 	ld	(#_prx_old + 0),a
                           4150 ;engine/player.h:931: pry_old = pry;
   1615 3Ar53r00      [13] 4151 	ld	a,(#_pry + 0)
   1618 32r6Ar00      [13] 4152 	ld	(#_pry_old + 0),a
   161B DD F9         [10] 4153 	ld	sp, ix
   161D DD E1         [14] 4154 	pop	ix
   161F C9            [10] 4155 	ret
                           4156 ;engine/enengine.h:16: void enems_persistent_deaths_load (void) {
                           4157 ;	---------------------------------
                           4158 ; Function enems_persistent_deaths_load
                           4159 ; ---------------------------------
   1620                    4160 _enems_persistent_deaths_load::
                           4161 ;engine/enengine.h:17: memfill (ep_dead, 0, MAP_SIZE * 3);
   1620 11r4Br02      [10] 4162 	ld	de,#_ep_dead
   1623 21 48 00      [10] 4163 	ld	hl,#0x0048
   1626 E5            [11] 4164 	push	hl
   1627 AF            [ 4] 4165 	xor	a, a
   1628 F5            [11] 4166 	push	af
   1629 33            [ 6] 4167 	inc	sp
   162A D5            [11] 4168 	push	de
   162B CDr00r00      [17] 4169 	call	_memfill
   162E F1            [10] 4170 	pop	af
   162F F1            [10] 4171 	pop	af
   1630 33            [ 6] 4172 	inc	sp
   1631 C9            [10] 4173 	ret
                           4174 ;engine/enengine.h:21: void enems_update_unsigned_char_arrays (void) {
                           4175 ;	---------------------------------
                           4176 ; Function enems_update_unsigned_char_arrays
                           4177 ; ---------------------------------
   1632                    4178 _enems_update_unsigned_char_arrays::
                           4179 ;engine/enengine.h:22: en_t [gpit] = _en_t;
   1632 11rFCr01      [10] 4180 	ld	de,#_en_t+0
   1635 2Ar08r00      [16] 4181 	ld	hl,(_gpit)
   1638 26 00         [ 7] 4182 	ld	h,#0x00
   163A 19            [11] 4183 	add	hl,de
   163B 3Ar32r00      [13] 4184 	ld	a,(#__en_t + 0)
   163E 77            [ 7] 4185 	ld	(hl),a
                           4186 ;engine/enengine.h:23: en_s [gpit] = _en_s;
   163F 11r17r02      [10] 4187 	ld	de,#_en_s+0
   1642 2Ar08r00      [16] 4188 	ld	hl,(_gpit)
   1645 26 00         [ 7] 4189 	ld	h,#0x00
   1647 19            [11] 4190 	add	hl,de
   1648 3Ar33r00      [13] 4191 	ld	a,(#__en_s + 0)
   164B 77            [ 7] 4192 	ld	(hl),a
                           4193 ;engine/enengine.h:24: en_x [gpit] = _en_x; en_y [gpit] = _en_y;
   164C 11rFFr01      [10] 4194 	ld	de,#_en_x+0
   164F 2Ar08r00      [16] 4195 	ld	hl,(_gpit)
   1652 26 00         [ 7] 4196 	ld	h,#0x00
   1654 19            [11] 4197 	add	hl,de
   1655 3Ar34r00      [13] 4198 	ld	a,(#__en_x + 0)
   1658 77            [ 7] 4199 	ld	(hl),a
   1659 11r02r02      [10] 4200 	ld	de,#_en_y+0
   165C 2Ar08r00      [16] 4201 	ld	hl,(_gpit)
   165F 26 00         [ 7] 4202 	ld	h,#0x00
   1661 19            [11] 4203 	add	hl,de
   1662 3Ar35r00      [13] 4204 	ld	a,(#__en_y + 0)
   1665 77            [ 7] 4205 	ld	(hl),a
                           4206 ;engine/enengine.h:25: en_x1 [gpit] = _en_x1; en_y1 [gpit] = _en_y1;
   1666 11r05r02      [10] 4207 	ld	de,#_en_x1+0
   1669 2Ar08r00      [16] 4208 	ld	hl,(_gpit)
   166C 26 00         [ 7] 4209 	ld	h,#0x00
   166E 19            [11] 4210 	add	hl,de
   166F 3Ar36r00      [13] 4211 	ld	a,(#__en_x1 + 0)
   1672 77            [ 7] 4212 	ld	(hl),a
   1673 11r08r02      [10] 4213 	ld	de,#_en_y1+0
   1676 2Ar08r00      [16] 4214 	ld	hl,(_gpit)
   1679 26 00         [ 7] 4215 	ld	h,#0x00
   167B 19            [11] 4216 	add	hl,de
   167C 3Ar37r00      [13] 4217 	ld	a,(#__en_y1 + 0)
   167F 77            [ 7] 4218 	ld	(hl),a
                           4219 ;engine/enengine.h:26: en_x2 [gpit] = _en_x2; en_y2 [gpit] = _en_y2;
   1680 11r0Br02      [10] 4220 	ld	de,#_en_x2+0
   1683 2Ar08r00      [16] 4221 	ld	hl,(_gpit)
   1686 26 00         [ 7] 4222 	ld	h,#0x00
   1688 19            [11] 4223 	add	hl,de
   1689 3Ar38r00      [13] 4224 	ld	a,(#__en_x2 + 0)
   168C 77            [ 7] 4225 	ld	(hl),a
   168D 11r0Er02      [10] 4226 	ld	de,#_en_y2+0
   1690 2Ar08r00      [16] 4227 	ld	hl,(_gpit)
   1693 26 00         [ 7] 4228 	ld	h,#0x00
   1695 19            [11] 4229 	add	hl,de
   1696 3Ar39r00      [13] 4230 	ld	a,(#__en_y2 + 0)
   1699 77            [ 7] 4231 	ld	(hl),a
                           4232 ;engine/enengine.h:27: en_mx [gpit] = _en_mx; en_my [gpit] = _en_my;
   169A 11r11r02      [10] 4233 	ld	de,#_en_mx+0
   169D 2Ar08r00      [16] 4234 	ld	hl,(_gpit)
   16A0 26 00         [ 7] 4235 	ld	h,#0x00
   16A2 19            [11] 4236 	add	hl,de
   16A3 3Ar3Ar00      [13] 4237 	ld	a,(#__en_mx + 0)
   16A6 77            [ 7] 4238 	ld	(hl),a
   16A7 11r14r02      [10] 4239 	ld	de,#_en_my+0
   16AA 2Ar08r00      [16] 4240 	ld	hl,(_gpit)
   16AD 26 00         [ 7] 4241 	ld	h,#0x00
   16AF 19            [11] 4242 	add	hl,de
   16B0 3Ar3Br00      [13] 4243 	ld	a,(#__en_my + 0)
   16B3 77            [ 7] 4244 	ld	(hl),a
                           4245 ;engine/enengine.h:28: en_ct [gpit] = _en_ct;
   16B4 11r2Cr02      [10] 4246 	ld	de,#_en_ct+0
   16B7 2Ar08r00      [16] 4247 	ld	hl,(_gpit)
   16BA 26 00         [ 7] 4248 	ld	h,#0x00
   16BC 19            [11] 4249 	add	hl,de
   16BD 3Ar3Cr00      [13] 4250 	ld	a,(#__en_ct + 0)
   16C0 77            [ 7] 4251 	ld	(hl),a
                           4252 ;engine/enengine.h:29: en_facing [gpit] = _en_facing;
   16C1 11r1Ar02      [10] 4253 	ld	de,#_en_facing+0
   16C4 2Ar08r00      [16] 4254 	ld	hl,(_gpit)
   16C7 26 00         [ 7] 4255 	ld	h,#0x00
   16C9 19            [11] 4256 	add	hl,de
   16CA 3Ar3Dr00      [13] 4257 	ld	a,(#__en_facing + 0)
   16CD 77            [ 7] 4258 	ld	(hl),a
                           4259 ;engine/enengine.h:30: en_state [gpit] = _en_state;
   16CE 11r1Dr02      [10] 4260 	ld	de,#_en_state+0
   16D1 2Ar08r00      [16] 4261 	ld	hl,(_gpit)
   16D4 26 00         [ 7] 4262 	ld	h,#0x00
   16D6 19            [11] 4263 	add	hl,de
   16D7 3Ar3Er00      [13] 4264 	ld	a,(#__en_state + 0)
   16DA 77            [ 7] 4265 	ld	(hl),a
                           4266 ;engine/enengine.h:33: enf_x [gpit] = _enf_x; enf_vx [gpit] = _enf_vx;
   16DB FD 21r08r00   [14] 4267 	ld	iy,#_gpit
   16DF FD 6E 00      [19] 4268 	ld	l,0 (iy)
   16E2 26 00         [ 7] 4269 	ld	h,#0x00
   16E4 29            [11] 4270 	add	hl, hl
   16E5 11r30r02      [10] 4271 	ld	de,#_enf_x
   16E8 19            [11] 4272 	add	hl,de
   16E9 3Ar3Fr00      [13] 4273 	ld	a,(#__enf_x + 0)
   16EC 77            [ 7] 4274 	ld	(hl),a
   16ED 23            [ 6] 4275 	inc	hl
   16EE 3Ar40r00      [13] 4276 	ld	a,(#__enf_x + 1)
   16F1 77            [ 7] 4277 	ld	(hl),a
   16F2 FD 21r08r00   [14] 4278 	ld	iy,#_gpit
   16F6 FD 6E 00      [19] 4279 	ld	l,0 (iy)
   16F9 26 00         [ 7] 4280 	ld	h,#0x00
   16FB 29            [11] 4281 	add	hl, hl
   16FC 11r36r02      [10] 4282 	ld	de,#_enf_vx
   16FF 19            [11] 4283 	add	hl,de
   1700 3Ar43r00      [13] 4284 	ld	a,(#__enf_vx + 0)
   1703 77            [ 7] 4285 	ld	(hl),a
   1704 23            [ 6] 4286 	inc	hl
   1705 3Ar44r00      [13] 4287 	ld	a,(#__enf_vx + 1)
   1708 77            [ 7] 4288 	ld	(hl),a
                           4289 ;engine/enengine.h:34: enf_y [gpit] = _enf_y; enf_vy [gpit] = _enf_vy;
   1709 FD 21r08r00   [14] 4290 	ld	iy,#_gpit
   170D FD 6E 00      [19] 4291 	ld	l,0 (iy)
   1710 26 00         [ 7] 4292 	ld	h,#0x00
   1712 29            [11] 4293 	add	hl, hl
   1713 11r3Cr02      [10] 4294 	ld	de,#_enf_y
   1716 19            [11] 4295 	add	hl,de
   1717 3Ar41r00      [13] 4296 	ld	a,(#__enf_y + 0)
   171A 77            [ 7] 4297 	ld	(hl),a
   171B 23            [ 6] 4298 	inc	hl
   171C 3Ar42r00      [13] 4299 	ld	a,(#__enf_y + 1)
   171F 77            [ 7] 4300 	ld	(hl),a
   1720 FD 21r08r00   [14] 4301 	ld	iy,#_gpit
   1724 FD 6E 00      [19] 4302 	ld	l,0 (iy)
   1727 26 00         [ 7] 4303 	ld	h,#0x00
   1729 29            [11] 4304 	add	hl, hl
   172A 11r42r02      [10] 4305 	ld	de,#_enf_vy
   172D 19            [11] 4306 	add	hl,de
   172E 3Ar45r00      [13] 4307 	ld	a,(#__enf_vy + 0)
   1731 77            [ 7] 4308 	ld	(hl),a
   1732 23            [ 6] 4309 	inc	hl
   1733 3Ar46r00      [13] 4310 	ld	a,(#__enf_vy + 1)
   1736 77            [ 7] 4311 	ld	(hl),a
   1737 C9            [10] 4312 	ret
                           4313 ;engine/enengine.h:38: void enems_facing (void) {
                           4314 ;	---------------------------------
                           4315 ; Function enems_facing
                           4316 ; ---------------------------------
   1738                    4317 _enems_facing::
                           4318 ;engine/enengine.h:39: _en_facing = rda << 2;
   1738 3Ar18r00      [13] 4319 	ld	a,(#_rda + 0)
   173B 87            [ 4] 4320 	add	a, a
   173C 87            [ 4] 4321 	add	a, a
   173D 32r3Dr00      [13] 4322 	ld	(#__en_facing + 0),a
   1740 C9            [10] 4323 	ret
                           4324 ;engine/enengine.h:42: void enems_init_fp (void) {
                           4325 ;	---------------------------------
                           4326 ; Function enems_init_fp
                           4327 ; ---------------------------------
   1741                    4328 _enems_init_fp::
                           4329 ;engine/enengine.h:43: _enf_x = _en_x << 6;
   1741 FD 21r34r00   [14] 4330 	ld	iy,#__en_x
   1745 FD 6E 00      [19] 4331 	ld	l,0 (iy)
   1748 26 00         [ 7] 4332 	ld	h,#0x00
   174A 29            [11] 4333 	add	hl, hl
   174B 29            [11] 4334 	add	hl, hl
   174C 29            [11] 4335 	add	hl, hl
   174D 29            [11] 4336 	add	hl, hl
   174E 29            [11] 4337 	add	hl, hl
   174F 29            [11] 4338 	add	hl, hl
   1750 22r3Fr00      [16] 4339 	ld	(__enf_x),hl
                           4340 ;engine/enengine.h:44: _enf_y = _en_y << 6;
   1753 FD 21r35r00   [14] 4341 	ld	iy,#__en_y
   1757 FD 6E 00      [19] 4342 	ld	l,0 (iy)
   175A 26 00         [ 7] 4343 	ld	h,#0x00
   175C 29            [11] 4344 	add	hl, hl
   175D 29            [11] 4345 	add	hl, hl
   175E 29            [11] 4346 	add	hl, hl
   175F 29            [11] 4347 	add	hl, hl
   1760 29            [11] 4348 	add	hl, hl
   1761 29            [11] 4349 	add	hl, hl
   1762 22r41r00      [16] 4350 	ld	(__enf_y),hl
   1765 C9            [10] 4351 	ret
                           4352 ;engine/enengine.h:47: void enems_boioiong_init (void) {
                           4353 ;	---------------------------------
                           4354 ; Function enems_boioiong_init
                           4355 ; ---------------------------------
   1766                    4356 _enems_boioiong_init::
                           4357 ;engine/enengine.h:48: enems_init_fp ();
   1766 CDr41r17      [17] 4358 	call	_enems_init_fp
                           4359 ;engine/enengine.h:49: _enf_vy = 0; 
   1769 21 00 00      [10] 4360 	ld	hl,#0x0000
   176C 22r45r00      [16] 4361 	ld	(__enf_vy),hl
                           4362 ;engine/enengine.h:50: _enf_vx = ADD_SIGN2 (_en_x2, _en_x1, rdm << FIXBITS);
   176F 3Ar38r00      [13] 4363 	ld	a,(#__en_x2 + 0)
   1772 FD 21r36r00   [14] 4364 	ld	iy,#__en_x1
   1776 FD 96 00      [19] 4365 	sub	a, 0 (iy)
   1779 20 05         [12] 4366 	jr	NZ,00103$
   177B 11 00 00      [10] 4367 	ld	de,#0x0000
   177E 18 23         [12] 4368 	jr	00104$
   1780                    4369 00103$:
   1780 FD 21r1Cr00   [14] 4370 	ld	iy,#_rdm
   1784 FD 6E 00      [19] 4371 	ld	l,0 (iy)
   1787 26 00         [ 7] 4372 	ld	h,#0x00
   1789 29            [11] 4373 	add	hl, hl
   178A 29            [11] 4374 	add	hl, hl
   178B 29            [11] 4375 	add	hl, hl
   178C 29            [11] 4376 	add	hl, hl
   178D 29            [11] 4377 	add	hl, hl
   178E 29            [11] 4378 	add	hl, hl
   178F EB            [ 4] 4379 	ex	de,hl
   1790 3Ar36r00      [13] 4380 	ld	a,(#__en_x1)
   1793 FD 21r38r00   [14] 4381 	ld	iy,#__en_x2
   1797 FD 96 00      [19] 4382 	sub	a, 0 (iy)
   179A 38 07         [12] 4383 	jr	C,00106$
   179C AF            [ 4] 4384 	xor	a, a
   179D 93            [ 4] 4385 	sub	a, e
   179E 5F            [ 4] 4386 	ld	e,a
   179F 3E 00         [ 7] 4387 	ld	a, #0x00
   17A1 9A            [ 4] 4388 	sbc	a, d
   17A2 57            [ 4] 4389 	ld	d,a
   17A3                    4390 00106$:
   17A3                    4391 00104$:
   17A3 ED 53r43r00   [20] 4392 	ld	(__enf_vx),de
                           4393 ;engine/enengine.h:54: _en_ct = 0;
   17A7 21r3Cr00      [10] 4394 	ld	hl,#__en_ct + 0
   17AA 36 00         [10] 4395 	ld	(hl), #0x00
   17AC C9            [10] 4396 	ret
                           4397 ;engine/enengine.h:58: void enems_load (void) {
                           4398 ;	---------------------------------
                           4399 ; Function enems_load
                           4400 ; ---------------------------------
   17AD                    4401 _enems_load::
                           4402 ;engine/enengine.h:59: gp_gen = (unsigned char *) (c_enems + (n_pant << 2) + (n_pant << 3));
   17AD 21rC0r01      [10] 4403 	ld	hl,#_n_pant + 0
   17B0 4E            [ 7] 4404 	ld	c, (hl)
   17B1 06 00         [ 7] 4405 	ld	b,#0x00
   17B3 59            [ 4] 4406 	ld	e, c
   17B4 50            [ 4] 4407 	ld	d, b
   17B5 CB 23         [ 8] 4408 	sla	e
   17B7 CB 12         [ 8] 4409 	rl	d
   17B9 CB 23         [ 8] 4410 	sla	e
   17BB CB 12         [ 8] 4411 	rl	d
   17BD 3Ar93r00      [13] 4412 	ld	a,(#_c_enems + 0)
   17C0 83            [ 4] 4413 	add	a, e
   17C1 5F            [ 4] 4414 	ld	e,a
   17C2 3Ar94r00      [13] 4415 	ld	a,(#_c_enems + 1)
   17C5 8A            [ 4] 4416 	adc	a, d
   17C6 57            [ 4] 4417 	ld	d,a
   17C7 CB 21         [ 8] 4418 	sla	c
   17C9 CB 10         [ 8] 4419 	rl	b
   17CB CB 21         [ 8] 4420 	sla	c
   17CD CB 10         [ 8] 4421 	rl	b
   17CF CB 21         [ 8] 4422 	sla	c
   17D1 CB 10         [ 8] 4423 	rl	b
   17D3 7B            [ 4] 4424 	ld	a,e
   17D4 21r0Cr00      [10] 4425 	ld	hl,#_gp_gen
   17D7 81            [ 4] 4426 	add	a, c
   17D8 77            [ 7] 4427 	ld	(hl),a
   17D9 7A            [ 4] 4428 	ld	a,d
   17DA 88            [ 4] 4429 	adc	a, b
   17DB 23            [ 6] 4430 	inc	hl
   17DC 77            [ 7] 4431 	ld	(hl),a
                           4432 ;engine/enengine.h:62: en_offs = rdc = (n_pant << 1) + n_pant;
   17DD 3ArC0r01      [13] 4433 	ld	a,(#_n_pant + 0)
   17E0 87            [ 4] 4434 	add	a, a
   17E1 21rC0r01      [10] 4435 	ld	hl,#_n_pant
   17E4 86            [ 7] 4436 	add	a, (hl)
   17E5 32r1Ar00      [13] 4437 	ld	(#_rdc + 0),a
   17E8 32r2Ar00      [13] 4438 	ld	(#_en_offs + 0),a
                           4439 ;engine/enengine.h:65: for (gpit = 0; gpit < 3; gpit ++) {
   17EB 21r08r00      [10] 4440 	ld	hl,#_gpit + 0
   17EE 36 00         [10] 4441 	ld	(hl), #0x00
   17F0                    4442 00118$:
                           4443 ;engine/enengine.h:69: if (ep_dead [rdc]) {
   17F0 FD 21r4Br02   [14] 4444 	ld	iy,#_ep_dead
   17F4 ED 5Br1Ar00   [20] 4445 	ld	de,(_rdc)
   17F8 16 00         [ 7] 4446 	ld	d,#0x00
   17FA FD 19         [15] 4447 	add	iy, de
   17FC FD 7E 00      [19] 4448 	ld	a, 0 (iy)
   17FF B7            [ 4] 4449 	or	a, a
   1800 28 14         [12] 4450 	jr	Z,00115$
                           4451 ;engine/enengine.h:70: _en_t = 0;
   1802 21r32r00      [10] 4452 	ld	hl,#__en_t + 0
   1805 36 00         [10] 4453 	ld	(hl), #0x00
                           4454 ;engine/enengine.h:71: gp_gen += 4;
   1807 21r0Cr00      [10] 4455 	ld	hl,#_gp_gen
   180A 7E            [ 7] 4456 	ld	a,(hl)
   180B C6 04         [ 7] 4457 	add	a, #0x04
   180D 77            [ 7] 4458 	ld	(hl),a
   180E 23            [ 6] 4459 	inc	hl
   180F 7E            [ 7] 4460 	ld	a,(hl)
   1810 CE 00         [ 7] 4461 	adc	a, #0x00
   1812 77            [ 7] 4462 	ld	(hl),a
   1813 C3rBAr19      [10] 4463 	jp	00116$
   1816                    4464 00115$:
                           4465 ;engine/enengine.h:76: _en_t = *gp_gen ++;
   1816 2Ar0Cr00      [16] 4466 	ld	hl,(_gp_gen)
   1819 7E            [ 7] 4467 	ld	a,(hl)
   181A 32r32r00      [13] 4468 	ld	(#__en_t + 0),a
   181D 21r0Cr00      [10] 4469 	ld	hl, #_gp_gen+0
   1820 34            [11] 4470 	inc	(hl)
   1821 20 04         [12] 4471 	jr	NZ,00190$
   1823 21r0Dr00      [10] 4472 	ld	hl, #_gp_gen+1
   1826 34            [11] 4473 	inc	(hl)
   1827                    4474 00190$:
                           4475 ;engine/enengine.h:79: _en_state = 0;
   1827 21r3Er00      [10] 4476 	ld	hl,#__en_state + 0
   182A 36 00         [10] 4477 	ld	(hl), #0x00
                           4478 ;engine/enengine.h:82: rda = *gp_gen ++;
   182C 2Ar0Cr00      [16] 4479 	ld	hl,(_gp_gen)
   182F 7E            [ 7] 4480 	ld	a,(hl)
   1830 32r18r00      [13] 4481 	ld	(#_rda + 0),a
   1833 21r0Cr00      [10] 4482 	ld	hl, #_gp_gen+0
   1836 34            [11] 4483 	inc	(hl)
   1837 20 04         [12] 4484 	jr	NZ,00191$
   1839 21r0Dr00      [10] 4485 	ld	hl, #_gp_gen+1
   183C 34            [11] 4486 	inc	(hl)
   183D                    4487 00191$:
                           4488 ;engine/enengine.h:83: _en_y1 = rda & 0xf0;
   183D 3Ar18r00      [13] 4489 	ld	a,(#_rda + 0)
   1840 E6 F0         [ 7] 4490 	and	a, #0xF0
   1842 32r37r00      [13] 4491 	ld	(#__en_y1 + 0),a
                           4492 ;engine/enengine.h:84: _en_x1 = rda << 4;
   1845 3Ar18r00      [13] 4493 	ld	a,(#_rda + 0)
   1848 07            [ 4] 4494 	rlca
   1849 07            [ 4] 4495 	rlca
   184A 07            [ 4] 4496 	rlca
   184B 07            [ 4] 4497 	rlca
   184C E6 F0         [ 7] 4498 	and	a,#0xF0
   184E 32r36r00      [13] 4499 	ld	(#__en_x1 + 0),a
                           4500 ;engine/enengine.h:87: rda = *gp_gen ++;
   1851 2Ar0Cr00      [16] 4501 	ld	hl,(_gp_gen)
   1854 7E            [ 7] 4502 	ld	a,(hl)
   1855 32r18r00      [13] 4503 	ld	(#_rda + 0),a
   1858 21r0Cr00      [10] 4504 	ld	hl, #_gp_gen+0
   185B 34            [11] 4505 	inc	(hl)
   185C 20 04         [12] 4506 	jr	NZ,00192$
   185E 21r0Dr00      [10] 4507 	ld	hl, #_gp_gen+1
   1861 34            [11] 4508 	inc	(hl)
   1862                    4509 00192$:
                           4510 ;engine/enengine.h:88: _en_y2 = rda & 0xf0;
   1862 3Ar18r00      [13] 4511 	ld	a,(#_rda + 0)
   1865 E6 F0         [ 7] 4512 	and	a, #0xF0
   1867 32r39r00      [13] 4513 	ld	(#__en_y2 + 0),a
                           4514 ;engine/enengine.h:89: _en_x2 = rda << 4;
   186A 3Ar18r00      [13] 4515 	ld	a,(#_rda + 0)
   186D 07            [ 4] 4516 	rlca
   186E 07            [ 4] 4517 	rlca
   186F 07            [ 4] 4518 	rlca
   1870 07            [ 4] 4519 	rlca
   1871 E6 F0         [ 7] 4520 	and	a,#0xF0
   1873 32r38r00      [13] 4521 	ld	(#__en_x2 + 0),a
                           4522 ;engine/enengine.h:92: rda = *gp_gen ++;
   1876 2Ar0Cr00      [16] 4523 	ld	hl,(_gp_gen)
   1879 7E            [ 7] 4524 	ld	a,(hl)
   187A 32r18r00      [13] 4525 	ld	(#_rda + 0),a
   187D 21r0Cr00      [10] 4526 	ld	hl, #_gp_gen+0
   1880 34            [11] 4527 	inc	(hl)
   1881 20 04         [12] 4528 	jr	NZ,00193$
   1883 21r0Dr00      [10] 4529 	ld	hl, #_gp_gen+1
   1886 34            [11] 4530 	inc	(hl)
   1887                    4531 00193$:
                           4532 ;engine/enengine.h:95: rdd = rda & 0xf0; 	// Used for respawn speed!
   1887 3Ar18r00      [13] 4533 	ld	a,(#_rda + 0)
   188A E6 F0         [ 7] 4534 	and	a, #0xF0
   188C 32r1Br00      [13] 4535 	ld	(#_rdd + 0),a
                           4536 ;engine/enengine.h:96: rdm = rda & 0x0f; 	// Actual speed.
   188F 3Ar18r00      [13] 4537 	ld	a,(#_rda + 0)
   1892 E6 0F         [ 7] 4538 	and	a, #0x0F
   1894 32r1Cr00      [13] 4539 	ld	(#_rdm + 0),a
                           4540 ;engine/enengine.h:99: _en_x = _en_x1;
   1897 3Ar36r00      [13] 4541 	ld	a,(#__en_x1 + 0)
   189A 32r34r00      [13] 4542 	ld	(#__en_x + 0),a
                           4543 ;engine/enengine.h:100: _en_y = _en_y1;
   189D 3Ar37r00      [13] 4544 	ld	a,(#__en_y1 + 0)
   18A0 32r35r00      [13] 4545 	ld	(#__en_y + 0),a
                           4546 ;engine/enengine.h:102: switch (_en_t & 0x3f) {
   18A3 3Ar32r00      [13] 4547 	ld	a,(#__en_t + 0)
   18A6 E6 3F         [ 7] 4548 	and	a, #0x3F
   18A8 6F            [ 4] 4549 	ld	l,a
   18A9 3D            [ 4] 4550 	dec	a
   18AA 28 15         [12] 4551 	jr	Z,00104$
   18AC 7D            [ 4] 4552 	ld	a,l
   18AD FE 02         [ 7] 4553 	cp	a,#0x02
   18AF 28 10         [12] 4554 	jr	Z,00104$
   18B1 FE 03         [ 7] 4555 	cp	a,#0x03
   18B3 28 0C         [12] 4556 	jr	Z,00104$
   18B5 FE 04         [ 7] 4557 	cp	a,#0x04
   18B7 28 08         [12] 4558 	jr	Z,00104$
   18B9 D6 06         [ 7] 4559 	sub	a, #0x06
   18BB CAr8Br19      [10] 4560 	jp	Z,00112$
   18BE C3r9Er19      [10] 4561 	jp	00113$
                           4562 ;engine/enengine.h:106: case 4:
   18C1                    4563 00104$:
                           4564 ;engine/enengine.h:109: _en_ct = 0;			
   18C1 21r3Cr00      [10] 4565 	ld	hl,#__en_ct + 0
   18C4 36 00         [10] 4566 	ld	(hl), #0x00
                           4567 ;engine/enengine.h:110: _en_s = (_en_t - 1) << 3;
   18C6 3Ar32r00      [13] 4568 	ld	a,(#__en_t + 0)
   18C9 C6 FF         [ 7] 4569 	add	a,#0xFF
   18CB 07            [ 4] 4570 	rlca
   18CC 07            [ 4] 4571 	rlca
   18CD 07            [ 4] 4572 	rlca
   18CE E6 F8         [ 7] 4573 	and	a,#0xF8
   18D0 32r33r00      [13] 4574 	ld	(#__en_s + 0),a
                           4575 ;engine/enengine.h:119: _en_mx = ADD_SIGN2 (_en_x2, _en_x1, rdm);
   18D3 21r1Cr00      [10] 4576 	ld	hl,#_rdm + 0
   18D6 56            [ 7] 4577 	ld	d, (hl)
   18D7 AF            [ 4] 4578 	xor	a, a
   18D8 FD 21r1Cr00   [14] 4579 	ld	iy,#_rdm
   18DC FD 96 00      [19] 4580 	sub	a, 0 (iy)
   18DF 5F            [ 4] 4581 	ld	e,a
   18E0 3Ar38r00      [13] 4582 	ld	a,(#__en_x2 + 0)
   18E3 FD 21r36r00   [14] 4583 	ld	iy,#__en_x1
   18E7 FD 96 00      [19] 4584 	sub	a, 0 (iy)
   18EA 20 04         [12] 4585 	jr	NZ,00122$
   18EC 3E 00         [ 7] 4586 	ld	a,#0x00
   18EE 18 10         [12] 4587 	jr	00123$
   18F0                    4588 00122$:
   18F0 3Ar36r00      [13] 4589 	ld	a,(#__en_x1)
   18F3 FD 21r38r00   [14] 4590 	ld	iy,#__en_x2
   18F7 FD 96 00      [19] 4591 	sub	a, 0 (iy)
   18FA 30 03         [12] 4592 	jr	NC,00124$
   18FC 7A            [ 4] 4593 	ld	a,d
   18FD 18 01         [12] 4594 	jr	00125$
   18FF                    4595 00124$:
   18FF 7B            [ 4] 4596 	ld	a,e
   1900                    4597 00125$:
   1900                    4598 00123$:
   1900 32r3Ar00      [13] 4599 	ld	(#__en_mx + 0),a
                           4600 ;engine/enengine.h:120: _en_my = ADD_SIGN2 (_en_y2, _en_y1, rdm);
   1903 3Ar39r00      [13] 4601 	ld	a,(#__en_y2 + 0)
   1906 FD 21r37r00   [14] 4602 	ld	iy,#__en_y1
   190A FD 96 00      [19] 4603 	sub	a, 0 (iy)
   190D 20 04         [12] 4604 	jr	NZ,00126$
   190F 1E 00         [ 7] 4605 	ld	e,#0x00
   1911 18 0D         [12] 4606 	jr	00127$
   1913                    4607 00126$:
   1913 3Ar37r00      [13] 4608 	ld	a,(#__en_y1)
   1916 FD 21r39r00   [14] 4609 	ld	iy,#__en_y2
   191A FD 96 00      [19] 4610 	sub	a, 0 (iy)
   191D 30 01         [12] 4611 	jr	NC,00128$
   191F 5A            [ 4] 4612 	ld	e,d
   1920                    4613 00128$:
   1920                    4614 00127$:
   1920 21r3Br00      [10] 4615 	ld	hl,#__en_my + 0
   1923 73            [ 7] 4616 	ld	(hl), e
                           4617 ;engine/enengine.h:125: en_status [gpit] = 1; 
   1924 3Er29         [ 7] 4618 	ld	a,#<(_en_status)
   1926 21r08r00      [10] 4619 	ld	hl,#_gpit
   1929 86            [ 7] 4620 	add	a, (hl)
   192A 5F            [ 4] 4621 	ld	e,a
   192B 3Es02         [ 7] 4622 	ld	a,#>(_en_status)
   192D CE 00         [ 7] 4623 	adc	a, #0x00
   192F 57            [ 4] 4624 	ld	d,a
                           4625 ;engine/enengine.h:124: if (rdm == 1) {
   1930 3Ar1Cr00      [13] 4626 	ld	a,(#_rdm + 0)
   1933 3D            [ 4] 4627 	dec	a
   1934 20 05         [12] 4628 	jr	NZ,00106$
                           4629 ;engine/enengine.h:125: en_status [gpit] = 1; 
   1936 3E 01         [ 7] 4630 	ld	a,#0x01
   1938 12            [ 7] 4631 	ld	(de),a
   1939 18 12         [12] 4632 	jr	00107$
   193B                    4633 00106$:
                           4634 ;engine/enengine.h:127: en_status [gpit] = 0;
   193B AF            [ 4] 4635 	xor	a, a
   193C 12            [ 7] 4636 	ld	(de),a
                           4637 ;engine/enengine.h:128: _en_mx >>= 1;
   193D 3Ar3Ar00      [13] 4638 	ld	a,(#__en_mx + 0)
   1940 CB 2F         [ 8] 4639 	sra	a
   1942 32r3Ar00      [13] 4640 	ld	(#__en_mx + 0),a
                           4641 ;engine/enengine.h:129: _en_my >>= 1;						
   1945 3Ar3Br00      [13] 4642 	ld	a,(#__en_my + 0)
   1948 CB 2F         [ 8] 4643 	sra	a
   194A 32r3Br00      [13] 4644 	ld	(#__en_my + 0),a
   194D                    4645 00107$:
                           4646 ;engine/enengine.h:133: if (_en_x1 > _en_x2) { rda = _en_x1; _en_x1 = _en_x2; _en_x2 = rda; }
   194D 3Ar38r00      [13] 4647 	ld	a,(#__en_x2)
   1950 FD 21r36r00   [14] 4648 	ld	iy,#__en_x1
   1954 FD 96 00      [19] 4649 	sub	a, 0 (iy)
   1957 30 12         [12] 4650 	jr	NC,00109$
   1959 3Ar36r00      [13] 4651 	ld	a,(#__en_x1 + 0)
   195C 32r18r00      [13] 4652 	ld	(#_rda + 0),a
   195F 3Ar38r00      [13] 4653 	ld	a,(#__en_x2 + 0)
   1962 32r36r00      [13] 4654 	ld	(#__en_x1 + 0),a
   1965 3Ar18r00      [13] 4655 	ld	a,(#_rda + 0)
   1968 32r38r00      [13] 4656 	ld	(#__en_x2 + 0),a
   196B                    4657 00109$:
                           4658 ;engine/enengine.h:134: if (_en_y1 > _en_y2) { rda = _en_y1; _en_y1 = _en_y2; _en_y2 = rda; }
   196B 3Ar39r00      [13] 4659 	ld	a,(#__en_y2)
   196E FD 21r37r00   [14] 4660 	ld	iy,#__en_y1
   1972 FD 96 00      [19] 4661 	sub	a, 0 (iy)
   1975 30 27         [12] 4662 	jr	NC,00113$
   1977 3Ar37r00      [13] 4663 	ld	a,(#__en_y1 + 0)
   197A 32r18r00      [13] 4664 	ld	(#_rda + 0),a
   197D 3Ar39r00      [13] 4665 	ld	a,(#__en_y2 + 0)
   1980 32r37r00      [13] 4666 	ld	(#__en_y1 + 0),a
   1983 3Ar18r00      [13] 4667 	ld	a,(#_rda + 0)
   1986 32r39r00      [13] 4668 	ld	(#__en_y2 + 0),a
                           4669 ;engine/enengine.h:144: break;
   1989 18 13         [12] 4670 	jr	00113$
                           4671 ;engine/enengine.h:161: case 6:
   198B                    4672 00112$:
                           4673 ;engine/enengine.h:163: enems_init_fp ();
   198B CDr41r17      [17] 4674 	call	_enems_init_fp
                           4675 ;engine/enengine.h:164: _enf_vx = _enf_vy = 0;
   198E 21 00 00      [10] 4676 	ld	hl,#0x0000
   1991 22r45r00      [16] 4677 	ld	(__enf_vy),hl
   1994 2E 00         [ 7] 4678 	ld	l, #0x00
   1996 22r43r00      [16] 4679 	ld	(__enf_vx),hl
                           4680 ;engine/enengine.h:169: _en_s = FANTY_BASE_SPRID;
   1999 21r33r00      [10] 4681 	ld	hl,#__en_s + 0
   199C 36 20         [10] 4682 	ld	(hl), #0x20
                           4683 ;engine/enengine.h:274: }
   199E                    4684 00113$:
                           4685 ;engine/enengine.h:284: en_cttouched [gpit] = 0;
   199E 3Er23         [ 7] 4686 	ld	a,#<(_en_cttouched)
   19A0 21r08r00      [10] 4687 	ld	hl,#_gpit
   19A3 86            [ 7] 4688 	add	a, (hl)
   19A4 5F            [ 4] 4689 	ld	e,a
   19A5 3Es02         [ 7] 4690 	ld	a,#>(_en_cttouched)
   19A7 CE 00         [ 7] 4691 	adc	a, #0x00
   19A9 57            [ 4] 4692 	ld	d,a
   19AA AF            [ 4] 4693 	xor	a, a
   19AB 12            [ 7] 4694 	ld	(de),a
                           4695 ;engine/enengine.h:285: en_flags [gpit] = 0;
   19AC 3Er20         [ 7] 4696 	ld	a,#<(_en_flags)
   19AE 21r08r00      [10] 4697 	ld	hl,#_gpit
   19B1 86            [ 7] 4698 	add	a, (hl)
   19B2 5F            [ 4] 4699 	ld	e,a
   19B3 3Es02         [ 7] 4700 	ld	a,#>(_en_flags)
   19B5 CE 00         [ 7] 4701 	adc	a, #0x00
   19B7 57            [ 4] 4702 	ld	d,a
   19B8 AF            [ 4] 4703 	xor	a, a
   19B9 12            [ 7] 4704 	ld	(de),a
   19BA                    4705 00116$:
                           4706 ;engine/enengine.h:288: ++ rdc;
   19BA 21r1Ar00      [10] 4707 	ld	hl, #_rdc+0
   19BD 34            [11] 4708 	inc	(hl)
                           4709 ;engine/enengine.h:291: enems_update_unsigned_char_arrays ();
   19BE CDr32r16      [17] 4710 	call	_enems_update_unsigned_char_arrays
                           4711 ;engine/enengine.h:65: for (gpit = 0; gpit < 3; gpit ++) {
   19C1 21r08r00      [10] 4712 	ld	hl, #_gpit+0
   19C4 34            [11] 4713 	inc	(hl)
   19C5 3Ar08r00      [13] 4714 	ld	a,(#_gpit + 0)
   19C8 D6 03         [ 7] 4715 	sub	a, #0x03
   19CA DArF0r17      [10] 4716 	jp	C,00118$
   19CD C9            [10] 4717 	ret
                           4718 ;engine/enengine.h:296: void enems_kill () {
                           4719 ;	---------------------------------
                           4720 ; Function enems_kill
                           4721 ; ---------------------------------
   19CE                    4722 _enems_kill::
                           4723 ;engine/enengine.h:297: en_flags [gpit] |= EN_STATE_DEAD;
   19CE 11r20r02      [10] 4724 	ld	de,#_en_flags+0
   19D1 2Ar08r00      [16] 4725 	ld	hl,(_gpit)
   19D4 26 00         [ 7] 4726 	ld	h,#0x00
   19D6 19            [11] 4727 	add	hl,de
   19D7 CB C6         [15] 4728 	set	0, (hl)
   19D9 7E            [ 7] 4729 	ld	a, (hl)
                           4730 ;engine/enengine.h:303: ep_dead [en_offs + gpit] = 1;
   19DA 21r08r00      [10] 4731 	ld	hl,#_gpit
   19DD 3Ar2Ar00      [13] 4732 	ld	a,(#_en_offs + 0)
   19E0 86            [ 7] 4733 	add	a, (hl)
   19E1 5F            [ 4] 4734 	ld	e,a
   19E2 21r4Br02      [10] 4735 	ld	hl,#_ep_dead
   19E5 16 00         [ 7] 4736 	ld	d,#0x00
   19E7 19            [11] 4737 	add	hl, de
   19E8 36 01         [10] 4738 	ld	(hl),#0x01
                           4739 ;engine/enengine.h:314: ++ pkilled;
   19EA 21r73r00      [10] 4740 	ld	hl, #_pkilled+0
   19ED 34            [11] 4741 	inc	(hl)
   19EE C9            [10] 4742 	ret
                           4743 ;engine/enengine.h:321: void enems_hit (void) {
                           4744 ;	---------------------------------
                           4745 ; Function enems_hit
                           4746 ; ---------------------------------
   19EF                    4747 _enems_hit::
                           4748 ;engine/enengine.h:322: _en_facing = ((_en_x < prx) ? 0 : 4);
   19EF 21r52r00      [10] 4749 	ld	hl,#_prx
   19F2 3Ar34r00      [13] 4750 	ld	a,(#__en_x + 0)
   19F5 96            [ 7] 4751 	sub	a, (hl)
   19F6 30 04         [12] 4752 	jr	NC,00103$
   19F8 3E 00         [ 7] 4753 	ld	a,#0x00
   19FA 18 02         [12] 4754 	jr	00104$
   19FC                    4755 00103$:
   19FC 3E 04         [ 7] 4756 	ld	a,#0x04
   19FE                    4757 00104$:
   19FE 32r3Dr00      [13] 4758 	ld	(#__en_facing + 0),a
                           4759 ;engine/enengine.h:323: en_cttouched [gpit] = ENEMS_TOUCHED_FRAMES;
   1A01 11r23r02      [10] 4760 	ld	de,#_en_cttouched+0
   1A04 2Ar08r00      [16] 4761 	ld	hl,(_gpit)
   1A07 26 00         [ 7] 4762 	ld	h,#0x00
   1A09 19            [11] 4763 	add	hl,de
   1A0A 36 08         [10] 4764 	ld	(hl),#0x08
                           4765 ;engine/enengine.h:339: enems_kill ();
   1A0C C3rCEr19      [10] 4766 	jp  _enems_kill
                           4767 ;engine/enengine.h:345: void enems_move (void) {
                           4768 ;	---------------------------------
                           4769 ; Function enems_move
                           4770 ; ---------------------------------
   1A0F                    4771 _enems_move::
   1A0F DD E5         [15] 4772 	push	ix
   1A11 DD 21 00 00   [14] 4773 	ld	ix,#0
   1A15 DD 39         [15] 4774 	add	ix,sp
   1A17 21 F7 FF      [10] 4775 	ld	hl,#-9
   1A1A 39            [11] 4776 	add	hl,sp
   1A1B F9            [ 6] 4777 	ld	sp,hl
                           4778 ;engine/enengine.h:347: pgotten = pgtmx = pgtmy = 0;
   1A1C 21 00 00      [10] 4779 	ld	hl,#0x0000
   1A1F 22r65r00      [16] 4780 	ld	(_pgtmy),hl
   1A22 2E 00         [ 7] 4781 	ld	l, #0x00
   1A24 22r63r00      [16] 4782 	ld	(_pgtmx),hl
   1A27 21r5Dr00      [10] 4783 	ld	hl,#_pgotten + 0
   1A2A 36 00         [10] 4784 	ld	(hl), #0x00
                           4785 ;engine/enengine.h:351: touched = 0;
   1A2C 21r2Fr00      [10] 4786 	ld	hl,#_touched + 0
   1A2F 36 00         [10] 4787 	ld	(hl), #0x00
                           4788 ;engine/enengine.h:352: ++ en_initial; if (en_initial >= 3) en_initial = 0;
   1A31 21r29r00      [10] 4789 	ld	hl, #_en_initial+0
   1A34 34            [11] 4790 	inc	(hl)
   1A35 3Ar29r00      [13] 4791 	ld	a,(#_en_initial + 0)
   1A38 D6 03         [ 7] 4792 	sub	a, #0x03
   1A3A 38 05         [12] 4793 	jr	C,00102$
   1A3C 21r29r00      [10] 4794 	ld	hl,#_en_initial + 0
   1A3F 36 00         [10] 4795 	ld	(hl), #0x00
   1A41                    4796 00102$:
                           4797 ;engine/enengine.h:353: gpit = en_initial;
   1A41 3Ar29r00      [13] 4798 	ld	a,(#_en_initial + 0)
   1A44 32r08r00      [13] 4799 	ld	(#_gpit + 0),a
                           4800 ;engine/enengine.h:354: gpjt = 3; while (gpjt --) {
   1A47 21r09r00      [10] 4801 	ld	hl,#_gpjt + 0
   1A4A 36 03         [10] 4802 	ld	(hl), #0x03
   1A4C                    4803 00233$:
   1A4C 21r09r00      [10] 4804 	ld	hl,#_gpjt + 0
   1A4F 56            [ 7] 4805 	ld	d, (hl)
   1A50 21r09r00      [10] 4806 	ld	hl, #_gpjt+0
   1A53 35            [11] 4807 	dec	(hl)
   1A54 7A            [ 4] 4808 	ld	a,d
   1A55 B7            [ 4] 4809 	or	a, a
   1A56 CAr0Er27      [10] 4810 	jp	Z,00237$
                           4811 ;engine/enengine.h:355: gpit += 2; if (gpit > 2) gpit -=3;
   1A59 21r08r00      [10] 4812 	ld	hl, #_gpit+0
   1A5C 34            [11] 4813 	inc	(hl)
   1A5D 21r08r00      [10] 4814 	ld	hl, #_gpit+0
   1A60 34            [11] 4815 	inc	(hl)
   1A61 3E 02         [ 7] 4816 	ld	a,#0x02
   1A63 FD 21r08r00   [14] 4817 	ld	iy,#_gpit
   1A67 FD 96 00      [19] 4818 	sub	a, 0 (iy)
   1A6A 30 07         [12] 4819 	jr	NC,00104$
   1A6C 21r08r00      [10] 4820 	ld	hl,#_gpit
   1A6F 7E            [ 7] 4821 	ld	a,(hl)
   1A70 C6 FD         [ 7] 4822 	add	a,#0xFD
   1A72 77            [ 7] 4823 	ld	(hl),a
   1A73                    4824 00104$:
                           4825 ;engine/enengine.h:358: _en_t = en_t [gpit];
   1A73 3ErFC         [ 7] 4826 	ld	a,#<(_en_t)
   1A75 21r08r00      [10] 4827 	ld	hl,#_gpit
   1A78 86            [ 7] 4828 	add	a, (hl)
   1A79 5F            [ 4] 4829 	ld	e,a
   1A7A 3Es01         [ 7] 4830 	ld	a,#>(_en_t)
   1A7C CE 00         [ 7] 4831 	adc	a, #0x00
   1A7E 57            [ 4] 4832 	ld	d,a
   1A7F 1A            [ 7] 4833 	ld	a,(de)
   1A80 32r32r00      [13] 4834 	ld	(#__en_t + 0),a
                           4835 ;engine/enengine.h:359: _en_s = en_s [gpit];
   1A83 3Er17         [ 7] 4836 	ld	a,#<(_en_s)
   1A85 21r08r00      [10] 4837 	ld	hl,#_gpit
   1A88 86            [ 7] 4838 	add	a, (hl)
   1A89 5F            [ 4] 4839 	ld	e,a
   1A8A 3Es02         [ 7] 4840 	ld	a,#>(_en_s)
   1A8C CE 00         [ 7] 4841 	adc	a, #0x00
   1A8E 57            [ 4] 4842 	ld	d,a
   1A8F 1A            [ 7] 4843 	ld	a,(de)
   1A90 32r33r00      [13] 4844 	ld	(#__en_s + 0),a
                           4845 ;engine/enengine.h:360: _en_x = en_x [gpit]; _en_y = en_y [gpit];
   1A93 3ErFF         [ 7] 4846 	ld	a,#<(_en_x)
   1A95 21r08r00      [10] 4847 	ld	hl,#_gpit
   1A98 86            [ 7] 4848 	add	a, (hl)
   1A99 5F            [ 4] 4849 	ld	e,a
   1A9A 3Es01         [ 7] 4850 	ld	a,#>(_en_x)
   1A9C CE 00         [ 7] 4851 	adc	a, #0x00
   1A9E 57            [ 4] 4852 	ld	d,a
   1A9F 1A            [ 7] 4853 	ld	a,(de)
   1AA0 32r34r00      [13] 4854 	ld	(#__en_x + 0),a
   1AA3 3Er02         [ 7] 4855 	ld	a,#<(_en_y)
   1AA5 21r08r00      [10] 4856 	ld	hl,#_gpit
   1AA8 86            [ 7] 4857 	add	a, (hl)
   1AA9 5F            [ 4] 4858 	ld	e,a
   1AAA 3Es02         [ 7] 4859 	ld	a,#>(_en_y)
   1AAC CE 00         [ 7] 4860 	adc	a, #0x00
   1AAE 57            [ 4] 4861 	ld	d,a
   1AAF 1A            [ 7] 4862 	ld	a,(de)
   1AB0 32r35r00      [13] 4863 	ld	(#__en_y + 0),a
                           4864 ;engine/enengine.h:361: _en_x1 = en_x1 [gpit]; _en_y1 = en_y1 [gpit];
   1AB3 3Er05         [ 7] 4865 	ld	a,#<(_en_x1)
   1AB5 21r08r00      [10] 4866 	ld	hl,#_gpit
   1AB8 86            [ 7] 4867 	add	a, (hl)
   1AB9 5F            [ 4] 4868 	ld	e,a
   1ABA 3Es02         [ 7] 4869 	ld	a,#>(_en_x1)
   1ABC CE 00         [ 7] 4870 	adc	a, #0x00
   1ABE 57            [ 4] 4871 	ld	d,a
   1ABF 1A            [ 7] 4872 	ld	a,(de)
   1AC0 32r36r00      [13] 4873 	ld	(#__en_x1 + 0),a
   1AC3 3Er08         [ 7] 4874 	ld	a,#<(_en_y1)
   1AC5 21r08r00      [10] 4875 	ld	hl,#_gpit
   1AC8 86            [ 7] 4876 	add	a, (hl)
   1AC9 5F            [ 4] 4877 	ld	e,a
   1ACA 3Es02         [ 7] 4878 	ld	a,#>(_en_y1)
   1ACC CE 00         [ 7] 4879 	adc	a, #0x00
   1ACE 57            [ 4] 4880 	ld	d,a
   1ACF 1A            [ 7] 4881 	ld	a,(de)
   1AD0 32r37r00      [13] 4882 	ld	(#__en_y1 + 0),a
                           4883 ;engine/enengine.h:362: _en_x2 = en_x2 [gpit]; _en_y2 = en_y2 [gpit];
   1AD3 3Er0B         [ 7] 4884 	ld	a,#<(_en_x2)
   1AD5 21r08r00      [10] 4885 	ld	hl,#_gpit
   1AD8 86            [ 7] 4886 	add	a, (hl)
   1AD9 5F            [ 4] 4887 	ld	e,a
   1ADA 3Es02         [ 7] 4888 	ld	a,#>(_en_x2)
   1ADC CE 00         [ 7] 4889 	adc	a, #0x00
   1ADE 57            [ 4] 4890 	ld	d,a
   1ADF 1A            [ 7] 4891 	ld	a,(de)
   1AE0 32r38r00      [13] 4892 	ld	(#__en_x2 + 0),a
   1AE3 3Er0E         [ 7] 4893 	ld	a,#<(_en_y2)
   1AE5 21r08r00      [10] 4894 	ld	hl,#_gpit
   1AE8 86            [ 7] 4895 	add	a, (hl)
   1AE9 5F            [ 4] 4896 	ld	e,a
   1AEA 3Es02         [ 7] 4897 	ld	a,#>(_en_y2)
   1AEC CE 00         [ 7] 4898 	adc	a, #0x00
   1AEE 57            [ 4] 4899 	ld	d,a
   1AEF 1A            [ 7] 4900 	ld	a,(de)
   1AF0 32r39r00      [13] 4901 	ld	(#__en_y2 + 0),a
                           4902 ;engine/enengine.h:363: _en_mx = en_mx [gpit]; _en_my = en_my [gpit];
   1AF3 3Er11         [ 7] 4903 	ld	a,#<(_en_mx)
   1AF5 21r08r00      [10] 4904 	ld	hl,#_gpit
   1AF8 86            [ 7] 4905 	add	a, (hl)
   1AF9 5F            [ 4] 4906 	ld	e,a
   1AFA 3Es02         [ 7] 4907 	ld	a,#>(_en_mx)
   1AFC CE 00         [ 7] 4908 	adc	a, #0x00
   1AFE 57            [ 4] 4909 	ld	d,a
   1AFF 1A            [ 7] 4910 	ld	a,(de)
   1B00 32r3Ar00      [13] 4911 	ld	(#__en_mx + 0),a
   1B03 3Er14         [ 7] 4912 	ld	a,#<(_en_my)
   1B05 21r08r00      [10] 4913 	ld	hl,#_gpit
   1B08 86            [ 7] 4914 	add	a, (hl)
   1B09 5F            [ 4] 4915 	ld	e,a
   1B0A 3Es02         [ 7] 4916 	ld	a,#>(_en_my)
   1B0C CE 00         [ 7] 4917 	adc	a, #0x00
   1B0E 57            [ 4] 4918 	ld	d,a
   1B0F 1A            [ 7] 4919 	ld	a,(de)
   1B10 32r3Br00      [13] 4920 	ld	(#__en_my + 0),a
                           4921 ;engine/enengine.h:364: _en_ct = en_ct [gpit];
   1B13 3Er2C         [ 7] 4922 	ld	a,#<(_en_ct)
   1B15 21r08r00      [10] 4923 	ld	hl,#_gpit
   1B18 86            [ 7] 4924 	add	a, (hl)
   1B19 5F            [ 4] 4925 	ld	e,a
   1B1A 3Es02         [ 7] 4926 	ld	a,#>(_en_ct)
   1B1C CE 00         [ 7] 4927 	adc	a, #0x00
   1B1E 57            [ 4] 4928 	ld	d,a
   1B1F 1A            [ 7] 4929 	ld	a,(de)
   1B20 32r3Cr00      [13] 4930 	ld	(#__en_ct + 0),a
                           4931 ;engine/enengine.h:365: _en_facing = en_facing [gpit];
   1B23 3Er1A         [ 7] 4932 	ld	a,#<(_en_facing)
   1B25 21r08r00      [10] 4933 	ld	hl,#_gpit
   1B28 86            [ 7] 4934 	add	a, (hl)
   1B29 5F            [ 4] 4935 	ld	e,a
   1B2A 3Es02         [ 7] 4936 	ld	a,#>(_en_facing)
   1B2C CE 00         [ 7] 4937 	adc	a, #0x00
   1B2E 57            [ 4] 4938 	ld	d,a
   1B2F 1A            [ 7] 4939 	ld	a,(de)
   1B30 32r3Dr00      [13] 4940 	ld	(#__en_facing + 0),a
                           4941 ;engine/enengine.h:366: _en_state = en_state [gpit];
   1B33 3Er1D         [ 7] 4942 	ld	a,#<(_en_state)
   1B35 21r08r00      [10] 4943 	ld	hl,#_gpit
   1B38 86            [ 7] 4944 	add	a, (hl)
   1B39 5F            [ 4] 4945 	ld	e,a
   1B3A 3Es02         [ 7] 4946 	ld	a,#>(_en_state)
   1B3C CE 00         [ 7] 4947 	adc	a, #0x00
   1B3E 57            [ 4] 4948 	ld	d,a
   1B3F 1A            [ 7] 4949 	ld	a,(de)
   1B40 32r3Er00      [13] 4950 	ld	(#__en_state + 0),a
                           4951 ;engine/enengine.h:369: _enf_x = enf_x [gpit]; _enf_vx = enf_vx [gpit];
   1B43 FD 21r08r00   [14] 4952 	ld	iy,#_gpit
   1B47 FD 6E 00      [19] 4953 	ld	l,0 (iy)
   1B4A 26 00         [ 7] 4954 	ld	h,#0x00
   1B4C 29            [11] 4955 	add	hl, hl
   1B4D EB            [ 4] 4956 	ex	de,hl
   1B4E 21r30r02      [10] 4957 	ld	hl,#_enf_x
   1B51 19            [11] 4958 	add	hl,de
   1B52 7E            [ 7] 4959 	ld	a,(hl)
   1B53 FD 21r3Fr00   [14] 4960 	ld	iy,#__enf_x
   1B57 FD 77 00      [19] 4961 	ld	0 (iy),a
   1B5A 23            [ 6] 4962 	inc	hl
   1B5B 7E            [ 7] 4963 	ld	a,(hl)
   1B5C 32r40r00      [13] 4964 	ld	(#__enf_x + 1),a
   1B5F 21r36r02      [10] 4965 	ld	hl,#_enf_vx
   1B62 19            [11] 4966 	add	hl,de
   1B63 7E            [ 7] 4967 	ld	a,(hl)
   1B64 FD 21r43r00   [14] 4968 	ld	iy,#__enf_vx
   1B68 FD 77 00      [19] 4969 	ld	0 (iy),a
   1B6B 23            [ 6] 4970 	inc	hl
   1B6C 7E            [ 7] 4971 	ld	a,(hl)
   1B6D 32r44r00      [13] 4972 	ld	(#__enf_vx + 1),a
                           4973 ;engine/enengine.h:370: _enf_y = enf_y [gpit]; _enf_vy = enf_vy [gpit];
   1B70 21r3Cr02      [10] 4974 	ld	hl,#_enf_y
   1B73 19            [11] 4975 	add	hl,de
   1B74 7E            [ 7] 4976 	ld	a,(hl)
   1B75 FD 21r41r00   [14] 4977 	ld	iy,#__enf_y
   1B79 FD 77 00      [19] 4978 	ld	0 (iy),a
   1B7C 23            [ 6] 4979 	inc	hl
   1B7D 7E            [ 7] 4980 	ld	a,(hl)
   1B7E 32r42r00      [13] 4981 	ld	(#__enf_y + 1),a
   1B81 21r42r02      [10] 4982 	ld	hl,#_enf_vy
   1B84 19            [11] 4983 	add	hl,de
   1B85 7E            [ 7] 4984 	ld	a,(hl)
   1B86 FD 21r45r00   [14] 4985 	ld	iy,#__enf_vy
   1B8A FD 77 00      [19] 4986 	ld	0 (iy),a
   1B8D 23            [ 6] 4987 	inc	hl
   1B8E 7E            [ 7] 4988 	ld	a,(hl)
   1B8F 32r46r00      [13] 4989 	ld	(#__enf_vy + 1),a
                           4990 ;engine/enengine.h:373: if (_en_t == 0) continue;
   1B92 3Ar32r00      [13] 4991 	ld	a,(#__en_t + 0)
   1B95 B7            [ 4] 4992 	or	a, a
   1B96 CAr4Cr1A      [10] 4993 	jp	Z,00233$
                           4994 ;engine/enengine.h:374: en_is_alive = !(en_flags [gpit] & EN_STATE_DEAD);
   1B99 FD 21r20r02   [14] 4995 	ld	iy,#_en_flags
   1B9D ED 5Br08r00   [20] 4996 	ld	de,(_gpit)
   1BA1 16 00         [ 7] 4997 	ld	d,#0x00
   1BA3 FD 19         [15] 4998 	add	iy, de
   1BA5 FD 7E 00      [19] 4999 	ld	a, 0 (iy)
   1BA8 E6 01         [ 7] 5000 	and	a,#0x01
   1BAA EE 01         [ 7] 5001 	xor	a,#0x01
   1BAC 32r30r00      [13] 5002 	ld	(#_en_is_alive + 0),a
                           5003 ;engine/enengine.h:378: en_spr = 0xff;
   1BAF 21r2Er00      [10] 5004 	ld	hl,#_en_spr + 0
   1BB2 36 FF         [10] 5005 	ld	(hl), #0xFF
                           5006 ;engine/enengine.h:381: en_spr_x_mod = 0;
   1BB4 21r2Fr02      [10] 5007 	ld	hl,#_en_spr_x_mod + 0
   1BB7 36 00         [10] 5008 	ld	(hl), #0x00
                           5009 ;engine/enengine.h:384: if (en_cttouched [gpit]) {
   1BB9 3Er23         [ 7] 5010 	ld	a,#<(_en_cttouched)
   1BBB 21r08r00      [10] 5011 	ld	hl,#_gpit
   1BBE 86            [ 7] 5012 	add	a, (hl)
   1BBF DD 77 FE      [19] 5013 	ld	-2 (ix),a
   1BC2 3Es02         [ 7] 5014 	ld	a,#>(_en_cttouched)
   1BC4 CE 00         [ 7] 5015 	adc	a, #0x00
   1BC6 DD 77 FF      [19] 5016 	ld	-1 (ix),a
   1BC9 DD 6E FE      [19] 5017 	ld	l,-2 (ix)
   1BCC DD 66 FF      [19] 5018 	ld	h,-1 (ix)
   1BCF 7E            [ 7] 5019 	ld	a,(hl)
   1BD0 DD 77 F7      [19] 5020 	ld	-9 (ix), a
   1BD3 B7            [ 4] 5021 	or	a, a
   1BD4 CAr62r1C      [10] 5022 	jp	Z,00228$
                           5023 ;engine/enengine.h:385: -- en_cttouched [gpit];
   1BD7 DD 56 F7      [19] 5024 	ld	d,-9 (ix)
   1BDA 15            [ 4] 5025 	dec	d
   1BDB DD 6E FE      [19] 5026 	ld	l,-2 (ix)
   1BDE DD 66 FF      [19] 5027 	ld	h,-1 (ix)
   1BE1 72            [ 7] 5028 	ld	(hl),d
                           5029 ;engine/enengine.h:401: rda = frame_counter & 0xf;
   1BE2 3ArC3r01      [13] 5030 	ld	a,(#_frame_counter + 0)
   1BE5 E6 0F         [ 7] 5031 	and	a, #0x0F
   1BE7 32r18r00      [13] 5032 	ld	(#_rda + 0),a
                           5033 ;engine/enengine.h:405: spr_enems [ENEMS_EXPLODING_CELL]
   1BEA 2Ar88r00      [16] 5034 	ld	hl,(_spr_enems)
   1BED DD 75 FE      [19] 5035 	ld	-2 (ix),l
   1BF0 DD 74 FF      [19] 5036 	ld	-1 (ix),h
   1BF3 DD 6E FE      [19] 5037 	ld	l,-2 (ix)
   1BF6 DD 66 FF      [19] 5038 	ld	h,-1 (ix)
   1BF9 11 50 00      [10] 5039 	ld	de, #0x0050
   1BFC 19            [11] 5040 	add	hl, de
   1BFD 7E            [ 7] 5041 	ld	a,(hl)
   1BFE DD 77 FE      [19] 5042 	ld	-2 (ix),a
   1C01 23            [ 6] 5043 	inc	hl
   1C02 7E            [ 7] 5044 	ld	a,(hl)
   1C03 DD 77 FF      [19] 5045 	ld	-1 (ix),a
                           5046 ;engine/enengine.h:404: _en_y + jitter [15 - rda] + SPRITE_ADJUST, 
   1C06 21r18r00      [10] 5047 	ld	hl,#_rda
   1C09 3E 0F         [ 7] 5048 	ld	a,#0x0F
   1C0B 96            [ 7] 5049 	sub	a, (hl)
   1C0C C6r37         [ 7] 5050 	add	a,#<(_jitter)
   1C0E DD 77 FC      [19] 5051 	ld	-4 (ix),a
   1C11 3Es00         [ 7] 5052 	ld	a,#>(_jitter)
   1C13 CE 00         [ 7] 5053 	adc	a, #0x00
   1C15 DD 77 FD      [19] 5054 	ld	-3 (ix),a
   1C18 DD 6E FC      [19] 5055 	ld	l,-4 (ix)
   1C1B DD 66 FD      [19] 5056 	ld	h,-3 (ix)
   1C1E 7E            [ 7] 5057 	ld	a,(hl)
   1C1F DD 77 FC      [19] 5058 	ld	-4 (ix),a
   1C22 3Ar35r00      [13] 5059 	ld	a,(#__en_y + 0)
   1C25 DD 86 FC      [19] 5060 	add	a, -4 (ix)
   1C28 DD 77 FC      [19] 5061 	ld	-4 (ix), a
   1C2B C6 F8         [ 7] 5062 	add	a, #0xF8
   1C2D DD 77 FC      [19] 5063 	ld	-4 (ix),a
                           5064 ;engine/enengine.h:403: _en_x + jitter [rda],
   1C30 3Er37         [ 7] 5065 	ld	a,#<(_jitter)
   1C32 21r18r00      [10] 5066 	ld	hl,#_rda
   1C35 86            [ 7] 5067 	add	a, (hl)
   1C36 DD 77 FA      [19] 5068 	ld	-6 (ix),a
   1C39 3Es00         [ 7] 5069 	ld	a,#>(_jitter)
   1C3B CE 00         [ 7] 5070 	adc	a, #0x00
   1C3D DD 77 FB      [19] 5071 	ld	-5 (ix),a
   1C40 DD 6E FA      [19] 5072 	ld	l,-6 (ix)
   1C43 DD 66 FB      [19] 5073 	ld	h,-5 (ix)
   1C46 66            [ 7] 5074 	ld	h,(hl)
   1C47 3Ar34r00      [13] 5075 	ld	a,(#__en_x + 0)
   1C4A 84            [ 4] 5076 	add	a, h
   1C4B 57            [ 4] 5077 	ld	d,a
   1C4C DD 6E FE      [19] 5078 	ld	l,-2 (ix)
   1C4F DD 66 FF      [19] 5079 	ld	h,-1 (ix)
   1C52 E5            [11] 5080 	push	hl
   1C53 DD 7E FC      [19] 5081 	ld	a,-4 (ix)
   1C56 F5            [11] 5082 	push	af
   1C57 33            [ 6] 5083 	inc	sp
   1C58 D5            [11] 5084 	push	de
   1C59 33            [ 6] 5085 	inc	sp
   1C5A CDr00r00      [17] 5086 	call	_SG_addMetaSprite1x1
   1C5D F1            [10] 5087 	pop	af
   1C5E F1            [10] 5088 	pop	af
   1C5F C3rD9r26      [10] 5089 	jp	00230$
   1C62                    5090 00228$:
                           5091 ;engine/enengine.h:424: if (en_is_alive) {
   1C62 3Ar30r00      [13] 5092 	ld	a,(#_en_is_alive + 0)
   1C65 B7            [ 4] 5093 	or	a, a
   1C66 CArD9r26      [10] 5094 	jp	Z,00230$
                           5095 ;engine/enengine.h:427: pregotten = (prx + 7 >= _en_x && prx <= _en_x + 15);
   1C69 21r52r00      [10] 5096 	ld	hl,#_prx + 0
   1C6C 5E            [ 7] 5097 	ld	e, (hl)
   1C6D 16 00         [ 7] 5098 	ld	d,#0x00
   1C6F 21 07 00      [10] 5099 	ld	hl,#0x0007
   1C72 19            [11] 5100 	add	hl,de
   1C73 4D            [ 4] 5101 	ld	c,l
   1C74 44            [ 4] 5102 	ld	b,h
   1C75 FD 21r34r00   [14] 5103 	ld	iy,#__en_x
   1C79 FD 6E 00      [19] 5104 	ld	l,0 (iy)
   1C7C 26 00         [ 7] 5105 	ld	h,#0x00
   1C7E 79            [ 4] 5106 	ld	a,c
   1C7F 95            [ 4] 5107 	sub	a, l
   1C80 78            [ 4] 5108 	ld	a,b
   1C81 9C            [ 4] 5109 	sbc	a, h
   1C82 E2r87r1C      [10] 5110 	jp	PO, 00587$
   1C85 EE 80         [ 7] 5111 	xor	a, #0x80
   1C87                    5112 00587$:
   1C87 FAr9Ar1C      [10] 5113 	jp	M,00239$
   1C8A 01 0F 00      [10] 5114 	ld	bc,#0x000F
   1C8D 09            [11] 5115 	add	hl,bc
   1C8E 7D            [ 4] 5116 	ld	a,l
   1C8F 93            [ 4] 5117 	sub	a, e
   1C90 7C            [ 4] 5118 	ld	a,h
   1C91 9A            [ 4] 5119 	sbc	a, d
   1C92 E2r97r1C      [10] 5120 	jp	PO, 00588$
   1C95 EE 80         [ 7] 5121 	xor	a, #0x80
   1C97                    5122 00588$:
   1C97 F2rA0r1C      [10] 5123 	jp	P,00240$
   1C9A                    5124 00239$:
   1C9A DD 36 FA 00   [19] 5125 	ld	-6 (ix),#0x00
   1C9E 18 04         [12] 5126 	jr	00241$
   1CA0                    5127 00240$:
   1CA0 DD 36 FA 01   [19] 5128 	ld	-6 (ix),#0x01
   1CA4                    5129 00241$:
   1CA4 DD 7E FA      [19] 5130 	ld	a,-6 (ix)
   1CA7 32r31r00      [13] 5131 	ld	(#_pregotten + 0),a
                           5132 ;engine/enengine.h:430: en_fr = ((((_en_mx) ? _en_x : _en_y)+4) >> 3) & 1;
   1CAA 3Ar34r00      [13] 5133 	ld	a,(#__en_x + 0)
   1CAD DD 77 FA      [19] 5134 	ld	-6 (ix),a
   1CB0 3Ar35r00      [13] 5135 	ld	a,(#__en_y + 0)
   1CB3 DD 77 FC      [19] 5136 	ld	-4 (ix),a
   1CB6 3Ar3Ar00      [13] 5137 	ld	a,(#__en_mx + 0)
   1CB9 B7            [ 4] 5138 	or	a, a
   1CBA 28 08         [12] 5139 	jr	Z,00242$
   1CBC DD 7E FA      [19] 5140 	ld	a,-6 (ix)
   1CBF DD 77 F7      [19] 5141 	ld	-9 (ix),a
   1CC2 18 06         [12] 5142 	jr	00243$
   1CC4                    5143 00242$:
   1CC4 DD 7E FC      [19] 5144 	ld	a,-4 (ix)
   1CC7 DD 77 F7      [19] 5145 	ld	-9 (ix),a
   1CCA                    5146 00243$:
   1CCA DD 7E F7      [19] 5147 	ld	a,-9 (ix)
   1CCD DD 77 FE      [19] 5148 	ld	-2 (ix),a
   1CD0 DD 36 FF 00   [19] 5149 	ld	-1 (ix),#0x00
   1CD4 DD 7E FE      [19] 5150 	ld	a,-2 (ix)
   1CD7 C6 04         [ 7] 5151 	add	a, #0x04
   1CD9 DD 77 FE      [19] 5152 	ld	-2 (ix),a
   1CDC DD 7E FF      [19] 5153 	ld	a,-1 (ix)
   1CDF CE 00         [ 7] 5154 	adc	a, #0x00
   1CE1 DD 77 FF      [19] 5155 	ld	-1 (ix),a
   1CE4 DD CB FF 2E   [23] 5156 	sra	-1 (ix)
   1CE8 DD CB FE 1E   [23] 5157 	rr	-2 (ix)
   1CEC DD CB FF 2E   [23] 5158 	sra	-1 (ix)
   1CF0 DD CB FE 1E   [23] 5159 	rr	-2 (ix)
   1CF4 DD CB FF 2E   [23] 5160 	sra	-1 (ix)
   1CF8 DD CB FE 1E   [23] 5161 	rr	-2 (ix)
   1CFC DD 7E FE      [19] 5162 	ld	a,-2 (ix)
   1CFF E6 01         [ 7] 5163 	and	a, #0x01
   1D01 DD 77 FE      [19] 5164 	ld	-2 (ix),a
   1D04 DD 36 FF 00   [19] 5165 	ld	-1 (ix),#0x00
   1D08 DD 7E FE      [19] 5166 	ld	a,-2 (ix)
   1D0B 32r2Br00      [13] 5167 	ld	(#_en_fr + 0),a
                           5168 ;engine/enengine.h:433: if (res_on 
   1D0E 3ArB7r02      [13] 5169 	ld	a,(#_res_on + 0)
   1D11 B7            [ 4] 5170 	or	a, a
   1D12 28 1A         [12] 5171 	jr	Z,00172$
                           5172 ;engine/enengine.h:446: ) {
   1D14 3Ar32r00      [13] 5173 	ld	a,(#__en_t + 0)
   1D17 D6 04         [ 7] 5174 	sub	a, #0x04
   1D19 28 13         [12] 5175 	jr	Z,00172$
                           5176 ;engine/enengine.h:447: en_spr = en_spr_id [gpit];
   1D1B 3Er48         [ 7] 5177 	ld	a,#<(_en_spr_id)
   1D1D 21r08r00      [10] 5178 	ld	hl,#_gpit
   1D20 86            [ 7] 5179 	add	a, (hl)
   1D21 5F            [ 4] 5180 	ld	e,a
   1D22 3Es02         [ 7] 5181 	ld	a,#>(_en_spr_id)
   1D24 CE 00         [ 7] 5182 	adc	a, #0x00
   1D26 57            [ 4] 5183 	ld	d,a
   1D27 1A            [ 7] 5184 	ld	a,(de)
   1D28 32r2Er00      [13] 5185 	ld	(#_en_spr + 0),a
   1D2B C3r46r23      [10] 5186 	jp	00173$
   1D2E                    5187 00172$:
                           5188 ;engine/enengine.h:451: switch (_en_t & 63) {
   1D2E 3Ar32r00      [13] 5189 	ld	a,(#__en_t + 0)
   1D31 E6 3F         [ 7] 5190 	and	a, #0x3F
   1D33 67            [ 4] 5191 	ld	h,a
   1D34 3D            [ 4] 5192 	dec	a
   1D35 28 15         [12] 5193 	jr	Z,00110$
   1D37 7C            [ 4] 5194 	ld	a,h
   1D38 FE 02         [ 7] 5195 	cp	a,#0x02
   1D3A 28 10         [12] 5196 	jr	Z,00110$
   1D3C FE 03         [ 7] 5197 	cp	a,#0x03
   1D3E 28 0C         [12] 5198 	jr	Z,00110$
   1D40 FE 04         [ 7] 5199 	cp	a,#0x04
   1D42 28 08         [12] 5200 	jr	Z,00110$
   1D44 D6 06         [ 7] 5201 	sub	a, #0x06
   1D46 CAr1Br1E      [10] 5202 	jp	Z,00122$
   1D49 C3r36r23      [10] 5203 	jp	00170$
                           5204 ;engine/enengine.h:455: case 4:
   1D4C                    5205 00110$:
                           5206 ;engine/../engine/enemmods/enem_linear.h:11: if (!en_status [gpit] || half_life) {
   1D4C 3Er29         [ 7] 5207 	ld	a,#<(_en_status)
   1D4E 21r08r00      [10] 5208 	ld	hl,#_gpit
   1D51 86            [ 7] 5209 	add	a, (hl)
   1D52 5F            [ 4] 5210 	ld	e,a
   1D53 3Es02         [ 7] 5211 	ld	a,#>(_en_status)
   1D55 CE 00         [ 7] 5212 	adc	a, #0x00
   1D57 57            [ 4] 5213 	ld	d,a
   1D58 1A            [ 7] 5214 	ld	a,(de)
   1D59 B7            [ 4] 5215 	or	a, a
   1D5A 28 07         [12] 5216 	jr	Z,00119$
   1D5C 3ArC2r01      [13] 5217 	ld	a,(#_half_life + 0)
   1D5F B7            [ 4] 5218 	or	a, a
   1D60 CArECr1D      [10] 5219 	jp	Z,00120$
   1D63                    5220 00119$:
                           5221 ;engine/../engine/enemmods/enem_linear.h:15: _en_x += _en_mx;
   1D63 3Ar34r00      [13] 5222 	ld	a,(#__en_x + 0)
   1D66 21r3Ar00      [10] 5223 	ld	hl,#__en_mx
   1D69 FD 21r34r00   [14] 5224 	ld	iy,#__en_x
   1D6D 86            [ 7] 5225 	add	a, (hl)
   1D6E FD 77 00      [19] 5226 	ld	0 (iy),a
                           5227 ;engine/../engine/enemmods/enem_linear.h:32: _en_y += _en_my;
   1D71 3Ar35r00      [13] 5228 	ld	a,(#__en_y + 0)
   1D74 21r3Br00      [10] 5229 	ld	hl,#__en_my
   1D77 FD 21r35r00   [14] 5230 	ld	iy,#__en_y
   1D7B 86            [ 7] 5231 	add	a, (hl)
   1D7C FD 77 00      [19] 5232 	ld	0 (iy),a
                           5233 ;engine/../engine/enemmods/enem_linear.h:53: if (_en_x == _en_x1 || _en_x == _en_x2) _en_mx = -_en_mx;
   1D7F 3Ar34r00      [13] 5234 	ld	a,(#__en_x + 0)
   1D82 FD 21r36r00   [14] 5235 	ld	iy,#__en_x1
   1D86 FD 96 00      [19] 5236 	sub	a, 0 (iy)
   1D89 28 0C         [12] 5237 	jr	Z,00111$
   1D8B 3Ar34r00      [13] 5238 	ld	a,(#__en_x + 0)
   1D8E FD 21r38r00   [14] 5239 	ld	iy,#__en_x2
   1D92 FD 96 00      [19] 5240 	sub	a, 0 (iy)
   1D95 20 0B         [12] 5241 	jr	NZ,00112$
   1D97                    5242 00111$:
   1D97 AF            [ 4] 5243 	xor	a, a
   1D98 FD 21r3Ar00   [14] 5244 	ld	iy,#__en_mx
   1D9C FD 96 00      [19] 5245 	sub	a, 0 (iy)
   1D9F 32r3Ar00      [13] 5246 	ld	(#__en_mx + 0),a
   1DA2                    5247 00112$:
                           5248 ;engine/../engine/enemmods/enem_linear.h:60: if (_en_y <= _en_y1) { _en_y = _en_y1; _en_my = ABS (_en_my); }
   1DA2 3Ar3Br00      [13] 5249 	ld	a,(#__en_my + 0)
   1DA5 07            [ 4] 5250 	rlca
   1DA6 E6 01         [ 7] 5251 	and	a,#0x01
   1DA8 4F            [ 4] 5252 	ld	c,a
   1DA9 AF            [ 4] 5253 	xor	a, a
   1DAA FD 21r3Br00   [14] 5254 	ld	iy,#__en_my
   1DAE FD 96 00      [19] 5255 	sub	a, 0 (iy)
   1DB1 57            [ 4] 5256 	ld	d,a
   1DB2 21r3Br00      [10] 5257 	ld	hl,#__en_my + 0
   1DB5 5E            [ 7] 5258 	ld	e, (hl)
   1DB6 3Ar37r00      [13] 5259 	ld	a,(#__en_y1)
   1DB9 FD 21r35r00   [14] 5260 	ld	iy,#__en_y
   1DBD FD 96 00      [19] 5261 	sub	a, 0 (iy)
   1DC0 38 11         [12] 5262 	jr	C,00117$
   1DC2 3Ar37r00      [13] 5263 	ld	a,(#__en_y1 + 0)
   1DC5 32r35r00      [13] 5264 	ld	(#__en_y + 0),a
   1DC8 79            [ 4] 5265 	ld	a,c
   1DC9 B7            [ 4] 5266 	or	a, a
   1DCA 28 01         [12] 5267 	jr	Z,00244$
   1DCC 5A            [ 4] 5268 	ld	e,d
   1DCD                    5269 00244$:
   1DCD 21r3Br00      [10] 5270 	ld	hl,#__en_my + 0
   1DD0 73            [ 7] 5271 	ld	(hl), e
   1DD1 18 19         [12] 5272 	jr	00120$
   1DD3                    5273 00117$:
                           5274 ;engine/../engine/enemmods/enem_linear.h:61: else if (_en_y >= _en_y2) { _en_y = _en_y2; _en_my = -ABS (_en_my); }
   1DD3 21r39r00      [10] 5275 	ld	hl,#__en_y2
   1DD6 3Ar35r00      [13] 5276 	ld	a,(#__en_y + 0)
   1DD9 96            [ 7] 5277 	sub	a, (hl)
   1DDA 38 10         [12] 5278 	jr	C,00120$
   1DDC 3Ar39r00      [13] 5279 	ld	a,(#__en_y2 + 0)
   1DDF 32r35r00      [13] 5280 	ld	(#__en_y + 0),a
   1DE2 79            [ 4] 5281 	ld	a,c
   1DE3 B7            [ 4] 5282 	or	a, a
   1DE4 20 01         [12] 5283 	jr	NZ,00247$
   1DE6 53            [ 4] 5284 	ld	d,e
   1DE7                    5285 00247$:
   1DE7 AF            [ 4] 5286 	xor	a, a
   1DE8 92            [ 4] 5287 	sub	a, d
   1DE9 32r3Br00      [13] 5288 	ld	(#__en_my + 0),a
   1DEC                    5289 00120$:
                           5290 ;engine/../engine/enemmods/enem_linear.h:77: rda = _en_mx ? (_en_mx < 0) : (_en_my < 0); enems_facing ();
   1DEC 3Ar3Ar00      [13] 5291 	ld	a,(#__en_mx + 0)
   1DEF B7            [ 4] 5292 	or	a, a
   1DF0 28 08         [12] 5293 	jr	Z,00248$
   1DF2 3Ar3Ar00      [13] 5294 	ld	a,(#__en_mx + 0)
   1DF5 07            [ 4] 5295 	rlca
   1DF6 E6 01         [ 7] 5296 	and	a,#0x01
   1DF8 18 06         [12] 5297 	jr	00249$
   1DFA                    5298 00248$:
   1DFA 3Ar3Br00      [13] 5299 	ld	a,(#__en_my + 0)
   1DFD 07            [ 4] 5300 	rlca
   1DFE E6 01         [ 7] 5301 	and	a,#0x01
   1E00                    5302 00249$:
   1E00 32r18r00      [13] 5303 	ld	(#_rda + 0),a
   1E03 CDr38r17      [17] 5304 	call	_enems_facing
                           5305 ;engine/../engine/enemmods/enem_linear.h:79: en_spr = _en_s + en_fr + _en_facing;
   1E06 21r2Br00      [10] 5306 	ld	hl,#_en_fr
   1E09 3Ar33r00      [13] 5307 	ld	a,(#__en_s + 0)
   1E0C 86            [ 7] 5308 	add	a, (hl)
   1E0D 21r3Dr00      [10] 5309 	ld	hl,#__en_facing
   1E10 FD 21r2Er00   [14] 5310 	ld	iy,#_en_spr
   1E14 86            [ 7] 5311 	add	a, (hl)
   1E15 FD 77 00      [19] 5312 	ld	0 (iy),a
                           5313 ;engine/enengine.h:464: break;
   1E18 C3r36r23      [10] 5314 	jp	00170$
                           5315 ;engine/enengine.h:479: case 6:
   1E1B                    5316 00122$:
                           5317 ;engine/../engine/enemmods/enem_homing_fanty.h:7: rdx = _en_x; rdy = _en_y; rdt = distance ();
   1E1B DD 7E FA      [19] 5318 	ld	a,-6 (ix)
   1E1E 32r14r00      [13] 5319 	ld	(#_rdx + 0),a
   1E21 DD 7E FC      [19] 5320 	ld	a,-4 (ix)
   1E24 32r15r00      [13] 5321 	ld	(#_rdy + 0),a
   1E27 CDr97r07      [17] 5322 	call	_distance
   1E2A FD 21r16r00   [14] 5323 	ld	iy,#_rdt
   1E2E FD 75 00      [19] 5324 	ld	0 (iy),l
                           5325 ;engine/../engine/enemmods/enem_homing_fanty.h:35: _enf_y = _en_y << FIXBITS;
   1E31 3Ar35r00      [13] 5326 	ld	a,(#__en_y + 0)
   1E34 DD 77 FA      [19] 5327 	ld	-6 (ix),a
   1E37 DD 36 FB 00   [19] 5328 	ld	-5 (ix),#0x00
                           5329 ;engine/../engine/enemmods/enem_homing_fanty.h:11: switch (_en_state) {
   1E3B 3Ar3Er00      [13] 5330 	ld	a,(#__en_state + 0)
   1E3E B7            [ 4] 5331 	or	a, a
   1E3F 28 09         [12] 5332 	jr	Z,00123$
   1E41 3Ar3Er00      [13] 5333 	ld	a,(#__en_state + 0)
   1E44 3D            [ 4] 5334 	dec	a
   1E45 28 67         [12] 5335 	jr	Z,00126$
   1E47 C3rB9r1F      [10] 5336 	jp	00143$
                           5337 ;engine/../engine/enemmods/enem_homing_fanty.h:12: case 0:
   1E4A                    5338 00123$:
                           5339 ;engine/../engine/enemmods/enem_homing_fanty.h:14: _enf_vx = ADD_SIGN2 (_en_x1, _en_x, FANTY_V_RETREAT);
   1E4A 3Ar36r00      [13] 5340 	ld	a,(#__en_x1 + 0)
   1E4D FD 21r34r00   [14] 5341 	ld	iy,#__en_x
   1E51 FD 96 00      [19] 5342 	sub	a, 0 (iy)
   1E54 20 04         [12] 5343 	jr	NZ,00250$
   1E56 3E 00         [ 7] 5344 	ld	a,#0x00
   1E58 18 12         [12] 5345 	jr	00251$
   1E5A                    5346 00250$:
   1E5A 3Ar34r00      [13] 5347 	ld	a,(#__en_x)
   1E5D FD 21r36r00   [14] 5348 	ld	iy,#__en_x1
   1E61 FD 96 00      [19] 5349 	sub	a, 0 (iy)
   1E64 30 04         [12] 5350 	jr	NC,00252$
   1E66 3E 10         [ 7] 5351 	ld	a,#0x10
   1E68 18 02         [12] 5352 	jr	00253$
   1E6A                    5353 00252$:
   1E6A 3E F0         [ 7] 5354 	ld	a,#0xF0
   1E6C                    5355 00253$:
   1E6C                    5356 00251$:
   1E6C 32r43r00      [13] 5357 	ld	(#__enf_vx + 0),a
   1E6F 17            [ 4] 5358 	rla
   1E70 9F            [ 4] 5359 	sbc	a, a
   1E71 32r44r00      [13] 5360 	ld	(#__enf_vx + 1),a
                           5361 ;engine/../engine/enemmods/enem_homing_fanty.h:15: _enf_vy = ADD_SIGN2 (_en_y1, _en_y, FANTY_V_RETREAT);
   1E74 3Ar37r00      [13] 5362 	ld	a,(#__en_y1 + 0)
   1E77 FD 21r35r00   [14] 5363 	ld	iy,#__en_y
   1E7B FD 96 00      [19] 5364 	sub	a, 0 (iy)
   1E7E 20 04         [12] 5365 	jr	NZ,00254$
   1E80 3E 00         [ 7] 5366 	ld	a,#0x00
   1E82 18 12         [12] 5367 	jr	00255$
   1E84                    5368 00254$:
   1E84 3Ar35r00      [13] 5369 	ld	a,(#__en_y)
   1E87 FD 21r37r00   [14] 5370 	ld	iy,#__en_y1
   1E8B FD 96 00      [19] 5371 	sub	a, 0 (iy)
   1E8E 30 04         [12] 5372 	jr	NC,00256$
   1E90 3E 10         [ 7] 5373 	ld	a,#0x10
   1E92 18 02         [12] 5374 	jr	00257$
   1E94                    5375 00256$:
   1E94 3E F0         [ 7] 5376 	ld	a,#0xF0
   1E96                    5377 00257$:
   1E96                    5378 00255$:
   1E96 32r45r00      [13] 5379 	ld	(#__enf_vy + 0),a
   1E99 17            [ 4] 5380 	rla
   1E9A 9F            [ 4] 5381 	sbc	a, a
   1E9B 32r46r00      [13] 5382 	ld	(#__enf_vy + 1),a
                           5383 ;engine/../engine/enemmods/enem_homing_fanty.h:16: if (rdt < FANTY_DISTANCE) _en_state = 1;
   1E9E 3Ar16r00      [13] 5384 	ld	a,(#_rdt + 0)
   1EA1 D6 60         [ 7] 5385 	sub	a, #0x60
   1EA3 D2rB9r1F      [10] 5386 	jp	NC,00143$
   1EA6 21r3Er00      [10] 5387 	ld	hl,#__en_state + 0
   1EA9 36 01         [10] 5388 	ld	(hl), #0x01
                           5389 ;engine/../engine/enemmods/enem_homing_fanty.h:17: break;
   1EAB C3rB9r1F      [10] 5390 	jp	00143$
                           5391 ;engine/../engine/enemmods/enem_homing_fanty.h:18: case 1:
   1EAE                    5392 00126$:
                           5393 ;engine/../engine/enemmods/enem_homing_fanty.h:20: if (px < _enf_x) {
   1EAE 21r3Fr00      [10] 5394 	ld	hl,#__enf_x
   1EB1 3Ar4Ar00      [13] 5395 	ld	a,(#_px + 0)
   1EB4 96            [ 7] 5396 	sub	a, (hl)
   1EB5 FD 21r4Ar00   [14] 5397 	ld	iy,#_px
   1EB9 FD 7E 01      [19] 5398 	ld	a,1 (iy)
   1EBC 23            [ 6] 5399 	inc	hl
   1EBD 9E            [ 7] 5400 	sbc	a, (hl)
   1EBE E2rC3r1E      [10] 5401 	jp	PO, 00604$
   1EC1 EE 80         [ 7] 5402 	xor	a, #0x80
   1EC3                    5403 00604$:
   1EC3 F2rE5r1E      [10] 5404 	jp	P,00132$
                           5405 ;engine/../engine/enemmods/enem_homing_fanty.h:21: _enf_vx -= FANTY_A; if (_enf_vx < -FANTY_MAXV) _enf_vx = -FANTY_MAXV;
   1EC6 2Ar43r00      [16] 5406 	ld	hl,(__enf_vx)
   1EC9 2B            [ 6] 5407 	dec	hl
   1ECA 2B            [ 6] 5408 	dec	hl
   1ECB 22r43r00      [16] 5409 	ld	(__enf_vx),hl
   1ECE 3Ar43r00      [13] 5410 	ld	a,(#__enf_vx + 0)
   1ED1 D6 E0         [ 7] 5411 	sub	a, #0xE0
   1ED3 3Ar44r00      [13] 5412 	ld	a,(#__enf_vx + 1)
   1ED6 17            [ 4] 5413 	rla
   1ED7 3F            [ 4] 5414 	ccf
   1ED8 1F            [ 4] 5415 	rra
   1ED9 DE 7F         [ 7] 5416 	sbc	a, #0x7F
   1EDB 30 34         [12] 5417 	jr	NC,00133$
   1EDD 21 E0 FF      [10] 5418 	ld	hl,#0xFFE0
   1EE0 22r43r00      [16] 5419 	ld	(__enf_vx),hl
   1EE3 18 2C         [12] 5420 	jr	00133$
   1EE5                    5421 00132$:
                           5422 ;engine/../engine/enemmods/enem_homing_fanty.h:23: _enf_vx += FANTY_A; if (_enf_vx > FANTY_MAXV) _enf_vx = FANTY_MAXV;
   1EE5 21r43r00      [10] 5423 	ld	hl,#__enf_vx
   1EE8 7E            [ 7] 5424 	ld	a,(hl)
   1EE9 C6 02         [ 7] 5425 	add	a, #0x02
   1EEB 77            [ 7] 5426 	ld	(hl),a
   1EEC 23            [ 6] 5427 	inc	hl
   1EED 7E            [ 7] 5428 	ld	a,(hl)
   1EEE CE 00         [ 7] 5429 	adc	a, #0x00
   1EF0 77            [ 7] 5430 	ld	(hl),a
   1EF1 3E 20         [ 7] 5431 	ld	a,#0x20
   1EF3 FD 21r43r00   [14] 5432 	ld	iy,#__enf_vx
   1EF7 FD BE 00      [19] 5433 	cp	a, 0 (iy)
   1EFA 3E 00         [ 7] 5434 	ld	a,#0x00
   1EFC FD 21r43r00   [14] 5435 	ld	iy,#__enf_vx
   1F00 FD 9E 01      [19] 5436 	sbc	a, 1 (iy)
   1F03 E2r08r1F      [10] 5437 	jp	PO, 00605$
   1F06 EE 80         [ 7] 5438 	xor	a, #0x80
   1F08                    5439 00605$:
   1F08 F2r11r1F      [10] 5440 	jp	P,00133$
   1F0B 21 20 00      [10] 5441 	ld	hl,#0x0020
   1F0E 22r43r00      [16] 5442 	ld	(__enf_vx),hl
   1F11                    5443 00133$:
                           5444 ;engine/../engine/enemmods/enem_homing_fanty.h:26: if (py < _enf_y) {
   1F11 21r41r00      [10] 5445 	ld	hl,#__enf_y
   1F14 3Ar4Cr00      [13] 5446 	ld	a,(#_py + 0)
   1F17 96            [ 7] 5447 	sub	a, (hl)
   1F18 FD 21r4Cr00   [14] 5448 	ld	iy,#_py
   1F1C FD 7E 01      [19] 5449 	ld	a,1 (iy)
   1F1F 23            [ 6] 5450 	inc	hl
   1F20 9E            [ 7] 5451 	sbc	a, (hl)
   1F21 E2r26r1F      [10] 5452 	jp	PO, 00606$
   1F24 EE 80         [ 7] 5453 	xor	a, #0x80
   1F26                    5454 00606$:
   1F26 F2r48r1F      [10] 5455 	jp	P,00139$
                           5456 ;engine/../engine/enemmods/enem_homing_fanty.h:27: _enf_vy -= FANTY_A; if (_enf_vy < -FANTY_MAXV) _enf_vy = -FANTY_MAXV;
   1F29 2Ar45r00      [16] 5457 	ld	hl,(__enf_vy)
   1F2C 2B            [ 6] 5458 	dec	hl
   1F2D 2B            [ 6] 5459 	dec	hl
   1F2E 22r45r00      [16] 5460 	ld	(__enf_vy),hl
   1F31 3Ar45r00      [13] 5461 	ld	a,(#__enf_vy + 0)
   1F34 D6 E0         [ 7] 5462 	sub	a, #0xE0
   1F36 3Ar46r00      [13] 5463 	ld	a,(#__enf_vy + 1)
   1F39 17            [ 4] 5464 	rla
   1F3A 3F            [ 4] 5465 	ccf
   1F3B 1F            [ 4] 5466 	rra
   1F3C DE 7F         [ 7] 5467 	sbc	a, #0x7F
   1F3E 30 34         [12] 5468 	jr	NC,00140$
   1F40 21 E0 FF      [10] 5469 	ld	hl,#0xFFE0
   1F43 22r45r00      [16] 5470 	ld	(__enf_vy),hl
   1F46 18 2C         [12] 5471 	jr	00140$
   1F48                    5472 00139$:
                           5473 ;engine/../engine/enemmods/enem_homing_fanty.h:29: _enf_vy += FANTY_A; if (_enf_vy > FANTY_MAXV) _enf_vy = FANTY_MAXV;
   1F48 21r45r00      [10] 5474 	ld	hl,#__enf_vy
   1F4B 7E            [ 7] 5475 	ld	a,(hl)
   1F4C C6 02         [ 7] 5476 	add	a, #0x02
   1F4E 77            [ 7] 5477 	ld	(hl),a
   1F4F 23            [ 6] 5478 	inc	hl
   1F50 7E            [ 7] 5479 	ld	a,(hl)
   1F51 CE 00         [ 7] 5480 	adc	a, #0x00
   1F53 77            [ 7] 5481 	ld	(hl),a
   1F54 3E 20         [ 7] 5482 	ld	a,#0x20
   1F56 FD 21r45r00   [14] 5483 	ld	iy,#__enf_vy
   1F5A FD BE 00      [19] 5484 	cp	a, 0 (iy)
   1F5D 3E 00         [ 7] 5485 	ld	a,#0x00
   1F5F FD 21r45r00   [14] 5486 	ld	iy,#__enf_vy
   1F63 FD 9E 01      [19] 5487 	sbc	a, 1 (iy)
   1F66 E2r6Br1F      [10] 5488 	jp	PO, 00607$
   1F69 EE 80         [ 7] 5489 	xor	a, #0x80
   1F6B                    5490 00607$:
   1F6B F2r74r1F      [10] 5491 	jp	P,00140$
   1F6E 21 20 00      [10] 5492 	ld	hl,#0x0020
   1F71 22r45r00      [16] 5493 	ld	(__enf_vy),hl
   1F74                    5494 00140$:
                           5495 ;engine/../engine/enemmods/enem_homing_fanty.h:32: if (rdt > FANTY_DISTANCE) {
   1F74 3E 60         [ 7] 5496 	ld	a,#0x60
   1F76 FD 21r16r00   [14] 5497 	ld	iy,#_rdt
   1F7A FD 96 00      [19] 5498 	sub	a, 0 (iy)
   1F7D 30 3A         [12] 5499 	jr	NC,00143$
                           5500 ;engine/../engine/enemmods/enem_homing_fanty.h:34: _enf_x = _en_x << FIXBITS;
   1F7F FD 21r34r00   [14] 5501 	ld	iy,#__en_x
   1F83 FD 6E 00      [19] 5502 	ld	l,0 (iy)
   1F86 26 00         [ 7] 5503 	ld	h,#0x00
   1F88 29            [11] 5504 	add	hl, hl
   1F89 29            [11] 5505 	add	hl, hl
   1F8A 29            [11] 5506 	add	hl, hl
   1F8B 29            [11] 5507 	add	hl, hl
   1F8C 29            [11] 5508 	add	hl, hl
   1F8D 29            [11] 5509 	add	hl, hl
   1F8E 22r3Fr00      [16] 5510 	ld	(__enf_x),hl
                           5511 ;engine/../engine/enemmods/enem_homing_fanty.h:35: _enf_y = _en_y << FIXBITS;
   1F91 DD 7E FA      [19] 5512 	ld	a,-6 (ix)
   1F94 32r41r00      [13] 5513 	ld	(#__enf_y + 0),a
   1F97 DD 7E FB      [19] 5514 	ld	a,-5 (ix)
   1F9A 32r42r00      [13] 5515 	ld	(#__enf_y + 1),a
   1F9D 3E 07         [ 7] 5516 	ld	a,#0x06+1
   1F9F 18 10         [12] 5517 	jr	00609$
   1FA1                    5518 00608$:
   1FA1 FD 21r41r00   [14] 5519 	ld	iy,#__enf_y
   1FA5 FD CB 00 26   [23] 5520 	sla	0 (iy)
   1FA9 FD 21r41r00   [14] 5521 	ld	iy,#__enf_y
   1FAD FD CB 01 16   [23] 5522 	rl	1 (iy)
   1FB1                    5523 00609$:
   1FB1 3D            [ 4] 5524 	dec	a
   1FB2 20 ED         [12] 5525 	jr	NZ,00608$
                           5526 ;engine/../engine/enemmods/enem_homing_fanty.h:36: _en_state = 0;
   1FB4 21r3Er00      [10] 5527 	ld	hl,#__en_state + 0
   1FB7 36 00         [10] 5528 	ld	(hl), #0x00
                           5529 ;engine/../engine/enemmods/enem_homing_fanty.h:39: }
   1FB9                    5530 00143$:
                           5531 ;engine/../engine/enemmods/enem_homing_fanty.h:43: _enf_x += _enf_vx; 
   1FB9 21r43r00      [10] 5532 	ld	hl,#__enf_vx
   1FBC D5            [11] 5533 	push	de
   1FBD FD 21r3Fr00   [14] 5534 	ld	iy,#__enf_x
   1FC1 FD E5         [15] 5535 	push	iy
   1FC3 D1            [10] 5536 	pop	de
   1FC4 1A            [ 7] 5537 	ld	a,(de)
   1FC5 86            [ 7] 5538 	add	a, (hl)
   1FC6 12            [ 7] 5539 	ld	(de),a
   1FC7 13            [ 6] 5540 	inc	de
   1FC8 1A            [ 7] 5541 	ld	a,(de)
   1FC9 23            [ 6] 5542 	inc	hl
   1FCA 8E            [ 7] 5543 	adc	a, (hl)
   1FCB 12            [ 7] 5544 	ld	(de),a
   1FCC D1            [10] 5545 	pop	de
                           5546 ;engine/../engine/enemmods/enem_homing_fanty.h:44: if (_enf_x < 0) _enf_x = 0;
   1FCD 3Ar40r00      [13] 5547 	ld	a,(#__enf_x + 1)
   1FD0 CB 7F         [ 8] 5548 	bit	7,a
   1FD2 28 06         [12] 5549 	jr	Z,00145$
   1FD4 21 00 00      [10] 5550 	ld	hl,#0x0000
   1FD7 22r3Fr00      [16] 5551 	ld	(__enf_x),hl
   1FDA                    5552 00145$:
                           5553 ;engine/../engine/enemmods/enem_homing_fanty.h:45: if (_enf_x > 15360) _enf_x = 15360;
   1FDA AF            [ 4] 5554 	xor	a, a
   1FDB FD 21r3Fr00   [14] 5555 	ld	iy,#__enf_x
   1FDF FD BE 00      [19] 5556 	cp	a, 0 (iy)
   1FE2 3E 3C         [ 7] 5557 	ld	a,#0x3C
   1FE4 FD 21r3Fr00   [14] 5558 	ld	iy,#__enf_x
   1FE8 FD 9E 01      [19] 5559 	sbc	a, 1 (iy)
   1FEB E2rF0r1F      [10] 5560 	jp	PO, 00610$
   1FEE EE 80         [ 7] 5561 	xor	a, #0x80
   1FF0                    5562 00610$:
   1FF0 F2rF9r1F      [10] 5563 	jp	P,00147$
   1FF3 21 00 3C      [10] 5564 	ld	hl,#0x3C00
   1FF6 22r3Fr00      [16] 5565 	ld	(__enf_x),hl
   1FF9                    5566 00147$:
                           5567 ;engine/../engine/enemmods/enem_homing_fanty.h:46: _en_x = _enf_x >> 6;
   1FF9 2Ar3Fr00      [16] 5568 	ld	hl,(__enf_x)
   1FFC CB 2C         [ 8] 5569 	sra	h
   1FFE CB 1D         [ 8] 5570 	rr	l
   2000 CB 2C         [ 8] 5571 	sra	h
   2002 CB 1D         [ 8] 5572 	rr	l
   2004 CB 2C         [ 8] 5573 	sra	h
   2006 CB 1D         [ 8] 5574 	rr	l
   2008 CB 2C         [ 8] 5575 	sra	h
   200A CB 1D         [ 8] 5576 	rr	l
   200C CB 2C         [ 8] 5577 	sra	h
   200E CB 1D         [ 8] 5578 	rr	l
   2010 CB 2C         [ 8] 5579 	sra	h
   2012 CB 1D         [ 8] 5580 	rr	l
   2014 FD 21r34r00   [14] 5581 	ld	iy,#__en_x
   2018 FD 75 00      [19] 5582 	ld	0 (iy),l
                           5583 ;engine/../engine/enemmods/enem_homing_fanty.h:50: if (_enf_vx) {
   201B 3Ar44r00      [13] 5584 	ld	a,(#__enf_vx + 1)
   201E 21r43r00      [10] 5585 	ld	hl,#__enf_vx + 0
   2021 B6            [ 7] 5586 	or	a,(hl)
   2022 CAr25r21      [10] 5587 	jp	Z,00155$
                           5588 ;engine/../engine/enemmods/enem_homing_fanty.h:51: cy1 = (_en_y + 4) >> 4;
   2025 DD 7E FA      [19] 5589 	ld	a,-6 (ix)
   2028 C6 04         [ 7] 5590 	add	a, #0x04
   202A 6F            [ 4] 5591 	ld	l,a
   202B DD 7E FB      [19] 5592 	ld	a,-5 (ix)
   202E CE 00         [ 7] 5593 	adc	a, #0x00
   2030 67            [ 4] 5594 	ld	h,a
   2031 CB 2C         [ 8] 5595 	sra	h
   2033 CB 1D         [ 8] 5596 	rr	l
   2035 CB 2C         [ 8] 5597 	sra	h
   2037 CB 1D         [ 8] 5598 	rr	l
   2039 CB 2C         [ 8] 5599 	sra	h
   203B CB 1D         [ 8] 5600 	rr	l
   203D CB 2C         [ 8] 5601 	sra	h
   203F CB 1D         [ 8] 5602 	rr	l
   2041 FD 21r24r00   [14] 5603 	ld	iy,#_cy1
   2045 FD 75 00      [19] 5604 	ld	0 (iy),l
                           5605 ;engine/../engine/enemmods/enem_homing_fanty.h:52: cy2 = (_en_y + 11) >> 4;
   2048 DD 7E FA      [19] 5606 	ld	a,-6 (ix)
   204B C6 0B         [ 7] 5607 	add	a, #0x0B
   204D 67            [ 4] 5608 	ld	h,a
   204E DD 7E FB      [19] 5609 	ld	a,-5 (ix)
   2051 CE 00         [ 7] 5610 	adc	a, #0x00
   2053 6F            [ 4] 5611 	ld	l,a
   2054 CB 2D         [ 8] 5612 	sra	l
   2056 CB 1C         [ 8] 5613 	rr	h
   2058 CB 2D         [ 8] 5614 	sra	l
   205A CB 1C         [ 8] 5615 	rr	h
   205C CB 2D         [ 8] 5616 	sra	l
   205E CB 1C         [ 8] 5617 	rr	h
   2060 CB 2D         [ 8] 5618 	sra	l
   2062 CB 1C         [ 8] 5619 	rr	h
   2064 FD 21r25r00   [14] 5620 	ld	iy,#_cy2
   2068 FD 74 00      [19] 5621 	ld	0 (iy),h
                           5622 ;engine/enengine.h:427: pregotten = (prx + 7 >= _en_x && prx <= _en_x + 15);
   206B FD 21r34r00   [14] 5623 	ld	iy,#__en_x
   206F FD 4E 00      [19] 5624 	ld	c,0 (iy)
   2072 06 00         [ 7] 5625 	ld	b,#0x00
                           5626 ;engine/../engine/enemmods/enem_homing_fanty.h:54: if (_enf_vx > 0) {
   2074 AF            [ 4] 5627 	xor	a, a
   2075 FD 21r43r00   [14] 5628 	ld	iy,#__enf_vx
   2079 FD BE 00      [19] 5629 	cp	a, 0 (iy)
   207C FD 21r43r00   [14] 5630 	ld	iy,#__enf_vx
   2080 FD 9E 01      [19] 5631 	sbc	a, 1 (iy)
   2083 E2r88r20      [10] 5632 	jp	PO, 00611$
   2086 EE 80         [ 7] 5633 	xor	a, #0x80
   2088                    5634 00611$:
   2088 F2rB9r20      [10] 5635 	jp	P,00149$
                           5636 ;engine/../engine/enemmods/enem_homing_fanty.h:55: cx1 = cx2 = (_en_x + 11) >> 4;
   208B 21 0B 00      [10] 5637 	ld	hl,#0x000B
   208E 09            [11] 5638 	add	hl,bc
   208F CB 2C         [ 8] 5639 	sra	h
   2091 CB 1D         [ 8] 5640 	rr	l
   2093 CB 2C         [ 8] 5641 	sra	h
   2095 CB 1D         [ 8] 5642 	rr	l
   2097 CB 2C         [ 8] 5643 	sra	h
   2099 CB 1D         [ 8] 5644 	rr	l
   209B CB 2C         [ 8] 5645 	sra	h
   209D CB 1D         [ 8] 5646 	rr	l
   209F 7D            [ 4] 5647 	ld	a,l
   20A0 32r23r00      [13] 5648 	ld	(#_cx2 + 0),a
   20A3 32r22r00      [13] 5649 	ld	(#_cx1 + 0),a
                           5650 ;engine/../engine/enemmods/enem_homing_fanty.h:56: rda = ((cx2 - 1) << 4) + 4;
   20A6 3Ar23r00      [13] 5651 	ld	a,(#_cx2 + 0)
   20A9 C6 FF         [ 7] 5652 	add	a,#0xFF
   20AB 07            [ 4] 5653 	rlca
   20AC 07            [ 4] 5654 	rlca
   20AD 07            [ 4] 5655 	rlca
   20AE 07            [ 4] 5656 	rlca
   20AF E6 F0         [ 7] 5657 	and	a,#0xF0
   20B1 21r18r00      [10] 5658 	ld	hl,#_rda
   20B4 C6 04         [ 7] 5659 	add	a, #0x04
   20B6 77            [ 7] 5660 	ld	(hl),a
   20B7 18 2C         [12] 5661 	jr	00150$
   20B9                    5662 00149$:
                           5663 ;engine/../engine/enemmods/enem_homing_fanty.h:58: cx1 = cx2 = (_en_x + 4) >> 4;
   20B9 03            [ 6] 5664 	inc	bc
   20BA 03            [ 6] 5665 	inc	bc
   20BB 03            [ 6] 5666 	inc	bc
   20BC 03            [ 6] 5667 	inc	bc
   20BD CB 28         [ 8] 5668 	sra	b
   20BF CB 19         [ 8] 5669 	rr	c
   20C1 CB 28         [ 8] 5670 	sra	b
   20C3 CB 19         [ 8] 5671 	rr	c
   20C5 CB 28         [ 8] 5672 	sra	b
   20C7 CB 19         [ 8] 5673 	rr	c
   20C9 CB 28         [ 8] 5674 	sra	b
   20CB CB 19         [ 8] 5675 	rr	c
   20CD 21r23r00      [10] 5676 	ld	hl,#_cx2 + 0
   20D0 71            [ 7] 5677 	ld	(hl), c
   20D1 21r22r00      [10] 5678 	ld	hl,#_cx1 + 0
   20D4 71            [ 7] 5679 	ld	(hl), c
                           5680 ;engine/../engine/enemmods/enem_homing_fanty.h:59: rda = ((cx1 + 1) << 4) - 4;
   20D5 3Ar22r00      [13] 5681 	ld	a,(#_cx1 + 0)
   20D8 3C            [ 4] 5682 	inc	a
   20D9 07            [ 4] 5683 	rlca
   20DA 07            [ 4] 5684 	rlca
   20DB 07            [ 4] 5685 	rlca
   20DC 07            [ 4] 5686 	rlca
   20DD E6 F0         [ 7] 5687 	and	a,#0xF0
   20DF 21r18r00      [10] 5688 	ld	hl,#_rda
   20E2 C6 FC         [ 7] 5689 	add	a,#0xFC
   20E4 77            [ 7] 5690 	ld	(hl),a
   20E5                    5691 00150$:
                           5692 ;engine/../engine/enemmods/enem_homing_fanty.h:61: cm_two_points ();
   20E5 CDrE6r06      [17] 5693 	call	_cm_two_points
                           5694 ;engine/../engine/enemmods/enem_homing_fanty.h:62: if ((at1 & 8) || (at2 & 8)) {
   20E8 21r20r00      [10] 5695 	ld	hl,#_at1+0
   20EB CB 5E         [12] 5696 	bit	3, (hl)
   20ED 20 07         [12] 5697 	jr	NZ,00151$
   20EF 21r21r00      [10] 5698 	ld	hl,#_at2+0
   20F2 CB 5E         [12] 5699 	bit	3, (hl)
   20F4 28 2F         [12] 5700 	jr	Z,00155$
   20F6                    5701 00151$:
                           5702 ;engine/../engine/enemmods/enem_homing_fanty.h:63: _enf_vx = -_enf_vx;
   20F6 AF            [ 4] 5703 	xor	a, a
   20F7 FD 21r43r00   [14] 5704 	ld	iy,#__enf_vx
   20FB FD 96 00      [19] 5705 	sub	a, 0 (iy)
   20FE 32r43r00      [13] 5706 	ld	(#__enf_vx + 0),a
   2101 3E 00         [ 7] 5707 	ld	a, #0x00
   2103 FD 21r43r00   [14] 5708 	ld	iy,#__enf_vx
   2107 FD 9E 01      [19] 5709 	sbc	a, 1 (iy)
   210A 32r44r00      [13] 5710 	ld	(#__enf_vx + 1),a
                           5711 ;engine/../engine/enemmods/enem_homing_fanty.h:64: _en_x = rda; 
   210D 3Ar18r00      [13] 5712 	ld	a,(#_rda + 0)
   2110 32r34r00      [13] 5713 	ld	(#__en_x + 0),a
                           5714 ;engine/../engine/enemmods/enem_homing_fanty.h:65: _enf_x = rda << FIXBITS;
   2113 FD 21r18r00   [14] 5715 	ld	iy,#_rda
   2117 FD 6E 00      [19] 5716 	ld	l,0 (iy)
   211A 26 00         [ 7] 5717 	ld	h,#0x00
   211C 29            [11] 5718 	add	hl, hl
   211D 29            [11] 5719 	add	hl, hl
   211E 29            [11] 5720 	add	hl, hl
   211F 29            [11] 5721 	add	hl, hl
   2120 29            [11] 5722 	add	hl, hl
   2121 29            [11] 5723 	add	hl, hl
   2122 22r3Fr00      [16] 5724 	ld	(__enf_x),hl
   2125                    5725 00155$:
                           5726 ;engine/../engine/enemmods/enem_homing_fanty.h:73: _enf_y += _enf_vy; 
   2125 21r45r00      [10] 5727 	ld	hl,#__enf_vy
   2128 D5            [11] 5728 	push	de
   2129 FD 21r41r00   [14] 5729 	ld	iy,#__enf_y
   212D FD E5         [15] 5730 	push	iy
   212F D1            [10] 5731 	pop	de
   2130 1A            [ 7] 5732 	ld	a,(de)
   2131 86            [ 7] 5733 	add	a, (hl)
   2132 12            [ 7] 5734 	ld	(de),a
   2133 13            [ 6] 5735 	inc	de
   2134 1A            [ 7] 5736 	ld	a,(de)
   2135 23            [ 6] 5737 	inc	hl
   2136 8E            [ 7] 5738 	adc	a, (hl)
   2137 12            [ 7] 5739 	ld	(de),a
   2138 D1            [10] 5740 	pop	de
                           5741 ;engine/../engine/enemmods/enem_homing_fanty.h:74: if (_enf_y < 0) _enf_y = 0;
   2139 3Ar42r00      [13] 5742 	ld	a,(#__enf_y + 1)
   213C CB 7F         [ 8] 5743 	bit	7,a
   213E 28 06         [12] 5744 	jr	Z,00157$
   2140 21 00 00      [10] 5745 	ld	hl,#0x0000
   2143 22r41r00      [16] 5746 	ld	(__enf_y),hl
   2146                    5747 00157$:
                           5748 ;engine/../engine/enemmods/enem_homing_fanty.h:75: if (_enf_y > 11264) _enf_y = 11264;
   2146 AF            [ 4] 5749 	xor	a, a
   2147 FD 21r41r00   [14] 5750 	ld	iy,#__enf_y
   214B FD BE 00      [19] 5751 	cp	a, 0 (iy)
   214E 3E 2C         [ 7] 5752 	ld	a,#0x2C
   2150 FD 21r41r00   [14] 5753 	ld	iy,#__enf_y
   2154 FD 9E 01      [19] 5754 	sbc	a, 1 (iy)
   2157 E2r5Cr21      [10] 5755 	jp	PO, 00615$
   215A EE 80         [ 7] 5756 	xor	a, #0x80
   215C                    5757 00615$:
   215C F2r65r21      [10] 5758 	jp	P,00159$
   215F 21 00 2C      [10] 5759 	ld	hl,#0x2C00
   2162 22r41r00      [16] 5760 	ld	(__enf_y),hl
   2165                    5761 00159$:
                           5762 ;engine/../engine/enemmods/enem_homing_fanty.h:76: _en_y = _enf_y >> 6;
   2165 2Ar41r00      [16] 5763 	ld	hl,(__enf_y)
   2168 CB 2C         [ 8] 5764 	sra	h
   216A CB 1D         [ 8] 5765 	rr	l
   216C CB 2C         [ 8] 5766 	sra	h
   216E CB 1D         [ 8] 5767 	rr	l
   2170 CB 2C         [ 8] 5768 	sra	h
   2172 CB 1D         [ 8] 5769 	rr	l
   2174 CB 2C         [ 8] 5770 	sra	h
   2176 CB 1D         [ 8] 5771 	rr	l
   2178 CB 2C         [ 8] 5772 	sra	h
   217A CB 1D         [ 8] 5773 	rr	l
   217C CB 2C         [ 8] 5774 	sra	h
   217E CB 1D         [ 8] 5775 	rr	l
   2180 FD 21r35r00   [14] 5776 	ld	iy,#__en_y
   2184 FD 75 00      [19] 5777 	ld	0 (iy),l
                           5778 ;engine/../engine/enemmods/enem_homing_fanty.h:80: if (_enf_vy) {
   2187 3Ar46r00      [13] 5779 	ld	a,(#__enf_vy + 1)
   218A 21r45r00      [10] 5780 	ld	hl,#__enf_vy + 0
   218D B6            [ 7] 5781 	or	a,(hl)
   218E CAr9Dr22      [10] 5782 	jp	Z,00167$
                           5783 ;engine/../engine/enemmods/enem_homing_fanty.h:81: cx1 = (_en_x + 4) >> 4;
   2191 21r34r00      [10] 5784 	ld	hl,#__en_x + 0
   2194 5E            [ 7] 5785 	ld	e, (hl)
   2195 16 00         [ 7] 5786 	ld	d,#0x00
   2197 21 04 00      [10] 5787 	ld	hl,#0x0004
   219A 19            [11] 5788 	add	hl,de
   219B CB 2C         [ 8] 5789 	sra	h
   219D CB 1D         [ 8] 5790 	rr	l
   219F CB 2C         [ 8] 5791 	sra	h
   21A1 CB 1D         [ 8] 5792 	rr	l
   21A3 CB 2C         [ 8] 5793 	sra	h
   21A5 CB 1D         [ 8] 5794 	rr	l
   21A7 CB 2C         [ 8] 5795 	sra	h
   21A9 CB 1D         [ 8] 5796 	rr	l
   21AB FD 21r22r00   [14] 5797 	ld	iy,#_cx1
   21AF FD 75 00      [19] 5798 	ld	0 (iy),l
                           5799 ;engine/../engine/enemmods/enem_homing_fanty.h:82: cx2 = (_en_x + 11) >> 4;
   21B2 21 0B 00      [10] 5800 	ld	hl,#0x000B
   21B5 19            [11] 5801 	add	hl,de
   21B6 CB 2C         [ 8] 5802 	sra	h
   21B8 CB 1D         [ 8] 5803 	rr	l
   21BA CB 2C         [ 8] 5804 	sra	h
   21BC CB 1D         [ 8] 5805 	rr	l
   21BE CB 2C         [ 8] 5806 	sra	h
   21C0 CB 1D         [ 8] 5807 	rr	l
   21C2 CB 2C         [ 8] 5808 	sra	h
   21C4 CB 1D         [ 8] 5809 	rr	l
   21C6 FD 21r23r00   [14] 5810 	ld	iy,#_cx2
   21CA FD 75 00      [19] 5811 	ld	0 (iy),l
                           5812 ;engine/../engine/enemmods/enem_homing_fanty.h:35: _enf_y = _en_y << FIXBITS;
   21CD FD 21r35r00   [14] 5813 	ld	iy,#__en_y
   21D1 FD 4E 00      [19] 5814 	ld	c,0 (iy)
   21D4 06 00         [ 7] 5815 	ld	b,#0x00
                           5816 ;engine/../engine/enemmods/enem_homing_fanty.h:84: if (_enf_vy > 0) {
   21D6 AF            [ 4] 5817 	xor	a, a
   21D7 FD 21r45r00   [14] 5818 	ld	iy,#__enf_vy
   21DB FD BE 00      [19] 5819 	cp	a, 0 (iy)
   21DE FD 21r45r00   [14] 5820 	ld	iy,#__enf_vy
   21E2 FD 9E 01      [19] 5821 	sbc	a, 1 (iy)
   21E5 E2rEAr21      [10] 5822 	jp	PO, 00616$
   21E8 EE 80         [ 7] 5823 	xor	a, #0x80
   21EA                    5824 00616$:
   21EA F2r20r22      [10] 5825 	jp	P,00161$
                           5826 ;engine/../engine/enemmods/enem_homing_fanty.h:85: rdb = 12;
   21ED 21r19r00      [10] 5827 	ld	hl,#_rdb + 0
   21F0 36 0C         [10] 5828 	ld	(hl), #0x0C
                           5829 ;engine/../engine/enemmods/enem_homing_fanty.h:86: cy1 = cy2 = (_en_y + 11) >> 4;
   21F2 21 0B 00      [10] 5830 	ld	hl,#0x000B
   21F5 09            [11] 5831 	add	hl,bc
   21F6 CB 2C         [ 8] 5832 	sra	h
   21F8 CB 1D         [ 8] 5833 	rr	l
   21FA CB 2C         [ 8] 5834 	sra	h
   21FC CB 1D         [ 8] 5835 	rr	l
   21FE CB 2C         [ 8] 5836 	sra	h
   2200 CB 1D         [ 8] 5837 	rr	l
   2202 CB 2C         [ 8] 5838 	sra	h
   2204 CB 1D         [ 8] 5839 	rr	l
   2206 7D            [ 4] 5840 	ld	a,l
   2207 32r25r00      [13] 5841 	ld	(#_cy2 + 0),a
   220A 32r24r00      [13] 5842 	ld	(#_cy1 + 0),a
                           5843 ;engine/../engine/enemmods/enem_homing_fanty.h:87: rda = ((cy2 - 1) << 4) + 4;
   220D 3Ar25r00      [13] 5844 	ld	a,(#_cy2 + 0)
   2210 C6 FF         [ 7] 5845 	add	a,#0xFF
   2212 07            [ 4] 5846 	rlca
   2213 07            [ 4] 5847 	rlca
   2214 07            [ 4] 5848 	rlca
   2215 07            [ 4] 5849 	rlca
   2216 E6 F0         [ 7] 5850 	and	a,#0xF0
   2218 21r18r00      [10] 5851 	ld	hl,#_rda
   221B C6 04         [ 7] 5852 	add	a, #0x04
   221D 77            [ 7] 5853 	ld	(hl),a
   221E 18 31         [12] 5854 	jr	00162$
   2220                    5855 00161$:
                           5856 ;engine/../engine/enemmods/enem_homing_fanty.h:89: rdb = 8;
   2220 21r19r00      [10] 5857 	ld	hl,#_rdb + 0
   2223 36 08         [10] 5858 	ld	(hl), #0x08
                           5859 ;engine/../engine/enemmods/enem_homing_fanty.h:90: cy1 = cy2 = (_en_y + 4) >> 4;
   2225 03            [ 6] 5860 	inc	bc
   2226 03            [ 6] 5861 	inc	bc
   2227 03            [ 6] 5862 	inc	bc
   2228 03            [ 6] 5863 	inc	bc
   2229 CB 28         [ 8] 5864 	sra	b
   222B CB 19         [ 8] 5865 	rr	c
   222D CB 28         [ 8] 5866 	sra	b
   222F CB 19         [ 8] 5867 	rr	c
   2231 CB 28         [ 8] 5868 	sra	b
   2233 CB 19         [ 8] 5869 	rr	c
   2235 CB 28         [ 8] 5870 	sra	b
   2237 CB 19         [ 8] 5871 	rr	c
   2239 21r25r00      [10] 5872 	ld	hl,#_cy2 + 0
   223C 71            [ 7] 5873 	ld	(hl), c
   223D 21r24r00      [10] 5874 	ld	hl,#_cy1 + 0
   2240 71            [ 7] 5875 	ld	(hl), c
                           5876 ;engine/../engine/enemmods/enem_homing_fanty.h:91: rda = ((cy1 + 1) << 4) - 4;
   2241 3Ar24r00      [13] 5877 	ld	a,(#_cy1 + 0)
   2244 3C            [ 4] 5878 	inc	a
   2245 07            [ 4] 5879 	rlca
   2246 07            [ 4] 5880 	rlca
   2247 07            [ 4] 5881 	rlca
   2248 07            [ 4] 5882 	rlca
   2249 E6 F0         [ 7] 5883 	and	a,#0xF0
   224B 21r18r00      [10] 5884 	ld	hl,#_rda
   224E C6 FC         [ 7] 5885 	add	a,#0xFC
   2250 77            [ 7] 5886 	ld	(hl),a
   2251                    5887 00162$:
                           5888 ;engine/../engine/enemmods/enem_homing_fanty.h:94: cm_two_points ();
   2251 CDrE6r06      [17] 5889 	call	_cm_two_points
                           5890 ;engine/../engine/enemmods/enem_homing_fanty.h:95: if ((at1 & rdb) || (at2 & rdb)) {
   2254 3Ar20r00      [13] 5891 	ld	a,(#_at1 + 0)
   2257 FD 21r19r00   [14] 5892 	ld	iy,#_rdb
   225B FD A6 00      [19] 5893 	and	a, 0 (iy)
   225E B7            [ 4] 5894 	or	a, a
   225F 20 0D         [12] 5895 	jr	NZ,00163$
   2261 3Ar21r00      [13] 5896 	ld	a,(#_at2 + 0)
   2264 FD 21r19r00   [14] 5897 	ld	iy,#_rdb
   2268 FD A6 00      [19] 5898 	and	a, 0 (iy)
   226B B7            [ 4] 5899 	or	a, a
   226C 28 2F         [12] 5900 	jr	Z,00167$
   226E                    5901 00163$:
                           5902 ;engine/../engine/enemmods/enem_homing_fanty.h:96: _enf_vy = -_enf_vy;
   226E AF            [ 4] 5903 	xor	a, a
   226F FD 21r45r00   [14] 5904 	ld	iy,#__enf_vy
   2273 FD 96 00      [19] 5905 	sub	a, 0 (iy)
   2276 32r45r00      [13] 5906 	ld	(#__enf_vy + 0),a
   2279 3E 00         [ 7] 5907 	ld	a, #0x00
   227B FD 21r45r00   [14] 5908 	ld	iy,#__enf_vy
   227F FD 9E 01      [19] 5909 	sbc	a, 1 (iy)
   2282 32r46r00      [13] 5910 	ld	(#__enf_vy + 1),a
                           5911 ;engine/../engine/enemmods/enem_homing_fanty.h:97: _en_y = rda;
   2285 3Ar18r00      [13] 5912 	ld	a,(#_rda + 0)
   2288 32r35r00      [13] 5913 	ld	(#__en_y + 0),a
                           5914 ;engine/../engine/enemmods/enem_homing_fanty.h:98: _enf_y = rda << FIXBITS;
   228B FD 21r18r00   [14] 5915 	ld	iy,#_rda
   228F FD 6E 00      [19] 5916 	ld	l,0 (iy)
   2292 26 00         [ 7] 5917 	ld	h,#0x00
   2294 29            [11] 5918 	add	hl, hl
   2295 29            [11] 5919 	add	hl, hl
   2296 29            [11] 5920 	add	hl, hl
   2297 29            [11] 5921 	add	hl, hl
   2298 29            [11] 5922 	add	hl, hl
   2299 29            [11] 5923 	add	hl, hl
   229A 22r41r00      [16] 5924 	ld	(__enf_y),hl
   229D                    5925 00167$:
                           5926 ;engine/../engine/enemmods/enem_homing_fanty.h:105: cx1 = (_en_x + 8) >> 4;
   229D FD 21r34r00   [14] 5927 	ld	iy,#__en_x
   22A1 FD 6E 00      [19] 5928 	ld	l,0 (iy)
   22A4 26 00         [ 7] 5929 	ld	h,#0x00
   22A6 01 08 00      [10] 5930 	ld	bc,#0x0008
   22A9 09            [11] 5931 	add	hl,bc
   22AA CB 2C         [ 8] 5932 	sra	h
   22AC CB 1D         [ 8] 5933 	rr	l
   22AE CB 2C         [ 8] 5934 	sra	h
   22B0 CB 1D         [ 8] 5935 	rr	l
   22B2 CB 2C         [ 8] 5936 	sra	h
   22B4 CB 1D         [ 8] 5937 	rr	l
   22B6 CB 2C         [ 8] 5938 	sra	h
   22B8 CB 1D         [ 8] 5939 	rr	l
   22BA FD 21r22r00   [14] 5940 	ld	iy,#_cx1
   22BE FD 75 00      [19] 5941 	ld	0 (iy),l
                           5942 ;engine/../engine/enemmods/enem_homing_fanty.h:106: cy1 = (_en_y + 8) >> 4;
   22C1 FD 21r35r00   [14] 5943 	ld	iy,#__en_y
   22C5 FD 6E 00      [19] 5944 	ld	l,0 (iy)
   22C8 26 00         [ 7] 5945 	ld	h,#0x00
   22CA 01 08 00      [10] 5946 	ld	bc,#0x0008
   22CD 09            [11] 5947 	add	hl,bc
   22CE CB 2C         [ 8] 5948 	sra	h
   22D0 CB 1D         [ 8] 5949 	rr	l
   22D2 CB 2C         [ 8] 5950 	sra	h
   22D4 CB 1D         [ 8] 5951 	rr	l
   22D6 CB 2C         [ 8] 5952 	sra	h
   22D8 CB 1D         [ 8] 5953 	rr	l
   22DA CB 2C         [ 8] 5954 	sra	h
   22DC CB 1D         [ 8] 5955 	rr	l
   22DE FD 21r24r00   [14] 5956 	ld	iy,#_cy1
   22E2 FD 75 00      [19] 5957 	ld	0 (iy),l
                           5958 ;engine/../engine/enemmods/enem_homing_fanty.h:107: cm_two_points ();
   22E5 CDrE6r06      [17] 5959 	call	_cm_two_points
                           5960 ;engine/../engine/enemmods/enem_homing_fanty.h:108: if (at1 & 1) {
   22E8 21r20r00      [10] 5961 	ld	hl,#_at1+0
   22EB CB 46         [12] 5962 	bit	0, (hl)
   22ED 28 11         [12] 5963 	jr	Z,00169$
                           5964 ;engine/../engine/enemmods/enem_homing_fanty.h:109: en_cttouched [gpit] = 8;
   22EF 3Er23         [ 7] 5965 	ld	a,#<(_en_cttouched)
   22F1 21r08r00      [10] 5966 	ld	hl,#_gpit
   22F4 86            [ 7] 5967 	add	a, (hl)
   22F5 6F            [ 4] 5968 	ld	l, a
   22F6 3Es02         [ 7] 5969 	ld	a, #>(_en_cttouched)
   22F8 CE 00         [ 7] 5970 	adc	a, #0x00
   22FA 67            [ 4] 5971 	ld	h, a
   22FB 36 08         [10] 5972 	ld	(hl),#0x08
                           5973 ;engine/../engine/enemmods/enem_homing_fanty.h:110: enems_kill ();
   22FD CDrCEr19      [17] 5974 	call	_enems_kill
   2300                    5975 00169$:
                           5976 ;engine/../engine/enemmods/enem_homing_fanty.h:117: en_fr = (_en_x >> 3) & 1;
   2300 3Ar34r00      [13] 5977 	ld	a,(#__en_x + 0)
   2303 0F            [ 4] 5978 	rrca
   2304 0F            [ 4] 5979 	rrca
   2305 0F            [ 4] 5980 	rrca
   2306 E6 1F         [ 7] 5981 	and	a,#0x1F
   2308 E6 01         [ 7] 5982 	and	a, #0x01
   230A 32r2Br00      [13] 5983 	ld	(#_en_fr + 0),a
                           5984 ;engine/../engine/enemmods/enem_homing_fanty.h:122: rda = (prx < _en_x); enems_facing ();
   230D 21r34r00      [10] 5985 	ld	hl,#__en_x
   2310 D5            [11] 5986 	push	de
   2311 FD 21r18r00   [14] 5987 	ld	iy,#_rda
   2315 FD E5         [15] 5988 	push	iy
   2317 D1            [10] 5989 	pop	de
   2318 3Ar52r00      [13] 5990 	ld	a,(#_prx + 0)
   231B 96            [ 7] 5991 	sub	a, (hl)
   231C 3E 00         [ 7] 5992 	ld	a,#0x00
   231E 17            [ 4] 5993 	rla
   231F 12            [ 7] 5994 	ld	(de),a
   2320 D1            [10] 5995 	pop	de
   2321 CDr38r17      [17] 5996 	call	_enems_facing
                           5997 ;engine/../engine/enemmods/enem_homing_fanty.h:123: en_spr = _en_s + en_fr + _en_facing;
   2324 21r2Br00      [10] 5998 	ld	hl,#_en_fr
   2327 3Ar33r00      [13] 5999 	ld	a,(#__en_s + 0)
   232A 86            [ 7] 6000 	add	a, (hl)
   232B 21r3Dr00      [10] 6001 	ld	hl,#__en_facing
   232E FD 21r2Er00   [14] 6002 	ld	iy,#_en_spr
   2332 86            [ 7] 6003 	add	a, (hl)
   2333 FD 77 00      [19] 6004 	ld	0 (iy),a
                           6005 ;engine/enengine.h:543: }
   2336                    6006 00170$:
                           6007 ;engine/enengine.h:547: en_spr_id [gpit] = en_spr;
   2336 3Er48         [ 7] 6008 	ld	a,#<(_en_spr_id)
   2338 21r08r00      [10] 6009 	ld	hl,#_gpit
   233B 86            [ 7] 6010 	add	a, (hl)
   233C 5F            [ 4] 6011 	ld	e,a
   233D 3Es02         [ 7] 6012 	ld	a,#>(_en_spr_id)
   233F CE 00         [ 7] 6013 	adc	a, #0x00
   2341 57            [ 4] 6014 	ld	d,a
   2342 3Ar2Er00      [13] 6015 	ld	a,(#_en_spr + 0)
   2345 12            [ 7] 6016 	ld	(de),a
   2346                    6017 00173$:
                           6018 ;engine/enengine.h:446: ) {
   2346 3Ar32r00      [13] 6019 	ld	a,(#__en_t + 0)
   2349 D6 04         [ 7] 6020 	sub	a, #0x04
   234B 20 04         [12] 6021 	jr	NZ,00618$
   234D 3E 01         [ 7] 6022 	ld	a,#0x01
   234F 18 01         [12] 6023 	jr	00619$
   2351                    6024 00618$:
   2351 AF            [ 4] 6025 	xor	a,a
   2352                    6026 00619$:
   2352 DD 77 FA      [19] 6027 	ld	-6 (ix),a
                           6028 ;engine/../engine/enemmods/enem_homing_fanty.h:35: _enf_y = _en_y << FIXBITS;
   2355 21r35r00      [10] 6029 	ld	hl,#__en_y + 0
   2358 46            [ 7] 6030 	ld	b, (hl)
   2359 1E 00         [ 7] 6031 	ld	e,#0x00
                           6032 ;engine/enengine.h:584: if (_en_t == 4 && pregotten && !pgotten && !pj) {
   235B DD 7E FA      [19] 6033 	ld	a,-6 (ix)
   235E B7            [ 4] 6034 	or	a, a
   235F CAr35r25      [10] 6035 	jp	Z,00188$
   2362 3Ar31r00      [13] 6036 	ld	a,(#_pregotten + 0)
   2365 B7            [ 4] 6037 	or	a, a
   2366 CAr35r25      [10] 6038 	jp	Z,00188$
   2369 3Ar5Dr00      [13] 6039 	ld	a,(#_pgotten + 0)
   236C B7            [ 4] 6040 	or	a, a
   236D C2r35r25      [10] 6041 	jp	NZ,00188$
   2370 3Ar5Br00      [13] 6042 	ld	a,(#_pj + 0)
   2373 B7            [ 4] 6043 	or	a, a
   2374 C2r35r25      [10] 6044 	jp	NZ,00188$
                           6045 ;engine/../engine/enemmods/enem_linear.h:11: if (!en_status [gpit] || half_life) {
   2377 3Er29         [ 7] 6046 	ld	a,#<(_en_status)
   2379 21r08r00      [10] 6047 	ld	hl,#_gpit
   237C 86            [ 7] 6048 	add	a, (hl)
   237D DD 77 FC      [19] 6049 	ld	-4 (ix),a
   2380 3Es02         [ 7] 6050 	ld	a,#>(_en_status)
   2382 CE 00         [ 7] 6051 	adc	a, #0x00
   2384 DD 77 FD      [19] 6052 	ld	-3 (ix),a
                           6053 ;engine/enengine.h:592: py = (_en_y - 16) << 6; pry = py >> 6;
   2387 78            [ 4] 6054 	ld	a,b
   2388 C6 F0         [ 7] 6055 	add	a,#0xF0
   238A 6F            [ 4] 6056 	ld	l,a
   238B 7B            [ 4] 6057 	ld	a,e
   238C CE FF         [ 7] 6058 	adc	a,#0xFF
   238E 67            [ 4] 6059 	ld	h,a
   238F 29            [11] 6060 	add	hl, hl
   2390 29            [11] 6061 	add	hl, hl
   2391 29            [11] 6062 	add	hl, hl
   2392 29            [11] 6063 	add	hl, hl
   2393 29            [11] 6064 	add	hl, hl
   2394 29            [11] 6065 	add	hl, hl
   2395 DD 75 FE      [19] 6066 	ld	-2 (ix),l
   2398 DD 74 FF      [19] 6067 	ld	-1 (ix),h
                           6068 ;engine/enengine.h:588: if (_en_mx) {
   239B 3Ar3Ar00      [13] 6069 	ld	a,(#__en_mx + 0)
   239E B7            [ 4] 6070 	or	a, a
   239F CAr3Cr24      [10] 6071 	jp	Z,00179$
                           6072 ;engine/enengine.h:589: if (pry + 16 >= _en_y && pry + 12 <= _en_y) {
   23A2 FD 21r53r00   [14] 6073 	ld	iy,#_pry
   23A6 FD 6E 00      [19] 6074 	ld	l,0 (iy)
   23A9 26 00         [ 7] 6075 	ld	h,#0x00
   23AB 7D            [ 4] 6076 	ld	a,l
   23AC C6 10         [ 7] 6077 	add	a, #0x10
   23AE 57            [ 4] 6078 	ld	d,a
   23AF 7C            [ 4] 6079 	ld	a,h
   23B0 CE 00         [ 7] 6080 	adc	a, #0x00
   23B2 4F            [ 4] 6081 	ld	c,a
   23B3 7A            [ 4] 6082 	ld	a,d
   23B4 90            [ 4] 6083 	sub	a, b
   23B5 79            [ 4] 6084 	ld	a,c
   23B6 9B            [ 4] 6085 	sbc	a, e
   23B7 E2rBCr23      [10] 6086 	jp	PO, 00620$
   23BA EE 80         [ 7] 6087 	xor	a, #0x80
   23BC                    6088 00620$:
   23BC FAr3Cr24      [10] 6089 	jp	M,00179$
   23BF D5            [11] 6090 	push	de
   23C0 11 0C 00      [10] 6091 	ld	de,#0x000C
   23C3 19            [11] 6092 	add	hl, de
   23C4 D1            [10] 6093 	pop	de
   23C5 78            [ 4] 6094 	ld	a,b
   23C6 95            [ 4] 6095 	sub	a, l
   23C7 7B            [ 4] 6096 	ld	a,e
   23C8 9C            [ 4] 6097 	sbc	a, h
   23C9 E2rCEr23      [10] 6098 	jp	PO, 00621$
   23CC EE 80         [ 7] 6099 	xor	a, #0x80
   23CE                    6100 00621$:
   23CE FAr3Cr24      [10] 6101 	jp	M,00179$
                           6102 ;engine/enengine.h:590: pgotten = 1;
   23D1 21r5Dr00      [10] 6103 	ld	hl,#_pgotten + 0
   23D4 36 01         [10] 6104 	ld	(hl), #0x01
                           6105 ;engine/enengine.h:591: pgtmx = _en_mx << (6 - en_status [gpit]);
   23D6 21r3Ar00      [10] 6106 	ld	hl,#__en_mx + 0
   23D9 56            [ 7] 6107 	ld	d, (hl)
   23DA 3Ar3Ar00      [13] 6108 	ld	a,(#__en_mx + 0)
   23DD 17            [ 4] 6109 	rla
   23DE 9F            [ 4] 6110 	sbc	a, a
   23DF 4F            [ 4] 6111 	ld	c,a
   23E0 DD 6E FC      [19] 6112 	ld	l,-4 (ix)
   23E3 DD 66 FD      [19] 6113 	ld	h,-3 (ix)
   23E6 66            [ 7] 6114 	ld	h,(hl)
   23E7 2E 00         [ 7] 6115 	ld	l,#0x00
   23E9 3E 06         [ 7] 6116 	ld	a,#0x06
   23EB 94            [ 4] 6117 	sub	a, h
   23EC 67            [ 4] 6118 	ld	h,a
   23ED 3E 00         [ 7] 6119 	ld	a,#0x00
   23EF 9D            [ 4] 6120 	sbc	a, l
   23F0 7C            [ 4] 6121 	ld	a,h
   23F1 F5            [11] 6122 	push	af
   23F2 21r63r00      [10] 6123 	ld	hl,#_pgtmx + 0
   23F5 72            [ 7] 6124 	ld	(hl), d
   23F6 21r64r00      [10] 6125 	ld	hl,#_pgtmx + 1
   23F9 71            [ 7] 6126 	ld	(hl), c
   23FA F1            [10] 6127 	pop	af
   23FB 3C            [ 4] 6128 	inc	a
   23FC 18 10         [12] 6129 	jr	00623$
   23FE                    6130 00622$:
   23FE FD 21r63r00   [14] 6131 	ld	iy,#_pgtmx
   2402 FD CB 00 26   [23] 6132 	sla	0 (iy)
   2406 FD 21r63r00   [14] 6133 	ld	iy,#_pgtmx
   240A FD CB 01 16   [23] 6134 	rl	1 (iy)
   240E                    6135 00623$:
   240E 3D            [ 4] 6136 	dec	a
   240F 20 ED         [12] 6137 	jr	NZ,00622$
                           6138 ;engine/enengine.h:592: py = (_en_y - 16) << 6; pry = py >> 6;
   2411 DD 6E FE      [19] 6139 	ld	l,-2 (ix)
   2414 DD 66 FF      [19] 6140 	ld	h,-1 (ix)
   2417 22r4Cr00      [16] 6141 	ld	(_py),hl
   241A 2Ar4Cr00      [16] 6142 	ld	hl,(_py)
   241D CB 2C         [ 8] 6143 	sra	h
   241F CB 1D         [ 8] 6144 	rr	l
   2421 CB 2C         [ 8] 6145 	sra	h
   2423 CB 1D         [ 8] 6146 	rr	l
   2425 CB 2C         [ 8] 6147 	sra	h
   2427 CB 1D         [ 8] 6148 	rr	l
   2429 CB 2C         [ 8] 6149 	sra	h
   242B CB 1D         [ 8] 6150 	rr	l
   242D CB 2C         [ 8] 6151 	sra	h
   242F CB 1D         [ 8] 6152 	rr	l
   2431 CB 2C         [ 8] 6153 	sra	h
   2433 CB 1D         [ 8] 6154 	rr	l
   2435 FD 21r53r00   [14] 6155 	ld	iy,#_pry
   2439 FD 75 00      [19] 6156 	ld	0 (iy),l
   243C                    6157 00179$:
                           6158 ;engine/enengine.h:589: if (pry + 16 >= _en_y && pry + 12 <= _en_y) {
   243C 21r53r00      [10] 6159 	ld	hl,#_pry + 0
   243F 56            [ 7] 6160 	ld	d, (hl)
   2440 0E 00         [ 7] 6161 	ld	c,#0x00
                           6162 ;engine/enengine.h:600: (_en_my > 0 && pry + 16 + _en_my >= _en_y && pry + 12 <= _en_y)
   2442 3Ar3Br00      [13] 6163 	ld	a,(#__en_my + 0)
   2445 DD 77 F8      [19] 6164 	ld	-8 (ix),a
   2448 FD 21r3Br00   [14] 6165 	ld	iy,#__en_my
   244C FD 7E 00      [19] 6166 	ld	a,0 (iy)
   244F 17            [ 4] 6167 	rla
   2450 9F            [ 4] 6168 	sbc	a, a
   2451 DD 77 F9      [19] 6169 	ld	-7 (ix),a
                           6170 ;engine/enengine.h:599: (_en_my < 0 && pry + 17 >= _en_y && pry + 12 <= _en_y) ||
   2454 7A            [ 4] 6171 	ld	a,d
   2455 C6 0C         [ 7] 6172 	add	a, #0x0C
   2457 67            [ 4] 6173 	ld	h,a
   2458 79            [ 4] 6174 	ld	a,c
   2459 CE 00         [ 7] 6175 	adc	a, #0x00
   245B 6F            [ 4] 6176 	ld	l,a
   245C 78            [ 4] 6177 	ld	a,b
   245D 94            [ 4] 6178 	sub	a, h
   245E 7B            [ 4] 6179 	ld	a,e
   245F 9D            [ 4] 6180 	sbc	a, l
   2460 E2r65r24      [10] 6181 	jp	PO, 00624$
   2463 EE 80         [ 7] 6182 	xor	a, #0x80
   2465                    6183 00624$:
   2465 07            [ 4] 6184 	rlca
   2466 E6 01         [ 7] 6185 	and	a,#0x01
   2468 DD 77 F7      [19] 6186 	ld	-9 (ix),a
   246B FD 21r3Br00   [14] 6187 	ld	iy,#__en_my
   246F FD CB 00 7E   [20] 6188 	bit	7,0 (iy)
   2473 28 1A         [12] 6189 	jr	Z,00186$
   2475 7A            [ 4] 6190 	ld	a,d
   2476 C6 11         [ 7] 6191 	add	a, #0x11
   2478 67            [ 4] 6192 	ld	h,a
   2479 79            [ 4] 6193 	ld	a,c
   247A CE 00         [ 7] 6194 	adc	a, #0x00
   247C 6F            [ 4] 6195 	ld	l,a
   247D 7C            [ 4] 6196 	ld	a,h
   247E 90            [ 4] 6197 	sub	a, b
   247F 7D            [ 4] 6198 	ld	a,l
   2480 9B            [ 4] 6199 	sbc	a, e
   2481 E2r86r24      [10] 6200 	jp	PO, 00625$
   2484 EE 80         [ 7] 6201 	xor	a, #0x80
   2486                    6202 00625$:
   2486 FAr8Fr24      [10] 6203 	jp	M,00186$
   2489 DD 7E F7      [19] 6204 	ld	a,-9 (ix)
   248C B7            [ 4] 6205 	or	a, a
   248D 28 34         [12] 6206 	jr	Z,00180$
   248F                    6207 00186$:
                           6208 ;engine/enengine.h:600: (_en_my > 0 && pry + 16 + _en_my >= _en_y && pry + 12 <= _en_y)
   248F AF            [ 4] 6209 	xor	a, a
   2490 FD 21r3Br00   [14] 6210 	ld	iy,#__en_my
   2494 FD 96 00      [19] 6211 	sub	a, 0 (iy)
   2497 E2r9Cr24      [10] 6212 	jp	PO, 00626$
   249A EE 80         [ 7] 6213 	xor	a, #0x80
   249C                    6214 00626$:
   249C F2r35r25      [10] 6215 	jp	P,00188$
   249F 7A            [ 4] 6216 	ld	a,d
   24A0 C6 10         [ 7] 6217 	add	a, #0x10
   24A2 6F            [ 4] 6218 	ld	l,a
   24A3 79            [ 4] 6219 	ld	a,c
   24A4 CE 00         [ 7] 6220 	adc	a, #0x00
   24A6 67            [ 4] 6221 	ld	h,a
   24A7 7D            [ 4] 6222 	ld	a,l
   24A8 DD 86 F8      [19] 6223 	add	a, -8 (ix)
   24AB 6F            [ 4] 6224 	ld	l,a
   24AC 7C            [ 4] 6225 	ld	a,h
   24AD DD 8E F9      [19] 6226 	adc	a, -7 (ix)
   24B0 67            [ 4] 6227 	ld	h,a
   24B1 7D            [ 4] 6228 	ld	a,l
   24B2 90            [ 4] 6229 	sub	a, b
   24B3 7C            [ 4] 6230 	ld	a,h
   24B4 9B            [ 4] 6231 	sbc	a, e
   24B5 E2rBAr24      [10] 6232 	jp	PO, 00627$
   24B8 EE 80         [ 7] 6233 	xor	a, #0x80
   24BA                    6234 00627$:
   24BA FAr35r25      [10] 6235 	jp	M,00188$
   24BD DD 7E F7      [19] 6236 	ld	a,-9 (ix)
   24C0 B7            [ 4] 6237 	or	a, a
   24C1 20 72         [12] 6238 	jr	NZ,00188$
   24C3                    6239 00180$:
                           6240 ;engine/enengine.h:602: pgotten = 1;
   24C3 21r5Dr00      [10] 6241 	ld	hl,#_pgotten + 0
   24C6 36 01         [10] 6242 	ld	(hl), #0x01
                           6243 ;engine/enengine.h:603: pgtmy = _en_my << (6 - en_status [gpit]);
   24C8 DD 6E FC      [19] 6244 	ld	l,-4 (ix)
   24CB DD 66 FD      [19] 6245 	ld	h,-3 (ix)
   24CE 6E            [ 7] 6246 	ld	l,(hl)
   24CF 26 00         [ 7] 6247 	ld	h,#0x00
   24D1 3E 06         [ 7] 6248 	ld	a,#0x06
   24D3 95            [ 4] 6249 	sub	a, l
   24D4 6F            [ 4] 6250 	ld	l,a
   24D5 3E 00         [ 7] 6251 	ld	a,#0x00
   24D7 9C            [ 4] 6252 	sbc	a, h
   24D8 F5            [11] 6253 	push	af
   24D9 DD 7E F8      [19] 6254 	ld	a,-8 (ix)
   24DC FD 21r65r00   [14] 6255 	ld	iy,#_pgtmy
   24E0 FD 77 00      [19] 6256 	ld	0 (iy),a
   24E3 DD 7E F9      [19] 6257 	ld	a,-7 (ix)
   24E6 FD 21r65r00   [14] 6258 	ld	iy,#_pgtmy
   24EA FD 77 01      [19] 6259 	ld	1 (iy),a
   24ED F1            [10] 6260 	pop	af
   24EE 2C            [ 4] 6261 	inc	l
   24EF 18 10         [12] 6262 	jr	00629$
   24F1                    6263 00628$:
   24F1 FD 21r65r00   [14] 6264 	ld	iy,#_pgtmy
   24F5 FD CB 00 26   [23] 6265 	sla	0 (iy)
   24F9 FD 21r65r00   [14] 6266 	ld	iy,#_pgtmy
   24FD FD CB 01 16   [23] 6267 	rl	1 (iy)
   2501                    6268 00629$:
   2501 2D            [ 4] 6269 	dec	l
   2502 20 ED         [12] 6270 	jr	NZ,00628$
                           6271 ;engine/enengine.h:604: py = (_en_y - 16) << 6; pry = py >> 6;
   2504 DD 6E FE      [19] 6272 	ld	l,-2 (ix)
   2507 DD 66 FF      [19] 6273 	ld	h,-1 (ix)
   250A 22r4Cr00      [16] 6274 	ld	(_py),hl
   250D 2Ar4Cr00      [16] 6275 	ld	hl,(_py)
   2510 CB 2C         [ 8] 6276 	sra	h
   2512 CB 1D         [ 8] 6277 	rr	l
   2514 CB 2C         [ 8] 6278 	sra	h
   2516 CB 1D         [ 8] 6279 	rr	l
   2518 CB 2C         [ 8] 6280 	sra	h
   251A CB 1D         [ 8] 6281 	rr	l
   251C CB 2C         [ 8] 6282 	sra	h
   251E CB 1D         [ 8] 6283 	rr	l
   2520 CB 2C         [ 8] 6284 	sra	h
   2522 CB 1D         [ 8] 6285 	rr	l
   2524 CB 2C         [ 8] 6286 	sra	h
   2526 CB 1D         [ 8] 6287 	rr	l
   2528 FD 21r53r00   [14] 6288 	ld	iy,#_pry
   252C FD 75 00      [19] 6289 	ld	0 (iy),l
                           6290 ;engine/enengine.h:605: pvy = 0;
   252F 21 00 00      [10] 6291 	ld	hl,#0x0000
   2532 22r50r00      [16] 6292 	ld	(_pvy),hl
   2535                    6293 00188$:
                           6294 ;engine/enengine.h:617: en_is_alive == 0	// General condition.
   2535 3Ar30r00      [13] 6295 	ld	a,(#_en_is_alive + 0)
   2538 B7            [ 4] 6296 	or	a, a
   2539 CArD9r26      [10] 6297 	jp	Z,00230$
                           6298 ;engine/enengine.h:619: || en_cttouched [gpit]
   253C FD 21r23r02   [14] 6299 	ld	iy,#_en_cttouched
   2540 C5            [11] 6300 	push	bc
   2541 ED 4Br08r00   [20] 6301 	ld	bc,(_gpit)
   2545 06 00         [ 7] 6302 	ld	b,#0x00
   2547 FD 09         [15] 6303 	add	iy, bc
   2549 C1            [10] 6304 	pop	bc
   254A FD 7E 00      [19] 6305 	ld	a, 0 (iy)
   254D B7            [ 4] 6306 	or	a, a
   254E C2rD9r26      [10] 6307 	jp	NZ,00230$
                           6308 ;engine/enengine.h:645: ) goto skipdo;
   2551 DD 7E FA      [19] 6309 	ld	a,-6 (ix)
   2554 B7            [ 4] 6310 	or	a, a
   2555 C2rD9r26      [10] 6311 	jp	NZ,00230$
                           6312 ;engine/enengine.h:589: if (pry + 16 >= _en_y && pry + 12 <= _en_y) {
   2558 3Ar53r00      [13] 6313 	ld	a,(#_pry + 0)
   255B DD 77 F8      [19] 6314 	ld	-8 (ix),a
   255E DD 36 F9 00   [19] 6315 	ld	-7 (ix),#0x00
                           6316 ;engine/enengine.h:653: pregotten && 
   2562 3Ar31r00      [13] 6317 	ld	a,(#_pregotten + 0)
   2565 B7            [ 4] 6318 	or	a, a
   2566 CAr2Er26      [10] 6319 	jp	Z,00216$
                           6320 ;engine/enengine.h:654: pry < _en_y && 
   2569 21r35r00      [10] 6321 	ld	hl,#__en_y
   256C FD 21r53r00   [14] 6322 	ld	iy,#_pry
   2570 FD 7E 00      [19] 6323 	ld	a,0 (iy)
   2573 96            [ 7] 6324 	sub	a, (hl)
   2574 D2r2Er26      [10] 6325 	jp	NC,00216$
                           6326 ;engine/enengine.h:655: pry + 15 + ENEMS_COLLISION_VSTRETCH_FG >= _en_y &&
   2577 DD 7E F8      [19] 6327 	ld	a,-8 (ix)
   257A C6 0D         [ 7] 6328 	add	a, #0x0D
   257C 67            [ 4] 6329 	ld	h,a
   257D DD 7E F9      [19] 6330 	ld	a,-7 (ix)
   2580 CE 00         [ 7] 6331 	adc	a, #0x00
   2582 6F            [ 4] 6332 	ld	l,a
   2583 7C            [ 4] 6333 	ld	a,h
   2584 90            [ 4] 6334 	sub	a, b
   2585 7D            [ 4] 6335 	ld	a,l
   2586 9B            [ 4] 6336 	sbc	a, e
   2587 E2r8Cr25      [10] 6337 	jp	PO, 00630$
   258A EE 80         [ 7] 6338 	xor	a, #0x80
   258C                    6339 00630$:
   258C FAr2Er26      [10] 6340 	jp	M,00216$
                           6341 ;engine/enengine.h:656: pgotten == 0 &&	ppossee == 0
   258F 3Ar5Dr00      [13] 6342 	ld	a,(#_pgotten + 0)
   2592 B7            [ 4] 6343 	or	a, a
   2593 C2r2Er26      [10] 6344 	jp	NZ,00216$
   2596 3Ar5Er00      [13] 6345 	ld	a,(#_ppossee + 0)
   2599 B7            [ 4] 6346 	or	a, a
   259A C2r2Er26      [10] 6347 	jp	NZ,00216$
                           6348 ;engine/enengine.h:669: ) {
   259D 3E 20         [ 7] 6349 	ld	a,#0x20
   259F FD 21r50r00   [14] 6350 	ld	iy,#_pvy
   25A3 FD BE 00      [19] 6351 	cp	a, 0 (iy)
   25A6 3E 00         [ 7] 6352 	ld	a,#0x00
   25A8 FD 21r50r00   [14] 6353 	ld	iy,#_pvy
   25AC FD 9E 01      [19] 6354 	sbc	a, 1 (iy)
   25AF E2rB4r25      [10] 6355 	jp	PO, 00631$
   25B2 EE 80         [ 7] 6356 	xor	a, #0x80
   25B4                    6357 00631$:
   25B4 F2r2Er26      [10] 6358 	jp	P,00216$
                           6359 ;engine/enengine.h:672: if (res_on || res_disable)
   25B7 3ArB7r02      [13] 6360 	ld	a,(#_res_on + 0)
   25BA B7            [ 4] 6361 	or	a, a
   25BB 20 06         [12] 6362 	jr	NZ,00196$
   25BD 3ArB6r02      [13] 6363 	ld	a,(#_res_disable + 0)
   25C0 B7            [ 4] 6364 	or	a, a
   25C1 28 03         [12] 6365 	jr	Z,00197$
   25C3                    6366 00196$:
                           6367 ;engine/enengine.h:677: enems_hit ();
   25C3 CDrEFr19      [17] 6368 	call	_enems_hit
   25C6                    6369 00197$:
                           6370 ;engine/enengine.h:680: if (_en_my < 0) _en_my = -_en_my;
   25C6 3Ar3Br00      [13] 6371 	ld	a,(#__en_my + 0)
   25C9 CB 7F         [ 8] 6372 	bit	7,a
   25CB 28 0B         [12] 6373 	jr	Z,00200$
   25CD AF            [ 4] 6374 	xor	a, a
   25CE FD 21r3Br00   [14] 6375 	ld	iy,#__en_my
   25D2 FD 96 00      [19] 6376 	sub	a, 0 (iy)
   25D5 32r3Br00      [13] 6377 	ld	(#__en_my + 0),a
   25D8                    6378 00200$:
                           6379 ;engine/enengine.h:684: if (pad0 & PAD_A) {
   25D8 21r04r00      [10] 6380 	ld	hl,#_pad0+0
   25DB CB 6E         [12] 6381 	bit	5, (hl)
   25DD 28 05         [12] 6382 	jr	Z,00202$
                           6383 ;engine/enengine.h:685: jump_start ();
   25DF CDr0Cr08      [17] 6384 	call	_jump_start
   25E2 18 06         [12] 6385 	jr	00203$
   25E4                    6386 00202$:
                           6387 ;engine/enengine.h:689: pvy = -PLAYER_VY_JUMP_INITIAL << 1;
   25E4 21 80 FF      [10] 6388 	ld	hl,#0xFF80
   25E7 22r50r00      [16] 6389 	ld	(_pvy),hl
   25EA                    6390 00203$:
                           6391 ;engine/enengine.h:697: if (pry > _en_y - ENEMS_UPPER_COLLISION_BOUND) { pry = _en_y - ENEMS_UPPER_COLLISION_BOUND; py = pry << FIXBITS; }
   25EA 3Ar35r00      [13] 6392 	ld	a,(#__en_y + 0)
   25ED 2E 00         [ 7] 6393 	ld	l, #0x00
   25EF C6 F4         [ 7] 6394 	add	a,#0xF4
   25F1 5F            [ 4] 6395 	ld	e,a
   25F2 7D            [ 4] 6396 	ld	a,l
   25F3 CE FF         [ 7] 6397 	adc	a,#0xFF
   25F5 57            [ 4] 6398 	ld	d,a
   25F6 FD 21r53r00   [14] 6399 	ld	iy,#_pry
   25FA FD 6E 00      [19] 6400 	ld	l,0 (iy)
   25FD 26 00         [ 7] 6401 	ld	h,#0x00
   25FF 7B            [ 4] 6402 	ld	a,e
   2600 95            [ 4] 6403 	sub	a, l
   2601 7A            [ 4] 6404 	ld	a,d
   2602 9C            [ 4] 6405 	sbc	a, h
   2603 E2r08r26      [10] 6406 	jp	PO, 00633$
   2606 EE 80         [ 7] 6407 	xor	a, #0x80
   2608                    6408 00633$:
   2608 F2r26r26      [10] 6409 	jp	P,00205$
   260B 21r53r00      [10] 6410 	ld	hl,#_pry
   260E 3Ar35r00      [13] 6411 	ld	a,(#__en_y + 0)
   2611 C6 F4         [ 7] 6412 	add	a,#0xF4
   2613 77            [ 7] 6413 	ld	(hl),a
   2614 FD 21r53r00   [14] 6414 	ld	iy,#_pry
   2618 FD 6E 00      [19] 6415 	ld	l,0 (iy)
   261B 26 00         [ 7] 6416 	ld	h,#0x00
   261D 29            [11] 6417 	add	hl, hl
   261E 29            [11] 6418 	add	hl, hl
   261F 29            [11] 6419 	add	hl, hl
   2620 29            [11] 6420 	add	hl, hl
   2621 29            [11] 6421 	add	hl, hl
   2622 29            [11] 6422 	add	hl, hl
   2623 22r4Cr00      [16] 6423 	ld	(_py),hl
   2626                    6424 00205$:
                           6425 ;engine/enengine.h:699: touched = 1;
   2626 21r2Fr00      [10] 6426 	ld	hl,#_touched + 0
   2629 36 01         [10] 6427 	ld	(hl), #0x01
   262B C3rD9r26      [10] 6428 	jp	00230$
   262E                    6429 00216$:
                           6430 ;engine/enengine.h:707: touched == 0 &&
   262E 3Ar2Fr00      [13] 6431 	ld	a,(#_touched + 0)
   2631 B7            [ 4] 6432 	or	a, a
   2632 C2rD9r26      [10] 6433 	jp	NZ,00230$
                           6434 ;engine/general.h:41: prx + 3 >= _en_x && 
   2635 21r52r00      [10] 6435 	ld	hl,#_prx + 0
   2638 56            [ 7] 6436 	ld	d, (hl)
   2639 0E 00         [ 7] 6437 	ld	c,#0x00
   263B 7A            [ 4] 6438 	ld	a,d
   263C C6 03         [ 7] 6439 	add	a, #0x03
   263E DD 77 FA      [19] 6440 	ld	-6 (ix),a
   2641 79            [ 4] 6441 	ld	a,c
   2642 CE 00         [ 7] 6442 	adc	a, #0x00
   2644 DD 77 FB      [19] 6443 	ld	-5 (ix),a
   2647 FD 21r34r00   [14] 6444 	ld	iy,#__en_x
   264B FD 6E 00      [19] 6445 	ld	l,0 (iy)
   264E 26 00         [ 7] 6446 	ld	h,#0x00
   2650 DD 7E FA      [19] 6447 	ld	a,-6 (ix)
   2653 95            [ 4] 6448 	sub	a, l
   2654 DD 7E FB      [19] 6449 	ld	a,-5 (ix)
   2657 9C            [ 4] 6450 	sbc	a, h
   2658 E2r5Dr26      [10] 6451 	jp	PO, 00634$
   265B EE 80         [ 7] 6452 	xor	a, #0x80
   265D                    6453 00634$:
   265D FArD9r26      [10] 6454 	jp	M,00230$
                           6455 ;engine/general.h:42: prx <= _en_x + 11 && 
   2660 D5            [11] 6456 	push	de
   2661 11 0B 00      [10] 6457 	ld	de,#0x000B
   2664 19            [11] 6458 	add	hl, de
   2665 D1            [10] 6459 	pop	de
   2666 7D            [ 4] 6460 	ld	a,l
   2667 92            [ 4] 6461 	sub	a, d
   2668 7C            [ 4] 6462 	ld	a,h
   2669 99            [ 4] 6463 	sbc	a, c
   266A E2r6Fr26      [10] 6464 	jp	PO, 00635$
   266D EE 80         [ 7] 6465 	xor	a, #0x80
   266F                    6466 00635$:
   266F FArD9r26      [10] 6467 	jp	M,00230$
                           6468 ;engine/general.h:43: pry + 13 + ENEMS_COLLISION_VSTRETCH_FG >= _en_y &&
   2672 DD 7E F8      [19] 6469 	ld	a,-8 (ix)
   2675 C6 0B         [ 7] 6470 	add	a, #0x0B
   2677 67            [ 4] 6471 	ld	h,a
   2678 DD 7E F9      [19] 6472 	ld	a,-7 (ix)
   267B CE 00         [ 7] 6473 	adc	a, #0x00
   267D 6F            [ 4] 6474 	ld	l,a
   267E 7C            [ 4] 6475 	ld	a,h
   267F 90            [ 4] 6476 	sub	a, b
   2680 7D            [ 4] 6477 	ld	a,l
   2681 9B            [ 4] 6478 	sbc	a, e
   2682 E2r87r26      [10] 6479 	jp	PO, 00636$
   2685 EE 80         [ 7] 6480 	xor	a, #0x80
   2687                    6481 00636$:
   2687 FArD9r26      [10] 6482 	jp	M,00230$
                           6483 ;engine/general.h:44: pry <= _en_y + 13 + PLAYER_COLLISION_VSTRETCH_FG
   268A 78            [ 4] 6484 	ld	a,b
   268B C6 09         [ 7] 6485 	add	a, #0x09
   268D 67            [ 4] 6486 	ld	h,a
   268E 7B            [ 4] 6487 	ld	a,e
   268F CE 00         [ 7] 6488 	adc	a, #0x00
   2691 6F            [ 4] 6489 	ld	l,a
   2692 7C            [ 4] 6490 	ld	a,h
   2693 DD 96 F8      [19] 6491 	sub	a, -8 (ix)
   2696 7D            [ 4] 6492 	ld	a,l
   2697 DD 9E F9      [19] 6493 	sbc	a, -7 (ix)
   269A E2r9Fr26      [10] 6494 	jp	PO, 00637$
   269D EE 80         [ 7] 6495 	xor	a, #0x80
   269F                    6496 00637$:
   269F FArD9r26      [10] 6497 	jp	M,00230$
                           6498 ;engine/enengine.h:714: en_sg_1 = 0;
   26A2 21r47r00      [10] 6499 	ld	hl,#_en_sg_1 + 0
   26A5 36 00         [10] 6500 	ld	(hl), #0x00
                           6501 ;engine/enengine.h:718: en_sg_2 = (pflickering == 0);
   26A7 3Ar60r00      [13] 6502 	ld	a,(#_pflickering + 0)
   26AA B7            [ 4] 6503 	or	a, a
   26AB 20 04         [12] 6504 	jr	NZ,00638$
   26AD 3E 01         [ 7] 6505 	ld	a,#0x01
   26AF 18 01         [12] 6506 	jr	00639$
   26B1                    6507 00638$:
   26B1 AF            [ 4] 6508 	xor	a,a
   26B2                    6509 00639$:
   26B2 32r48r00      [13] 6510 	ld	(#_en_sg_2 + 0),a
                           6511 ;engine/enengine.h:727: ) en_sg_2 = 0;
   26B5 3ArB7r02      [13] 6512 	ld	a,(#_res_on + 0)
   26B8 3D            [ 4] 6513 	dec	a
   26B9 20 05         [12] 6514 	jr	NZ,00207$
   26BB 21r48r00      [10] 6515 	ld	hl,#_en_sg_2 + 0
   26BE 36 00         [10] 6516 	ld	(hl), #0x00
   26C0                    6517 00207$:
                           6518 ;engine/enengine.h:751: if (en_sg_1) enems_hit ();
   26C0 3Ar47r00      [13] 6519 	ld	a,(#_en_sg_1 + 0)
   26C3 B7            [ 4] 6520 	or	a, a
   26C4 28 03         [12] 6521 	jr	Z,00209$
   26C6 CDrEFr19      [17] 6522 	call	_enems_hit
   26C9                    6523 00209$:
                           6524 ;engine/enengine.h:753: if (en_sg_2) { 
   26C9 3Ar48r00      [13] 6525 	ld	a,(#_en_sg_2 + 0)
   26CC B7            [ 4] 6526 	or	a, a
   26CD 28 05         [12] 6527 	jr	Z,00211$
                           6528 ;engine/enengine.h:754: pkill = 1; 
   26CF 21r6Br00      [10] 6529 	ld	hl,#_pkill + 0
   26D2 36 01         [10] 6530 	ld	(hl), #0x01
   26D4                    6531 00211$:
                           6532 ;engine/enengine.h:769: touched = 1; 
   26D4 21r2Fr00      [10] 6533 	ld	hl,#_touched + 0
   26D7 36 01         [10] 6534 	ld	(hl), #0x01
                           6535 ;engine/enengine.h:890: skipdo: 
   26D9                    6536 00230$:
                           6537 ;engine/enengine.h:893: if (en_spr != 0xff) {
   26D9 3Ar2Er00      [13] 6538 	ld	a,(#_en_spr + 0)
   26DC 3C            [ 4] 6539 	inc	a
   26DD 28 29         [12] 6540 	jr	Z,00232$
                           6541 ;engine/enengine.h:896: spr_enems [en_spr]
   26DF FD 21r2Er00   [14] 6542 	ld	iy,#_en_spr
   26E3 FD 6E 00      [19] 6543 	ld	l,0 (iy)
   26E6 26 00         [ 7] 6544 	ld	h,#0x00
   26E8 29            [11] 6545 	add	hl, hl
   26E9 EB            [ 4] 6546 	ex	de,hl
   26EA 2Ar88r00      [16] 6547 	ld	hl,(_spr_enems)
   26ED 19            [11] 6548 	add	hl,de
   26EE 4E            [ 7] 6549 	ld	c,(hl)
   26EF 23            [ 6] 6550 	inc	hl
   26F0 46            [ 7] 6551 	ld	b,(hl)
                           6552 ;engine/enengine.h:895: _en_x + en_spr_x_mod, _en_y + SPRITE_ADJUST, 
   26F1 3Ar35r00      [13] 6553 	ld	a,(#__en_y + 0)
   26F4 C6 F8         [ 7] 6554 	add	a, #0xF8
   26F6 57            [ 4] 6555 	ld	d,a
   26F7 21r2Fr02      [10] 6556 	ld	hl,#_en_spr_x_mod
   26FA 3Ar34r00      [13] 6557 	ld	a,(#__en_x + 0)
   26FD 86            [ 7] 6558 	add	a, (hl)
   26FE C5            [11] 6559 	push	bc
   26FF D5            [11] 6560 	push	de
   2700 33            [ 6] 6561 	inc	sp
   2701 F5            [11] 6562 	push	af
   2702 33            [ 6] 6563 	inc	sp
   2703 CDr00r00      [17] 6564 	call	_SG_addMetaSprite1x1
   2706 F1            [10] 6565 	pop	af
   2707 F1            [10] 6566 	pop	af
   2708                    6567 00232$:
                           6568 ;engine/enengine.h:902: enems_update_unsigned_char_arrays ();
   2708 CDr32r16      [17] 6569 	call	_enems_update_unsigned_char_arrays
   270B C3r4Cr1A      [10] 6570 	jp	00233$
   270E                    6571 00237$:
   270E DD F9         [10] 6572 	ld	sp, ix
   2710 DD E1         [14] 6573 	pop	ix
   2712 C9            [10] 6574 	ret
                           6575 ;engine/../my/game_frame.h:7: void draw_game_frame (void) {
                           6576 ;	---------------------------------
                           6577 ; Function draw_game_frame
                           6578 ; ---------------------------------
   2713                    6579 _draw_game_frame::
                           6580 ;engine/../my/game_frame.h:9: }
   2713 C9            [10] 6581 	ret
                           6582 ;engine/frame.h:9: void hud_update (void) {
                           6583 ;	---------------------------------
                           6584 ; Function hud_update
                           6585 ; ---------------------------------
   2714                    6586 _hud_update::
                           6587 ;engine/frame.h:12: if (okilled != pkilled) {
   2714 3ArCEr01      [13] 6588 	ld	a,(#_okilled + 0)
   2717 FD 21r73r00   [14] 6589 	ld	iy,#_pkilled
   271B FD 96 00      [19] 6590 	sub	a, 0 (iy)
   271E 28 24         [12] 6591 	jr	Z,00102$
                           6592 ;engine/frame.h:13: okilled = pkilled;
   2720 3Ar73r00      [13] 6593 	ld	a,(#_pkilled + 0)
   2723 32rCEr01      [13] 6594 	ld	(#_okilled + 0),a
                           6595 ;engine/frame.h:14: _x = KILLED_X; _y = KILLED_Y; _n = c_max_enems - pkilled; p_t ();
   2726 21r00r00      [10] 6596 	ld	hl,#__x + 0
   2729 36 1C         [10] 6597 	ld	(hl), #0x1C
   272B 21r01r00      [10] 6598 	ld	hl,#__y + 0
   272E 36 04         [10] 6599 	ld	(hl), #0x04
   2730 21r73r00      [10] 6600 	ld	hl,#_pkilled
   2733 D5            [11] 6601 	push	de
   2734 FD 21r02r00   [14] 6602 	ld	iy,#__n
   2738 FD E5         [15] 6603 	push	iy
   273A D1            [10] 6604 	pop	de
   273B 3ArBFr01      [13] 6605 	ld	a,(#_c_max_enems + 0)
   273E 96            [ 7] 6606 	sub	a, (hl)
   273F 12            [ 7] 6607 	ld	(de),a
   2740 D1            [10] 6608 	pop	de
   2741 CDr88r02      [17] 6609 	call	_p_t
   2744                    6610 00102$:
                           6611 ;engine/frame.h:32: if (okeys != pkeys) {
   2744 3ArCBr01      [13] 6612 	ld	a,(#_okeys + 0)
   2747 FD 21r70r00   [14] 6613 	ld	iy,#_pkeys
   274B FD 96 00      [19] 6614 	sub	a, 0 (iy)
   274E 28 19         [12] 6615 	jr	Z,00104$
                           6616 ;engine/frame.h:33: okeys = pkeys;
   2750 21r70r00      [10] 6617 	ld	hl,#_pkeys + 0
   2753 56            [ 7] 6618 	ld	d, (hl)
   2754 21rCBr01      [10] 6619 	ld	hl,#_okeys + 0
   2757 72            [ 7] 6620 	ld	(hl), d
                           6621 ;engine/frame.h:34: _x = KEYS_X; _y = KEYS_Y; _n = pkeys; p_t ();
   2758 21r00r00      [10] 6622 	ld	hl,#__x + 0
   275B 36 10         [10] 6623 	ld	(hl), #0x10
   275D 21r01r00      [10] 6624 	ld	hl,#__y + 0
   2760 36 04         [10] 6625 	ld	(hl), #0x04
   2762 21r02r00      [10] 6626 	ld	hl,#__n + 0
   2765 72            [ 7] 6627 	ld	(hl), d
   2766 CDr88r02      [17] 6628 	call	_p_t
   2769                    6629 00104$:
                           6630 ;engine/frame.h:39: if (olife != plife) {
   2769 3ArCAr01      [13] 6631 	ld	a,(#_olife + 0)
   276C FD 21r6Fr00   [14] 6632 	ld	iy,#_plife
   2770 FD 96 00      [19] 6633 	sub	a, 0 (iy)
   2773 C8            [11] 6634 	ret	Z
                           6635 ;engine/frame.h:40: olife = plife;
   2774 21r6Fr00      [10] 6636 	ld	hl,#_plife + 0
   2777 56            [ 7] 6637 	ld	d, (hl)
   2778 21rCAr01      [10] 6638 	ld	hl,#_olife + 0
   277B 72            [ 7] 6639 	ld	(hl), d
                           6640 ;engine/frame.h:41: _x = LIFE_X; _y = LIFE_Y; _n = plife; p_t ();
   277C 21r00r00      [10] 6641 	ld	hl,#__x + 0
   277F 36 04         [10] 6642 	ld	(hl), #0x04
   2781 21r01r00      [10] 6643 	ld	hl,#__y + 0
   2784 36 04         [10] 6644 	ld	(hl), #0x04
   2786 21r02r00      [10] 6645 	ld	hl,#__n + 0
   2789 72            [ 7] 6646 	ld	(hl), d
   278A C3r88r02      [10] 6647 	jp  _p_t
                           6648 ;my/pres.h:6: void bat_in (void) {
                           6649 ;	---------------------------------
                           6650 ; Function bat_in
                           6651 ; ---------------------------------
   278D                    6652 _bat_in::
                           6653 ;my/pres.h:7: SG_displayOn ();
   278D 21 40 01      [10] 6654 	ld	hl,#0x0140
   2790 E5            [11] 6655 	push	hl
   2791 CDr00r00      [17] 6656 	call	_SG_VDPturnOnFeature
   2794 F1            [10] 6657 	pop	af
                           6658 ;my/pres.h:8: while (SG_getKeysStatus ());
   2795                    6659 00101$:
   2795 CDr00r00      [17] 6660 	call	_SG_getKeysStatus
   2798 7C            [ 4] 6661 	ld	a,h
   2799 B5            [ 4] 6662 	or	a,l
   279A 20 F9         [12] 6663 	jr	NZ,00101$
   279C C9            [10] 6664 	ret
                           6665 ;my/pres.h:11: void bat_out (void) {
                           6666 ;	---------------------------------
                           6667 ; Function bat_out
                           6668 ; ---------------------------------
   279D                    6669 _bat_out::
                           6670 ;my/pres.h:12: PSGStop ();
   279D CDr00r00      [17] 6671 	call	_PSGStop
                           6672 ;my/pres.h:13: SG_displayOff ();
   27A0 21 40 01      [10] 6673 	ld	hl,#0x0140
   27A3 E5            [11] 6674 	push	hl
   27A4 CDr00r00      [17] 6675 	call	_SG_VDPturnOffFeature
   27A7 F1            [10] 6676 	pop	af
   27A8 C9            [10] 6677 	ret
                           6678 ;my/pres.h:16: void pres (void (*func) (void)) {
                           6679 ;	---------------------------------
                           6680 ; Function pres
                           6681 ; ---------------------------------
   27A9                    6682 _pres::
                           6683 ;my/pres.h:17: cls ();
   27A9 CDr2Ar02      [17] 6684 	call	_cls
                           6685 ;my/pres.h:18: (*func) ();
   27AC C1            [10] 6686 	pop	bc
   27AD E1            [10] 6687 	pop	hl
   27AE E5            [11] 6688 	push	hl
   27AF C5            [11] 6689 	push	bc
   27B0 CDr00r00      [17] 6690 	call	___sdcc_call_hl
                           6691 ;my/pres.h:19: bat_in ();
   27B3 CDr8Dr27      [17] 6692 	call	_bat_in
                           6693 ;my/pres.h:20: while (1) {
   27B6                    6694 00104$:
                           6695 ;my/pres.h:21: pad_read ();
   27B6 CDr5Er07      [17] 6696 	call	_pad_read
                           6697 ;my/pres.h:22: if (pad_this_frame & (PAD_A|PAD_B|PAD_START)) break;
   27B9 3Ar06r00      [13] 6698 	ld	a,(#_pad_this_frame + 0)
   27BC E6 30         [ 7] 6699 	and	a, #0x30
   27BE 28 F6         [12] 6700 	jr	Z,00104$
                           6701 ;my/pres.h:24: bat_out ();
   27C0 C3r9Dr27      [10] 6702 	jp  _bat_out
                           6703 ;my/pres.h:27: void title (void) {
                           6704 ;	---------------------------------
                           6705 ; Function title
                           6706 ; ---------------------------------
   27C3                    6707 _title::
                           6708 ;my/pres.h:29: cls (); // TODO:CHANGE
   27C3 CDr2Ar02      [17] 6709 	call	_cls
                           6710 ;my/pres.h:31: _x = 7; _y = 18; pr_str ("SELECT AND PUSH 1!");
   27C6 21r00r00      [10] 6711 	ld	hl,#__x + 0
   27C9 36 07         [10] 6712 	ld	(hl), #0x07
   27CB 21r01r00      [10] 6713 	ld	hl,#__y + 0
   27CE 36 12         [10] 6714 	ld	(hl), #0x12
   27D0 21r66r28      [10] 6715 	ld	hl,#___str_0
   27D3 E5            [11] 6716 	push	hl
   27D4 CDrA4r06      [17] 6717 	call	_pr_str
   27D7 F1            [10] 6718 	pop	af
                           6719 ;my/pres.h:33: _x = 12; _y = 20; pr_str ("RESONATORS");
   27D8 21r00r00      [10] 6720 	ld	hl,#__x + 0
   27DB 36 0C         [10] 6721 	ld	(hl), #0x0C
   27DD 21r01r00      [10] 6722 	ld	hl,#__y + 0
   27E0 36 14         [10] 6723 	ld	(hl), #0x14
   27E2 21r79r28      [10] 6724 	ld	hl,#___str_1
   27E5 E5            [11] 6725 	push	hl
   27E6 CDrA4r06      [17] 6726 	call	_pr_str
   27E9 F1            [10] 6727 	pop	af
                           6728 ;my/pres.h:34: _y = 22; pr_str ("EASY MODE");
   27EA 21r01r00      [10] 6729 	ld	hl,#__y + 0
   27ED 36 16         [10] 6730 	ld	(hl), #0x16
   27EF 21r84r28      [10] 6731 	ld	hl,#___str_2
   27F2 E5            [11] 6732 	push	hl
   27F3 CDrA4r06      [17] 6733 	call	_pr_str
   27F6 F1            [10] 6734 	pop	af
                           6735 ;my/pres.h:36: bat_in ();
   27F7 CDr8Dr27      [17] 6736 	call	_bat_in
                           6737 ;my/pres.h:38: while (1) {
   27FA                    6738 00113$:
                           6739 ;my/pres.h:39: update_cycle ();
   27FA CDr1Dr08      [17] 6740 	call	_update_cycle
                           6741 ;my/pres.h:40: SG_addMetaSprite1x1 (84, 154 + (mode_no_resonators << 4), ss_pl_00);
   27FD 21r00r00      [10] 6742 	ld	hl,#_ss_pl_00
   2800 3ArBDr02      [13] 6743 	ld	a,(#_mode_no_resonators + 0)
   2803 07            [ 4] 6744 	rlca
   2804 07            [ 4] 6745 	rlca
   2805 07            [ 4] 6746 	rlca
   2806 07            [ 4] 6747 	rlca
   2807 E6 F0         [ 7] 6748 	and	a,#0xF0
   2809 C6 9A         [ 7] 6749 	add	a, #0x9A
   280B E5            [11] 6750 	push	hl
   280C 57            [ 4] 6751 	ld	d,a
   280D 1E 54         [ 7] 6752 	ld	e,#0x54
   280F D5            [11] 6753 	push	de
   2810 CDr00r00      [17] 6754 	call	_SG_addMetaSprite1x1
   2813 F1            [10] 6755 	pop	af
   2814 F1            [10] 6756 	pop	af
                           6757 ;my/pres.h:41: pad_read ();
   2815 CDr5Er07      [17] 6758 	call	_pad_read
                           6759 ;my/pres.h:42: rda = mode_no_resonators;
   2818 3ArBDr02      [13] 6760 	ld	a,(#_mode_no_resonators + 0)
   281B 32r18r00      [13] 6761 	ld	(#_rda + 0),a
                           6762 ;my/pres.h:43: if (pad_this_frame & PAD_DOWN) {
   281E 21r06r00      [10] 6763 	ld	hl,#_pad_this_frame+0
   2821 CB 4E         [12] 6764 	bit	1, (hl)
   2823 28 10         [12] 6765 	jr	Z,00104$
                           6766 ;my/pres.h:44: ++ mode_no_resonators; if (mode_no_resonators == 2) mode_no_resonators = 0;
   2825 21rBDr02      [10] 6767 	ld	hl, #_mode_no_resonators+0
   2828 34            [11] 6768 	inc	(hl)
   2829 3ArBDr02      [13] 6769 	ld	a,(#_mode_no_resonators + 0)
   282C D6 02         [ 7] 6770 	sub	a, #0x02
   282E 20 05         [12] 6771 	jr	NZ,00104$
   2830 21rBDr02      [10] 6772 	ld	hl,#_mode_no_resonators + 0
   2833 36 00         [10] 6773 	ld	(hl), #0x00
   2835                    6774 00104$:
                           6775 ;my/pres.h:46: if (pad_this_frame & PAD_UP) {
   2835 21r06r00      [10] 6776 	ld	hl,#_pad_this_frame+0
   2838 CB 46         [12] 6777 	bit	0, (hl)
   283A 28 11         [12] 6778 	jr	Z,00109$
                           6779 ;my/pres.h:47: if (mode_no_resonators) -- mode_no_resonators; else mode_no_resonators = 1;
   283C 3ArBDr02      [13] 6780 	ld	a,(#_mode_no_resonators + 0)
   283F B7            [ 4] 6781 	or	a, a
   2840 28 06         [12] 6782 	jr	Z,00106$
   2842 21rBDr02      [10] 6783 	ld	hl, #_mode_no_resonators+0
   2845 35            [11] 6784 	dec	(hl)
   2846 18 05         [12] 6785 	jr	00109$
   2848                    6786 00106$:
   2848 21rBDr02      [10] 6787 	ld	hl,#_mode_no_resonators + 0
   284B 36 01         [10] 6788 	ld	(hl), #0x01
   284D                    6789 00109$:
                           6790 ;my/pres.h:50: if (pad_this_frame & PAD_1) break;
   284D 21r06r00      [10] 6791 	ld	hl,#_pad_this_frame+0
   2850 CB 66         [12] 6792 	bit	4, (hl)
   2852 28 A6         [12] 6793 	jr	Z,00113$
                           6794 ;my/pres.h:56: plife = mode_no_resonators ? 5 : 3;
   2854 3ArBDr02      [13] 6795 	ld	a,(#_mode_no_resonators + 0)
   2857 B7            [ 4] 6796 	or	a, a
   2858 28 04         [12] 6797 	jr	Z,00117$
   285A 3E 05         [ 7] 6798 	ld	a,#0x05
   285C 18 02         [12] 6799 	jr	00118$
   285E                    6800 00117$:
   285E 3E 03         [ 7] 6801 	ld	a,#0x03
   2860                    6802 00118$:
   2860 32r6Fr00      [13] 6803 	ld	(#_plife + 0),a
                           6804 ;my/pres.h:58: bat_out ();
   2863 C3r9Dr27      [10] 6805 	jp  _bat_out
   2866                    6806 ___str_0:
   2866 53 45 4C 45 43 54  6807 	.ascii "SELECT AND PUSH 1!"
        20 41 4E 44 20 50
        55 53 48 20 31 21
   2878 00                 6808 	.db 0x00
   2879                    6809 ___str_1:
   2879 52 45 53 4F 4E 41  6810 	.ascii "RESONATORS"
        54 4F 52 53
   2883 00                 6811 	.db 0x00
   2884                    6812 ___str_2:
   2884 45 41 53 59 20 4D  6813 	.ascii "EASY MODE"
        4F 44 45
   288D 00                 6814 	.db 0x00
                           6815 ;my/pres.h:61: void scr_game_over (void) {
                           6816 ;	---------------------------------
                           6817 ; Function scr_game_over
                           6818 ; ---------------------------------
   288E                    6819 _scr_game_over::
                           6820 ;my/pres.h:62: _x = 11; _y = 15; pr_str ("GAME OVER!");
   288E 21r00r00      [10] 6821 	ld	hl,#__x + 0
   2891 36 0B         [10] 6822 	ld	(hl), #0x0B
   2893 21r01r00      [10] 6823 	ld	hl,#__y + 0
   2896 36 0F         [10] 6824 	ld	(hl), #0x0F
   2898 21rA1r28      [10] 6825 	ld	hl,#___str_3
   289B E5            [11] 6826 	push	hl
   289C CDrA4r06      [17] 6827 	call	_pr_str
   289F F1            [10] 6828 	pop	af
   28A0 C9            [10] 6829 	ret
   28A1                    6830 ___str_3:
   28A1 47 41 4D 45 20 4F  6831 	.ascii "GAME OVER!"
        56 45 52 21
   28AB 00                 6832 	.db 0x00
                           6833 ;my/pres.h:65: void scr_the_end (void) {
                           6834 ;	---------------------------------
                           6835 ; Function scr_the_end
                           6836 ; ---------------------------------
   28AC                    6837 _scr_the_end::
                           6838 ;my/pres.h:66: _x = 6; _y = 6; pr_str (" CHERIL VANQUISHED%    ALL ZOMBIES%AND RETURNED SAFELY%   TO THE BOSQUE");
   28AC 21r00r00      [10] 6839 	ld	hl,#__x + 0
   28AF 36 06         [10] 6840 	ld	(hl), #0x06
   28B1 21r01r00      [10] 6841 	ld	hl,#__y + 0
   28B4 36 06         [10] 6842 	ld	(hl), #0x06
   28B6 21rD1r28      [10] 6843 	ld	hl,#___str_4
   28B9 E5            [11] 6844 	push	hl
   28BA CDrA4r06      [17] 6845 	call	_pr_str
   28BD F1            [10] 6846 	pop	af
                           6847 ;my/pres.h:68: _x = 12; _y = 25; pr_str ("THE  END");
   28BE 21r00r00      [10] 6848 	ld	hl,#__x + 0
   28C1 36 0C         [10] 6849 	ld	(hl), #0x0C
   28C3 21r01r00      [10] 6850 	ld	hl,#__y + 0
   28C6 36 19         [10] 6851 	ld	(hl), #0x19
   28C8 21r19r29      [10] 6852 	ld	hl,#___str_5
   28CB E5            [11] 6853 	push	hl
   28CC CDrA4r06      [17] 6854 	call	_pr_str
   28CF F1            [10] 6855 	pop	af
   28D0 C9            [10] 6856 	ret
   28D1                    6857 ___str_4:
   28D1 20 43 48 45 52 49  6858 	.ascii " CHERIL VANQUISHED%    ALL ZOMBIES%AND RETURNED SAFELY%   TO"
        4C 20 56 41 4E 51
        55 49 53 48 45 44
        25 20 20 20 20 41
        4C 4C 20 5A 4F 4D
        42 49 45 53 25 41
        4E 44 20 52 45 54
        55 52 4E 45 44 20
        53 41 46 45 4C 59
        25 20 20 20 54 4F
   290D 20 54 48 45 20 42  6859 	.ascii " THE BOSQUE"
        4F 53 51 55 45
   2918 00                 6860 	.db 0x00
   2919                    6861 ___str_5:
   2919 54 48 45 20 20 45  6862 	.ascii "THE  END"
        4E 44
   2921 00                 6863 	.db 0x00
                           6864 ;my/pres.h:76: void scr_level (void) {
                           6865 ;	---------------------------------
                           6866 ; Function scr_level
                           6867 ; ---------------------------------
   2922                    6868 _scr_level::
                           6869 ;my/pres.h:77: _x = 12; _y = 14; pr_str ("LEVEL 0"); SG_setTile (17+level);
   2922 21r00r00      [10] 6870 	ld	hl,#__x + 0
   2925 36 0C         [10] 6871 	ld	(hl), #0x0C
   2927 21r01r00      [10] 6872 	ld	hl,#__y + 0
   292A 36 0E         [10] 6873 	ld	(hl), #0x0E
   292C 21r89r29      [10] 6874 	ld	hl,#___str_6
   292F E5            [11] 6875 	push	hl
   2930 CDrA4r06      [17] 6876 	call	_pr_str
   2933 F1            [10] 6877 	pop	af
   2934 3ArBEr01      [13] 6878 	ld	a,(#_level + 0)
   2937 C6 11         [ 7] 6879 	add	a, #0x11
   2939 F5            [11] 6880 	push	af
   293A 33            [ 6] 6881 	inc	sp
   293B CDr00r00      [17] 6882 	call	_SG_setTile
   293E 33            [ 6] 6883 	inc	sp
                           6884 ;my/pres.h:78: _x = 10; _y = 16; pr_str (levelnames [level]);
   293F 21r00r00      [10] 6885 	ld	hl,#__x + 0
   2942 36 0A         [10] 6886 	ld	(hl), #0x0A
   2944 21r01r00      [10] 6887 	ld	hl,#__y + 0
   2947 36 10         [10] 6888 	ld	(hl), #0x10
   2949 FD 21rBEr01   [14] 6889 	ld	iy,#_level
   294D FD 6E 00      [19] 6890 	ld	l,0 (iy)
   2950 26 00         [ 7] 6891 	ld	h,#0x00
   2952 29            [11] 6892 	add	hl, hl
   2953 11r83r29      [10] 6893 	ld	de,#_levelnames
   2956 19            [11] 6894 	add	hl,de
   2957 5E            [ 7] 6895 	ld	e,(hl)
   2958 23            [ 6] 6896 	inc	hl
   2959 56            [ 7] 6897 	ld	d,(hl)
   295A D5            [11] 6898 	push	de
   295B CDrA4r06      [17] 6899 	call	_pr_str
   295E F1            [10] 6900 	pop	af
   295F C9            [10] 6901 	ret
   2960                    6902 _level0name:
   2960 20 20 54 48 45 20  6903 	.ascii "  THE CITY"
        43 49 54 59
   296A 00                 6904 	.db 0x00
   296B                    6905 _level1name:
   296B 54 48 45 20 46 41  6906 	.ascii "THE FACTORY"
        43 54 4F 52 59
   2976 00                 6907 	.db 0x00
   2977                    6908 _level2name:
   2977 20 54 48 45 20 46  6909 	.ascii " THE FOREST"
        4F 52 45 53 54
   2982 00                 6910 	.db 0x00
   2983                    6911 _levelnames:
   2983r60r29              6912 	.dw _level0name
   2985r6Br29              6913 	.dw _level1name
   2987r77r29              6914 	.dw _level2name
   2989                    6915 ___str_6:
   2989 4C 45 56 45 4C 20  6916 	.ascii "LEVEL 0"
        30
   2990 00                 6917 	.db 0x00
                           6918 ;my/pres.h:81: void credits (void) {
                           6919 ;	---------------------------------
                           6920 ; Function credits
                           6921 ; ---------------------------------
   2991                    6922 _credits::
                           6923 ;my/pres.h:82: cls ();
   2991 CDr2Ar02      [17] 6924 	call	_cls
                           6925 ;my/pres.h:83: rds16 = 0; rdy = 240;
   2994 21 00 00      [10] 6926 	ld	hl,#0x0000
   2997 22r0Ar00      [16] 6927 	ld	(_rds16),hl
   299A 21r15r00      [10] 6928 	ld	hl,#_rdy + 0
   299D 36 F0         [10] 6929 	ld	(hl), #0xF0
                           6930 ;my/pres.h:85: _x = 0; _y = 22; 
   299F 21r00r00      [10] 6931 	ld	hl,#__x + 0
   29A2 36 00         [10] 6932 	ld	(hl), #0x00
   29A4 21r01r00      [10] 6933 	ld	hl,#__y + 0
   29A7 36 16         [10] 6934 	ld	(hl), #0x16
                           6935 ;my/pres.h:86: pr_str ("     CHERIL PERIL CLASSIC%%         ORIGINAL GAME%   @ 2011 BY THE MOJON TWINS%       REPROGRAMMED GAME%@ 2014, 2018 BY THE MOJON TWINS");
   29A9 21rE6r29      [10] 6936 	ld	hl,#___str_10+0
   29AC E5            [11] 6937 	push	hl
   29AD CDrA4r06      [17] 6938 	call	_pr_str
                           6939 ;my/pres.h:88: SG_displayOn ();
   29B0 21 40 01      [10] 6940 	ld	hl, #0x0140
   29B3 E3            [19] 6941 	ex	(sp),hl
   29B4 CDr00r00      [17] 6942 	call	_SG_VDPturnOnFeature
   29B7 F1            [10] 6943 	pop	af
                           6944 ;my/pres.h:90: while (!(SG_getKeysStatus () & PAD_START) && rds16 < 300) {
   29B8                    6945 00102$:
   29B8 CDr00r00      [17] 6946 	call	_SG_getKeysStatus
   29BB CB 65         [ 8] 6947 	bit	4, l
   29BD 20 1E         [12] 6948 	jr	NZ,00104$
   29BF 3Ar0Ar00      [13] 6949 	ld	a,(#_rds16 + 0)
   29C2 D6 2C         [ 7] 6950 	sub	a, #0x2C
   29C4 3Ar0Br00      [13] 6951 	ld	a,(#_rds16 + 1)
   29C7 17            [ 4] 6952 	rla
   29C8 3F            [ 4] 6953 	ccf
   29C9 1F            [ 4] 6954 	rra
   29CA DE 81         [ 7] 6955 	sbc	a, #0x81
   29CC 30 0F         [12] 6956 	jr	NC,00104$
                           6957 ;my/pres.h:93: update_cycle ();
   29CE CDr1Dr08      [17] 6958 	call	_update_cycle
                           6959 ;my/pres.h:94: rds16 ++;
   29D1 21r0Ar00      [10] 6960 	ld	hl, #_rds16+0
   29D4 34            [11] 6961 	inc	(hl)
   29D5 20 E1         [12] 6962 	jr	NZ,00102$
   29D7 21r0Br00      [10] 6963 	ld	hl, #_rds16+1
   29DA 34            [11] 6964 	inc	(hl)
   29DB 18 DB         [12] 6965 	jr	00102$
   29DD                    6966 00104$:
                           6967 ;my/pres.h:97: SG_displayOff ();
   29DD 21 40 01      [10] 6968 	ld	hl,#0x0140
   29E0 E5            [11] 6969 	push	hl
   29E1 CDr00r00      [17] 6970 	call	_SG_VDPturnOffFeature
   29E4 F1            [10] 6971 	pop	af
   29E5 C9            [10] 6972 	ret
   29E6                    6973 ___str_10:
   29E6 20 20 20 20 20 43  6974 	.ascii "     CHERIL PERIL CLASSIC%%         ORIGINAL GAME%   @ 2011 "
        48 45 52 49 4C 20
        50 45 52 49 4C 20
        43 4C 41 53 53 49
        43 25 25 20 20 20
        20 20 20 20 20 20
        4F 52 49 47 49 4E
        41 4C 20 47 41 4D
        45 25 20 20 20 40
        20 32 30 31 31 20
   2A22 42 59 20 54 48 45  6975 	.ascii "BY THE MOJON TWINS%       REPROGRAMMED GAME%@ 2014, 2018 BY "
        20 4D 4F 4A 4F 4E
        20 54 57 49 4E 53
        25 20 20 20 20 20
        20 20 52 45 50 52
        4F 47 52 41 4D 4D
        45 44 20 47 41 4D
        45 25 40 20 32 30
        31 34 2C 20 32 30
        31 38 20 42 59 20
   2A5E 54 48 45 20 4D 4F  6976 	.ascii "THE MOJON TWINS"
        4A 4F 4E 20 54 57
        49 4E 53
   2A6D 00                 6977 	.db 0x00
                           6978 ;mainloop/flickscreen.h:7: void flickscreen_do_horizontal (void) {
                           6979 ;	---------------------------------
                           6980 ; Function flickscreen_do_horizontal
                           6981 ; ---------------------------------
   2A6E                    6982 _flickscreen_do_horizontal::
                           6983 ;mainloop/flickscreen.h:12: (cfx + pvx) < 0
   2A6E FD 21rBAr02   [14] 6984 	ld	iy,#_cfx
   2A72 FD 4E 00      [19] 6985 	ld	c,0 (iy)
   2A75 3ArBAr02      [13] 6986 	ld	a,(#_cfx + 0)
   2A78 17            [ 4] 6987 	rla
   2A79 9F            [ 4] 6988 	sbc	a, a
   2A7A 47            [ 4] 6989 	ld	b,a
   2A7B 3Ar4Er00      [13] 6990 	ld	a,(#_pvx + 0)
   2A7E 81            [ 4] 6991 	add	a, c
   2A7F 57            [ 4] 6992 	ld	d,a
   2A80 3Ar4Fr00      [13] 6993 	ld	a,(#_pvx + 1)
   2A83 88            [ 4] 6994 	adc	a, b
   2A84 5F            [ 4] 6995 	ld	e,a
                           6996 ;mainloop/flickscreen.h:8: if (prx == 4 && 
   2A85 3Ar52r00      [13] 6997 	ld	a,(#_prx + 0)
   2A88 D6 04         [ 7] 6998 	sub	a, #0x04
   2A8A 20 0F         [12] 6999 	jr	NZ,00105$
                           7000 ;mainloop/flickscreen.h:12: (cfx + pvx) < 0
   2A8C CB 7B         [ 8] 7001 	bit	7, e
   2A8E 28 0B         [12] 7002 	jr	Z,00105$
                           7003 ;mainloop/flickscreen.h:15: -- n_pant;
   2A90 21rC0r01      [10] 7004 	ld	hl, #_n_pant+0
   2A93 35            [11] 7005 	dec	(hl)
                           7006 ;mainloop/flickscreen.h:16: px = 244 << FIXBITS;
   2A94 21 00 3D      [10] 7007 	ld	hl,#0x3D00
   2A97 22r4Ar00      [16] 7008 	ld	(_px),hl
   2A9A C9            [10] 7009 	ret
   2A9B                    7010 00105$:
                           7011 ;mainloop/flickscreen.h:17: } else if (prx == 244 && 
   2A9B FD 21r52r00   [14] 7012 	ld	iy,#_prx
   2A9F FD 7E 00      [19] 7013 	ld	a,0 (iy)
   2AA2 D6 F4         [ 7] 7014 	sub	a, #0xF4
   2AA4 C0            [11] 7015 	ret	NZ
                           7016 ;mainloop/flickscreen.h:21: (cfx + pvx) > 0
   2AA5 AF            [ 4] 7017 	xor	a, a
   2AA6 BA            [ 4] 7018 	cp	a, d
   2AA7 9B            [ 4] 7019 	sbc	a, e
   2AA8 E2rADr2A      [10] 7020 	jp	PO, 00130$
   2AAB EE 80         [ 7] 7021 	xor	a, #0x80
   2AAD                    7022 00130$:
   2AAD F0            [11] 7023 	ret	P
                           7024 ;mainloop/flickscreen.h:24: ++ n_pant;
   2AAE 21rC0r01      [10] 7025 	ld	hl, #_n_pant+0
   2AB1 34            [11] 7026 	inc	(hl)
                           7027 ;mainloop/flickscreen.h:25: px = 4 << FIXBITS;
   2AB2 21 00 01      [10] 7028 	ld	hl,#0x0100
   2AB5 22r4Ar00      [16] 7029 	ld	(_px),hl
   2AB8 C9            [10] 7030 	ret
                           7031 ;mainloop/flickscreen.h:29: void flickscreen_do_vertical (void) {
                           7032 ;	---------------------------------
                           7033 ; Function flickscreen_do_vertical
                           7034 ; ---------------------------------
   2AB9                    7035 _flickscreen_do_vertical::
                           7036 ;mainloop/flickscreen.h:42: if (pry == 0 && pvy < 0 && n_pant >= c_map_w) {
   2AB9 3Ar53r00      [13] 7037 	ld	a,(#_pry + 0)
   2ABC B7            [ 4] 7038 	or	a, a
   2ABD 20 44         [12] 7039 	jr	NZ,00108$
   2ABF 3Ar51r00      [13] 7040 	ld	a,(#_pvy + 1)
   2AC2 CB 7F         [ 8] 7041 	bit	7,a
   2AC4 28 3D         [12] 7042 	jr	Z,00108$
   2AC6 21r7Fr00      [10] 7043 	ld	hl,#_c_map_w
   2AC9 3ArC0r01      [13] 7044 	ld	a,(#_n_pant + 0)
   2ACC 96            [ 7] 7045 	sub	a, (hl)
   2ACD 38 34         [12] 7046 	jr	C,00108$
                           7047 ;mainloop/flickscreen.h:43: n_pant -= c_map_w;
   2ACF 21r7Fr00      [10] 7048 	ld	hl,#_c_map_w
   2AD2 D5            [11] 7049 	push	de
   2AD3 FD 21rC0r01   [14] 7050 	ld	iy,#_n_pant
   2AD7 FD E5         [15] 7051 	push	iy
   2AD9 D1            [10] 7052 	pop	de
   2ADA 1A            [ 7] 7053 	ld	a,(de)
   2ADB 96            [ 7] 7054 	sub	a, (hl)
   2ADC 12            [ 7] 7055 	ld	(de),a
   2ADD D1            [10] 7056 	pop	de
                           7057 ;mainloop/flickscreen.h:44: py = 192 << FIXBITS;
   2ADE 21 00 30      [10] 7058 	ld	hl,#0x3000
   2AE1 22r4Cr00      [16] 7059 	ld	(_py),hl
                           7060 ;mainloop/flickscreen.h:45: if (pvy > -PLAYER_VY_JUMP_MAX) pvy = -PLAYER_VY_JUMP_MAX;
   2AE4 3E 60         [ 7] 7061 	ld	a,#0x60
   2AE6 FD 21r50r00   [14] 7062 	ld	iy,#_pvy
   2AEA FD BE 00      [19] 7063 	cp	a, 0 (iy)
   2AED 3E FF         [ 7] 7064 	ld	a,#0xFF
   2AEF FD 21r50r00   [14] 7065 	ld	iy,#_pvy
   2AF3 FD 9E 01      [19] 7066 	sbc	a, 1 (iy)
   2AF6 E2rFBr2A      [10] 7067 	jp	PO, 00142$
   2AF9 EE 80         [ 7] 7068 	xor	a, #0x80
   2AFB                    7069 00142$:
   2AFB F0            [11] 7070 	ret	P
   2AFC 21 60 FF      [10] 7071 	ld	hl,#0xFF60
   2AFF 22r50r00      [16] 7072 	ld	(_pvy),hl
   2B02 C9            [10] 7073 	ret
   2B03                    7074 00108$:
                           7075 ;mainloop/flickscreen.h:46: } else if (pry >= 192 && pvy > 0 && n_pant < c_map_size - c_map_w) {
   2B03 3Ar53r00      [13] 7076 	ld	a,(#_pry + 0)
   2B06 D6 C0         [ 7] 7077 	sub	a, #0xC0
   2B08 D8            [11] 7078 	ret	C
   2B09 AF            [ 4] 7079 	xor	a, a
   2B0A FD 21r50r00   [14] 7080 	ld	iy,#_pvy
   2B0E FD BE 00      [19] 7081 	cp	a, 0 (iy)
   2B11 FD 21r50r00   [14] 7082 	ld	iy,#_pvy
   2B15 FD 9E 01      [19] 7083 	sbc	a, 1 (iy)
   2B18 E2r1Dr2B      [10] 7084 	jp	PO, 00143$
   2B1B EE 80         [ 7] 7085 	xor	a, #0x80
   2B1D                    7086 00143$:
   2B1D F0            [11] 7087 	ret	P
   2B1E 21r81r00      [10] 7088 	ld	hl,#_c_map_size + 0
   2B21 5E            [ 7] 7089 	ld	e, (hl)
   2B22 16 00         [ 7] 7090 	ld	d,#0x00
   2B24 FD 21r7Fr00   [14] 7091 	ld	iy,#_c_map_w
   2B28 FD 6E 00      [19] 7092 	ld	l,0 (iy)
   2B2B 26 00         [ 7] 7093 	ld	h,#0x00
   2B2D 7B            [ 4] 7094 	ld	a,e
   2B2E 95            [ 4] 7095 	sub	a, l
   2B2F 5F            [ 4] 7096 	ld	e,a
   2B30 7A            [ 4] 7097 	ld	a,d
   2B31 9C            [ 4] 7098 	sbc	a, h
   2B32 57            [ 4] 7099 	ld	d,a
   2B33 FD 21rC0r01   [14] 7100 	ld	iy,#_n_pant
   2B37 FD 66 00      [19] 7101 	ld	h,0 (iy)
   2B3A 2E 00         [ 7] 7102 	ld	l,#0x00
   2B3C 7C            [ 4] 7103 	ld	a,h
   2B3D 93            [ 4] 7104 	sub	a, e
   2B3E 7D            [ 4] 7105 	ld	a,l
   2B3F 9A            [ 4] 7106 	sbc	a, d
   2B40 E2r45r2B      [10] 7107 	jp	PO, 00144$
   2B43 EE 80         [ 7] 7108 	xor	a, #0x80
   2B45                    7109 00144$:
   2B45 F0            [11] 7110 	ret	P
                           7111 ;mainloop/flickscreen.h:47: n_pant += c_map_w;
   2B46 21r7Fr00      [10] 7112 	ld	hl,#_c_map_w
   2B49 D5            [11] 7113 	push	de
   2B4A FD 21rC0r01   [14] 7114 	ld	iy,#_n_pant
   2B4E FD E5         [15] 7115 	push	iy
   2B50 D1            [10] 7116 	pop	de
   2B51 1A            [ 7] 7117 	ld	a,(de)
   2B52 86            [ 7] 7118 	add	a, (hl)
   2B53 12            [ 7] 7119 	ld	(de),a
   2B54 D1            [10] 7120 	pop	de
                           7121 ;mainloop/flickscreen.h:48: py = 0;
   2B55 21 00 00      [10] 7122 	ld	hl,#0x0000
   2B58 22r4Cr00      [16] 7123 	ld	(_py),hl
   2B5B C9            [10] 7124 	ret
                           7125 ;mainloop.h:7: void game_init (void) {
                           7126 ;	---------------------------------
                           7127 ; Function game_init
                           7128 ; ---------------------------------
   2B5C                    7129 _game_init::
                           7130 ;mainloop.h:9: win_level = game_over = 0;
   2B5C 21rC6r01      [10] 7131 	ld	hl,#_game_over + 0
   2B5F 36 00         [10] 7132 	ld	(hl), #0x00
   2B61 21rC5r01      [10] 7133 	ld	hl,#_win_level + 0
   2B64 36 00         [10] 7134 	ld	(hl), #0x00
   2B66 FD 21rBEr01   [14] 7135 	ld	iy,#_level
   2B6A FD 6E 00      [19] 7136 	ld	l,0 (iy)
   2B6D 26 00         [ 7] 7137 	ld	h,#0x00
   2B6F 29            [11] 7138 	add	hl, hl
   2B70 4D            [ 4] 7139 	ld	c, l
   2B71 44            [ 4] 7140 	ld	b, h
   2B72 21rF1r01      [10] 7141 	ld	hl,#_l_ts_tmaps
   2B75 09            [11] 7142 	add	hl,bc
   2B76 7E            [ 7] 7143 	ld	a,(hl)
   2B77 FD 21r84r00   [14] 7144 	ld	iy,#_c_ts_tmaps
   2B7B FD 77 00      [19] 7145 	ld	0 (iy),a
   2B7E 23            [ 6] 7146 	inc	hl
   2B7F 7E            [ 7] 7147 	ld	a,(hl)
   2B80 32r85r00      [13] 7148 	ld	(#_c_ts_tmaps + 1),a
                           7149 ;mainloop/asset_setup.h:10: c_behs = 		l_behs [level];
   2B83 21rF7r01      [10] 7150 	ld	hl,#_l_behs
   2B86 09            [11] 7151 	add	hl,bc
   2B87 7E            [ 7] 7152 	ld	a,(hl)
   2B88 FD 21r86r00   [14] 7153 	ld	iy,#_c_behs
   2B8C FD 77 00      [19] 7154 	ld	0 (iy),a
   2B8F 23            [ 6] 7155 	inc	hl
   2B90 7E            [ 7] 7156 	ld	a,(hl)
   2B91 32r87r00      [13] 7157 	ld	(#_c_behs + 1),a
                           7158 ;mainloop/asset_setup.h:11: spr_enems = 	l_spr_enems [level];
   2B94 21r03r02      [10] 7159 	ld	hl,#_l_spr_enems
   2B97 09            [11] 7160 	add	hl,bc
   2B98 7E            [ 7] 7161 	ld	a,(hl)
   2B99 FD 21r88r00   [14] 7162 	ld	iy,#_spr_enems
   2B9D FD 77 00      [19] 7163 	ld	0 (iy),a
   2BA0 23            [ 6] 7164 	inc	hl
   2BA1 7E            [ 7] 7165 	ld	a,(hl)
   2BA2 32r89r00      [13] 7166 	ld	(#_spr_enems + 1),a
                           7167 ;mainloop/asset_setup.h:13: c_map = 		l_map [level];
   2BA5 21r09r02      [10] 7168 	ld	hl,#_l_map
   2BA8 09            [11] 7169 	add	hl,bc
   2BA9 7E            [ 7] 7170 	ld	a,(hl)
   2BAA FD 21r8Er00   [14] 7171 	ld	iy,#_c_map
   2BAE FD 77 00      [19] 7172 	ld	0 (iy),a
   2BB1 23            [ 6] 7173 	inc	hl
   2BB2 7E            [ 7] 7174 	ld	a,(hl)
   2BB3 32r8Fr00      [13] 7175 	ld	(#_c_map + 1),a
                           7176 ;mainloop/asset_setup.h:20: c_decos = 	l_decos [level];
   2BB6 3Er0F         [ 7] 7177 	ld	a,#<(_l_decos)
   2BB8 21rBEr01      [10] 7178 	ld	hl,#_level
   2BBB 86            [ 7] 7179 	add	a, (hl)
   2BBC 5F            [ 4] 7180 	ld	e,a
   2BBD 3Es02         [ 7] 7181 	ld	a,#>(_l_decos)
   2BBF CE 00         [ 7] 7182 	adc	a, #0x00
   2BC1 57            [ 4] 7183 	ld	d,a
   2BC2 1A            [ 7] 7184 	ld	a,(de)
   2BC3 32r90r00      [13] 7185 	ld	(#_c_decos + 0),a
                           7186 ;mainloop/asset_setup.h:23: c_locks = 	l_locks [level];
   2BC6 21r12r02      [10] 7187 	ld	hl,#_l_locks
   2BC9 09            [11] 7188 	add	hl,bc
   2BCA 7E            [ 7] 7189 	ld	a,(hl)
   2BCB FD 21r91r00   [14] 7190 	ld	iy,#_c_locks
   2BCF FD 77 00      [19] 7191 	ld	0 (iy),a
   2BD2 23            [ 6] 7192 	inc	hl
   2BD3 7E            [ 7] 7193 	ld	a,(hl)
   2BD4 32r92r00      [13] 7194 	ld	(#_c_locks + 1),a
                           7195 ;mainloop/asset_setup.h:25: l_n_bolts [level];
   2BD7 3Er18         [ 7] 7196 	ld	a,#<(_l_n_bolts)
   2BD9 21rBEr01      [10] 7197 	ld	hl,#_level
   2BDC 86            [ 7] 7198 	add	a, (hl)
   2BDD 5F            [ 4] 7199 	ld	e,a
   2BDE 3Es02         [ 7] 7200 	ld	a,#>(_l_n_bolts)
   2BE0 CE 00         [ 7] 7201 	adc	a, #0x00
   2BE2 57            [ 4] 7202 	ld	d,a
   2BE3 1A            [ 7] 7203 	ld	a,(de)
   2BE4 32r97r00      [13] 7204 	ld	(#_c_max_bolts + 0),a
                           7205 ;mainloop/asset_setup.h:28: c_enems = 		l_enems [level];
   2BE7 21r1Br02      [10] 7206 	ld	hl,#_l_enems
   2BEA 09            [11] 7207 	add	hl,bc
   2BEB 7E            [ 7] 7208 	ld	a,(hl)
   2BEC FD 21r93r00   [14] 7209 	ld	iy,#_c_enems
   2BF0 FD 77 00      [19] 7210 	ld	0 (iy),a
   2BF3 23            [ 6] 7211 	inc	hl
   2BF4 7E            [ 7] 7212 	ld	a,(hl)
   2BF5 32r94r00      [13] 7213 	ld	(#_c_enems + 1),a
                           7214 ;mainloop/asset_setup.h:29: c_hotspots = 	l_hotspots [level];	
   2BF8 21r21r02      [10] 7215 	ld	hl,#_l_hotspots
   2BFB 09            [11] 7216 	add	hl,bc
   2BFC 7E            [ 7] 7217 	ld	a,(hl)
   2BFD FD 21r95r00   [14] 7218 	ld	iy,#_c_hotspots
   2C01 FD 77 00      [19] 7219 	ld	0 (iy),a
   2C04 23            [ 6] 7220 	inc	hl
   2C05 7E            [ 7] 7221 	ld	a,(hl)
   2C06 32r96r00      [13] 7222 	ld	(#_c_hotspots + 1),a
                           7223 ;mainloop/asset_setup.h:31: c_max_enems = 	l_player_max_enems [level];
   2C09 3ErE2         [ 7] 7224 	ld	a,#<(_l_player_max_enems)
   2C0B 21rBEr01      [10] 7225 	ld	hl,#_level
   2C0E 86            [ 7] 7226 	add	a, (hl)
   2C0F 5F            [ 4] 7227 	ld	e,a
   2C10 3Es01         [ 7] 7228 	ld	a,#>(_l_player_max_enems)
   2C12 CE 00         [ 7] 7229 	adc	a, #0x00
   2C14 57            [ 4] 7230 	ld	d,a
   2C15 1A            [ 7] 7231 	ld	a,(de)
   2C16 32rBFr01      [13] 7232 	ld	(#_c_max_enems + 0),a
                           7233 ;mainloop/asset_setup.h:33: c_map_w = 		l_map_w [level];
   2C19 3ErD9         [ 7] 7234 	ld	a,#<(_l_map_w)
   2C1B 21rBEr01      [10] 7235 	ld	hl,#_level
   2C1E 86            [ 7] 7236 	add	a, (hl)
   2C1F 5F            [ 4] 7237 	ld	e,a
   2C20 3Es01         [ 7] 7238 	ld	a,#>(_l_map_w)
   2C22 CE 00         [ 7] 7239 	adc	a, #0x00
   2C24 57            [ 4] 7240 	ld	d,a
   2C25 1A            [ 7] 7241 	ld	a,(de)
   2C26 32r7Fr00      [13] 7242 	ld	(#_c_map_w + 0),a
                           7243 ;mainloop/asset_setup.h:34: c_map_h = 		l_map_h [level];
   2C29 3ErDC         [ 7] 7244 	ld	a,#<(_l_map_h)
   2C2B 21rBEr01      [10] 7245 	ld	hl,#_level
   2C2E 86            [ 7] 7246 	add	a, (hl)
   2C2F 5F            [ 4] 7247 	ld	e,a
   2C30 3Es01         [ 7] 7248 	ld	a,#>(_l_map_h)
   2C32 CE 00         [ 7] 7249 	adc	a, #0x00
   2C34 57            [ 4] 7250 	ld	d,a
   2C35 1A            [ 7] 7251 	ld	a,(de)
                           7252 ;mainloop/asset_setup.h:84: rda = c_map_h; c_map_size = 0; while (rda --) c_map_size += c_map_w;
   2C36 32r80r00      [13] 7253 	ld	(#_c_map_h + 0),a
   2C39 32r18r00      [13] 7254 	ld	(#_rda + 0),a
   2C3C 21r81r00      [10] 7255 	ld	hl,#_c_map_size + 0
   2C3F 36 00         [10] 7256 	ld	(hl), #0x00
   2C41                    7257 00101$:
   2C41 21r18r00      [10] 7258 	ld	hl,#_rda + 0
   2C44 56            [ 7] 7259 	ld	d, (hl)
   2C45 21r18r00      [10] 7260 	ld	hl, #_rda+0
   2C48 35            [11] 7261 	dec	(hl)
   2C49 7A            [ 4] 7262 	ld	a,d
   2C4A B7            [ 4] 7263 	or	a, a
   2C4B 28 11         [12] 7264 	jr	Z,00103$
   2C4D 21r7Fr00      [10] 7265 	ld	hl,#_c_map_w
   2C50 D5            [11] 7266 	push	de
   2C51 FD 21r81r00   [14] 7267 	ld	iy,#_c_map_size
   2C55 FD E5         [15] 7268 	push	iy
   2C57 D1            [10] 7269 	pop	de
   2C58 1A            [ 7] 7270 	ld	a,(de)
   2C59 86            [ 7] 7271 	add	a, (hl)
   2C5A 12            [ 7] 7272 	ld	(de),a
   2C5B D1            [10] 7273 	pop	de
   2C5C 18 E3         [12] 7274 	jr	00101$
   2C5E                    7275 00103$:
                           7276 ;mainloop.h:15: unpack_bg_patterns (l_ts_patterns [level], l_ts_colours [level], 64*8, 7);
   2C5E 21rEBr01      [10] 7277 	ld	hl,#_l_ts_colours
   2C61 09            [11] 7278 	add	hl,bc
   2C62 5E            [ 7] 7279 	ld	e,(hl)
   2C63 23            [ 6] 7280 	inc	hl
   2C64 56            [ 7] 7281 	ld	d,(hl)
   2C65 21rE5r01      [10] 7282 	ld	hl,#_l_ts_patterns
   2C68 09            [11] 7283 	add	hl,bc
   2C69 4E            [ 7] 7284 	ld	c,(hl)
   2C6A 23            [ 6] 7285 	inc	hl
   2C6B 46            [ 7] 7286 	ld	b,(hl)
   2C6C 3E 07         [ 7] 7287 	ld	a,#0x07
   2C6E F5            [11] 7288 	push	af
   2C6F 33            [ 6] 7289 	inc	sp
   2C70 21 00 02      [10] 7290 	ld	hl,#0x0200
   2C73 E5            [11] 7291 	push	hl
   2C74 D5            [11] 7292 	push	de
   2C75 C5            [11] 7293 	push	bc
   2C76 CDr00r00      [17] 7294 	call	_unpack_bg_patterns
   2C79 21 07 00      [10] 7295 	ld	hl,#7
   2C7C 39            [11] 7296 	add	hl,sp
   2C7D F9            [ 6] 7297 	ld	sp,hl
                           7298 ;mainloop.h:17: cls ();
   2C7E CDr2Ar02      [17] 7299 	call	_cls
                           7300 ;mainloop.h:19: draw_game_frame ();
   2C81 CDr13r27      [17] 7301 	call	_draw_game_frame
                           7302 ;mainloop.h:22: hotspots_load ();
   2C84 CDr2Fr08      [17] 7303 	call	_hotspots_load
                           7304 ;mainloop.h:25: memfill (lkact, 1, c_max_bolts);
   2C87 21r97r00      [10] 7305 	ld	hl,#_c_max_bolts + 0
   2C8A 4E            [ 7] 7306 	ld	c, (hl)
   2C8B 06 00         [ 7] 7307 	ld	b,#0x00
   2C8D 11rEAr01      [10] 7308 	ld	de,#_lkact
   2C90 C5            [11] 7309 	push	bc
   2C91 3E 01         [ 7] 7310 	ld	a,#0x01
   2C93 F5            [11] 7311 	push	af
   2C94 33            [ 6] 7312 	inc	sp
   2C95 D5            [11] 7313 	push	de
   2C96 CDr00r00      [17] 7314 	call	_memfill
   2C99 F1            [10] 7315 	pop	af
   2C9A F1            [10] 7316 	pop	af
   2C9B 33            [ 6] 7317 	inc	sp
                           7318 ;mainloop.h:28: if (!warp_to_level)	{
   2C9C 3ArC7r01      [13] 7319 	ld	a,(#_warp_to_level + 0)
   2C9F B7            [ 4] 7320 	or	a, a
   2CA0 20 43         [12] 7321 	jr	NZ,00105$
                           7322 ;mainloop.h:29: n_pant = SCR_INI;
   2CA2 11rD0r01      [10] 7323 	ld	de,#_l_scr_ini+0
   2CA5 2ArBEr01      [16] 7324 	ld	hl,(_level)
   2CA8 26 00         [ 7] 7325 	ld	h,#0x00
   2CAA 19            [11] 7326 	add	hl,de
   2CAB 7E            [ 7] 7327 	ld	a,(hl)
   2CAC 32rC0r01      [13] 7328 	ld	(#_n_pant + 0),a
                           7329 ;mainloop.h:30: px = (4 + (PLAYER_INI_X << 4)) << FIXBITS;
   2CAF 11rD3r01      [10] 7330 	ld	de,#_l_ini_x+0
   2CB2 2ArBEr01      [16] 7331 	ld	hl,(_level)
   2CB5 26 00         [ 7] 7332 	ld	h,#0x00
   2CB7 19            [11] 7333 	add	hl,de
   2CB8 6E            [ 7] 7334 	ld	l,(hl)
   2CB9 26 00         [ 7] 7335 	ld	h,#0x00
   2CBB 29            [11] 7336 	add	hl, hl
   2CBC 29            [11] 7337 	add	hl, hl
   2CBD 29            [11] 7338 	add	hl, hl
   2CBE 29            [11] 7339 	add	hl, hl
   2CBF 01 04 00      [10] 7340 	ld	bc,#0x0004
   2CC2 09            [11] 7341 	add	hl,bc
   2CC3 29            [11] 7342 	add	hl, hl
   2CC4 29            [11] 7343 	add	hl, hl
   2CC5 29            [11] 7344 	add	hl, hl
   2CC6 29            [11] 7345 	add	hl, hl
   2CC7 29            [11] 7346 	add	hl, hl
   2CC8 29            [11] 7347 	add	hl, hl
   2CC9 22r4Ar00      [16] 7348 	ld	(_px),hl
                           7349 ;mainloop.h:31: py = (PLAYER_INI_Y << 4) << FIXBITS;
   2CCC 11rD6r01      [10] 7350 	ld	de,#_l_ini_y+0
   2CCF 2ArBEr01      [16] 7351 	ld	hl,(_level)
   2CD2 26 00         [ 7] 7352 	ld	h,#0x00
   2CD4 19            [11] 7353 	add	hl,de
   2CD5 6E            [ 7] 7354 	ld	l,(hl)
   2CD6 26 00         [ 7] 7355 	ld	h,#0x00
   2CD8 29            [11] 7356 	add	hl, hl
   2CD9 29            [11] 7357 	add	hl, hl
   2CDA 29            [11] 7358 	add	hl, hl
   2CDB 29            [11] 7359 	add	hl, hl
   2CDC 29            [11] 7360 	add	hl, hl
   2CDD 29            [11] 7361 	add	hl, hl
   2CDE 29            [11] 7362 	add	hl, hl
   2CDF 29            [11] 7363 	add	hl, hl
   2CE0 29            [11] 7364 	add	hl, hl
   2CE1 29            [11] 7365 	add	hl, hl
   2CE2 22r4Cr00      [16] 7366 	ld	(_py),hl
   2CE5                    7367 00105$:
                           7368 ;mainloop.h:33: player_to_pixels ();
   2CE5 CDr5Br0B      [17] 7369 	call	_player_to_pixels
                           7370 ;mainloop.h:34: player_init ();
   2CE8 CDrDDr0A      [17] 7371 	call	_player_init
                           7372 ;mainloop.h:41: enems_persistent_deaths_load ();
   2CEB CDr20r16      [17] 7373 	call	_enems_persistent_deaths_load
                           7374 ;mainloop.h:53: pkeys = 0;
   2CEE 21r70r00      [10] 7375 	ld	hl,#_pkeys + 0
   2CF1 36 00         [10] 7376 	ld	(hl), #0x00
                           7377 ;mainloop.h:57: res_on = 0;
   2CF3 21rB7r02      [10] 7378 	ld	hl,#_res_on + 0
   2CF6 36 00         [10] 7379 	ld	(hl), #0x00
                           7380 ;mainloop.h:58: res_disable = 0;
   2CF8 21rB6r02      [10] 7381 	ld	hl,#_res_disable + 0
   2CFB 36 00         [10] 7382 	ld	(hl), #0x00
                           7383 ;mainloop.h:66: no_ct = 0;
   2CFD 21rD0r01      [10] 7384 	ld	hl,#_no_ct + 0
   2D00 36 00         [10] 7385 	ld	(hl), #0x00
                           7386 ;mainloop.h:105: half_life = 0;
   2D02 21rC2r01      [10] 7387 	ld	hl,#_half_life + 0
   2D05 36 00         [10] 7388 	ld	(hl), #0x00
                           7389 ;mainloop.h:106: frame_counter = 0;
   2D07 21rC3r01      [10] 7390 	ld	hl,#_frame_counter + 0
   2D0A 36 00         [10] 7391 	ld	(hl), #0x00
                           7392 ;mainloop.h:107: olife = oammo = oobjs = okeys = 0xff;
   2D0C 21rCBr01      [10] 7393 	ld	hl,#_okeys + 0
   2D0F 36 FF         [10] 7394 	ld	(hl), #0xFF
   2D11 21rCCr01      [10] 7395 	ld	hl,#_oobjs + 0
   2D14 36 FF         [10] 7396 	ld	(hl), #0xFF
   2D16 21rCDr01      [10] 7397 	ld	hl,#_oammo + 0
   2D19 36 FF         [10] 7398 	ld	(hl), #0xFF
   2D1B 21rCAr01      [10] 7399 	ld	hl,#_olife + 0
   2D1E 36 FF         [10] 7400 	ld	(hl), #0xFF
                           7401 ;mainloop.h:108: okilled = 0xff;
   2D20 21rCEr01      [10] 7402 	ld	hl,#_okilled + 0
   2D23 36 FF         [10] 7403 	ld	(hl), #0xFF
                           7404 ;my/extra_inits.h:7: springs_on = (level == 1);
   2D25 3ArBEr01      [13] 7405 	ld	a,(#_level + 0)
   2D28 3D            [ 4] 7406 	dec	a
   2D29 20 04         [12] 7407 	jr	NZ,00120$
   2D2B 3E 01         [ 7] 7408 	ld	a,#0x01
   2D2D 18 01         [12] 7409 	jr	00121$
   2D2F                    7410 00120$:
   2D2F AF            [ 4] 7411 	xor	a,a
   2D30                    7412 00121$:
   2D30 32rBBr02      [13] 7413 	ld	(#_springs_on + 0),a
   2D33 C9            [10] 7414 	ret
                           7415 ;mainloop.h:117: void prepare_scr (void) {
                           7416 ;	---------------------------------
                           7417 ; Function prepare_scr
                           7418 ; ---------------------------------
   2D34                    7419 _prepare_scr::
                           7420 ;mainloop.h:118: SG_displayOff ();
   2D34 21 40 01      [10] 7421 	ld	hl,#0x0140
   2D37 E5            [11] 7422 	push	hl
   2D38 CDr00r00      [17] 7423 	call	_SG_VDPturnOffFeature
   2D3B F1            [10] 7424 	pop	af
                           7425 ;mainloop.h:128: ft = 0;
   2D3C 21r7Er00      [10] 7426 	ld	hl,#_ft + 0
   2D3F 36 00         [10] 7427 	ld	(hl), #0x00
                           7428 ;mainloop.h:130: clear_update_list ();
   2D41 CDr00r00      [17] 7429 	call	_clear_update_list
                           7430 ;mainloop.h:142: enems_load ();
   2D44 CDrADr17      [17] 7431 	call	_enems_load
                           7432 ;mainloop.h:143: hotspots_create ();	
   2D47 CDr8Er08      [17] 7433 	call	_hotspots_create
                           7434 ;mainloop.h:160: chac_chacs_queue_write = chac_chacs_queue_read = 0;
   2D4A 21rB4r02      [10] 7435 	ld	hl,#_chac_chacs_queue_read + 0
   2D4D 36 00         [10] 7436 	ld	(hl), #0x00
   2D4F 21rB5r02      [10] 7437 	ld	hl,#_chac_chacs_queue_write + 0
   2D52 36 00         [10] 7438 	ld	(hl), #0x00
                           7439 ;mainloop.h:161: max_chac_chacs = 0;
   2D54 21r93r02      [10] 7440 	ld	hl,#_max_chac_chacs + 0
   2D57 36 00         [10] 7441 	ld	(hl), #0x00
                           7442 ;mainloop.h:170: draw_scr ();
   2D59 CDr77r04      [17] 7443 	call	_draw_scr
                           7444 ;mainloop.h:208: SG_displayOn ();
   2D5C 21 40 01      [10] 7445 	ld	hl,#0x0140
   2D5F E5            [11] 7446 	push	hl
   2D60 CDr00r00      [17] 7447 	call	_SG_VDPturnOnFeature
   2D63 F1            [10] 7448 	pop	af
                           7449 ;mainloop.h:209: SG_initSprites ();
   2D64 CDr00r00      [17] 7450 	call	_SG_initSprites
                           7451 ;my/on_entering_screen.h:8: if (mode_no_resonators) {
   2D67 3ArBDr02      [13] 7452 	ld	a,(#_mode_no_resonators + 0)
   2D6A B7            [ 4] 7453 	or	a, a
   2D6B 28 11         [12] 7454 	jr	Z,00104$
                           7455 ;my/on_entering_screen.h:9: res_disable = 1;
   2D6D 21rB6r02      [10] 7456 	ld	hl,#_res_disable + 0
   2D70 36 01         [10] 7457 	ld	(hl), #0x01
                           7458 ;my/on_entering_screen.h:10: if (hrt == HOTSPOT_TYPE_RESONATOR) hrt = 0;
   2D72 3Ar7Cr00      [13] 7459 	ld	a,(#_hrt + 0)
   2D75 D6 04         [ 7] 7460 	sub	a, #0x04
   2D77 20 05         [12] 7461 	jr	NZ,00104$
   2D79 21r7Cr00      [10] 7462 	ld	hl,#_hrt + 0
   2D7C 36 00         [10] 7463 	ld	(hl), #0x00
   2D7E                    7464 00104$:
                           7465 ;mainloop.h:226: gpit = 3; while (gpit --) en_spr_id [gpit] = en_s [gpit];
   2D7E 21r08r00      [10] 7466 	ld	hl,#_gpit + 0
   2D81 36 03         [10] 7467 	ld	(hl), #0x03
   2D83                    7468 00105$:
   2D83 21r08r00      [10] 7469 	ld	hl,#_gpit + 0
   2D86 5E            [ 7] 7470 	ld	e, (hl)
   2D87 21r08r00      [10] 7471 	ld	hl, #_gpit+0
   2D8A 35            [11] 7472 	dec	(hl)
   2D8B 7B            [ 4] 7473 	ld	a,e
   2D8C B7            [ 4] 7474 	or	a, a
   2D8D 28 1E         [12] 7475 	jr	Z,00107$
   2D8F 3Er48         [ 7] 7476 	ld	a,#<(_en_spr_id)
   2D91 21r08r00      [10] 7477 	ld	hl,#_gpit
   2D94 86            [ 7] 7478 	add	a, (hl)
   2D95 5F            [ 4] 7479 	ld	e,a
   2D96 3Es02         [ 7] 7480 	ld	a,#>(_en_spr_id)
   2D98 CE 00         [ 7] 7481 	adc	a, #0x00
   2D9A 57            [ 4] 7482 	ld	d,a
   2D9B FD 21r17r02   [14] 7483 	ld	iy,#_en_s
   2D9F ED 4Br08r00   [20] 7484 	ld	bc,(_gpit)
   2DA3 06 00         [ 7] 7485 	ld	b,#0x00
   2DA5 FD 09         [15] 7486 	add	iy, bc
   2DA7 FD 7E 00      [19] 7487 	ld	a, 0 (iy)
   2DAA 12            [ 7] 7488 	ld	(de),a
   2DAB 18 D6         [12] 7489 	jr	00105$
   2DAD                    7490 00107$:
                           7491 ;mainloop.h:228: prx = px >> FIXBITS; pry = py >> FIXBITS;
   2DAD 2Ar4Ar00      [16] 7492 	ld	hl,(_px)
   2DB0 CB 2C         [ 8] 7493 	sra	h
   2DB2 CB 1D         [ 8] 7494 	rr	l
   2DB4 CB 2C         [ 8] 7495 	sra	h
   2DB6 CB 1D         [ 8] 7496 	rr	l
   2DB8 CB 2C         [ 8] 7497 	sra	h
   2DBA CB 1D         [ 8] 7498 	rr	l
   2DBC CB 2C         [ 8] 7499 	sra	h
   2DBE CB 1D         [ 8] 7500 	rr	l
   2DC0 CB 2C         [ 8] 7501 	sra	h
   2DC2 CB 1D         [ 8] 7502 	rr	l
   2DC4 CB 2C         [ 8] 7503 	sra	h
   2DC6 CB 1D         [ 8] 7504 	rr	l
   2DC8 FD 21r52r00   [14] 7505 	ld	iy,#_prx
   2DCC FD 75 00      [19] 7506 	ld	0 (iy),l
   2DCF 2Ar4Cr00      [16] 7507 	ld	hl,(_py)
   2DD2 CB 2C         [ 8] 7508 	sra	h
   2DD4 CB 1D         [ 8] 7509 	rr	l
   2DD6 CB 2C         [ 8] 7510 	sra	h
   2DD8 CB 1D         [ 8] 7511 	rr	l
   2DDA CB 2C         [ 8] 7512 	sra	h
   2DDC CB 1D         [ 8] 7513 	rr	l
   2DDE CB 2C         [ 8] 7514 	sra	h
   2DE0 CB 1D         [ 8] 7515 	rr	l
   2DE2 CB 2C         [ 8] 7516 	sra	h
   2DE4 CB 1D         [ 8] 7517 	rr	l
   2DE6 CB 2C         [ 8] 7518 	sra	h
   2DE8 CB 1D         [ 8] 7519 	rr	l
   2DEA FD 21r53r00   [14] 7520 	ld	iy,#_pry
   2DEE FD 75 00      [19] 7521 	ld	0 (iy),l
                           7522 ;mainloop.h:233: player_move ();
   2DF1 CDrA7r0C      [17] 7523 	call	_player_move
                           7524 ;mainloop.h:234: enems_move ();
   2DF4 CDr0Fr1A      [17] 7525 	call	_enems_move
                           7526 ;mainloop.h:236: if (hrt) hotspots_paint ();
   2DF7 3Ar7Cr00      [13] 7527 	ld	a,(#_hrt + 0)
   2DFA B7            [ 4] 7528 	or	a, a
   2DFB 28 03         [12] 7529 	jr	Z,00109$
   2DFD CDr51r08      [17] 7530 	call	_hotspots_paint
   2E00                    7531 00109$:
                           7532 ;mainloop.h:251: SG_finalizeSprites ();
   2E00 CDr00r00      [17] 7533 	call	_SG_finalizeSprites
                           7534 ;mainloop.h:252: hud_update ();
   2E03 CDr14r27      [17] 7535 	call	_hud_update
                           7536 ;mainloop.h:253: SG_waitForVBlank ();
   2E06 CDr00r00      [17] 7537 	call	_SG_waitForVBlank
                           7538 ;mainloop.h:254: UNSAFE_SG_copySpritestoSAT ();
   2E09 CDr00r00      [17] 7539 	call	_UNSAFE_SG_copySpritestoSAT
                           7540 ;mainloop.h:255: clear_update_list ();	
   2E0C C3r00r00      [10] 7541 	jp  _clear_update_list
                           7542 ;mainloop.h:258: void game_loop (void) {
                           7543 ;	---------------------------------
                           7544 ; Function game_loop
                           7545 ; ---------------------------------
   2E0F                    7546 _game_loop::
   2E0F DD E5         [15] 7547 	push	ix
   2E11 DD 21 00 00   [14] 7548 	ld	ix,#0
   2E15 DD 39         [15] 7549 	add	ix,sp
   2E17 3B            [ 6] 7550 	dec	sp
                           7551 ;mainloop.h:265: clear_update_list ();
   2E18 CDr00r00      [17] 7552 	call	_clear_update_list
                           7553 ;mainloop.h:268: on_pant = 99; ft = 1; fade_delay = 1;
   2E1B 21rC1r01      [10] 7554 	ld	hl,#_on_pant + 0
   2E1E 36 63         [10] 7555 	ld	(hl), #0x63
   2E20 21r7Er00      [10] 7556 	ld	hl,#_ft + 0
   2E23 36 01         [10] 7557 	ld	(hl), #0x01
   2E25 21rFCr00      [10] 7558 	ld	hl,#_fade_delay + 0
   2E28 36 01         [10] 7559 	ld	(hl), #0x01
                           7560 ;mainloop.h:272: SG_displayOn ();
   2E2A 21 40 01      [10] 7561 	ld	hl,#0x0140
   2E2D E5            [11] 7562 	push	hl
   2E2E CDr00r00      [17] 7563 	call	_SG_VDPturnOnFeature
   2E31 F1            [10] 7564 	pop	af
                           7565 ;mainloop.h:283: ntsc_frame = level_reset = warp_to_level = 0; 
   2E32 21rC7r01      [10] 7566 	ld	hl,#_warp_to_level + 0
   2E35 36 00         [10] 7567 	ld	(hl), #0x00
   2E37 21rC8r01      [10] 7568 	ld	hl,#_level_reset + 0
   2E3A 36 00         [10] 7569 	ld	(hl), #0x00
   2E3C 21r99r00      [10] 7570 	ld	hl,#_ntsc_frame + 0
   2E3F 36 00         [10] 7571 	ld	(hl), #0x00
                           7572 ;mainloop.h:284: ticker = 50;
   2E41 21r1Fr00      [10] 7573 	ld	hl,#_ticker + 0
   2E44 36 32         [10] 7574 	ld	(hl), #0x32
                           7575 ;mainloop.h:286: while (1) {
   2E46                    7576 00167$:
                           7577 ;mainloop.h:293: hud_update ();
   2E46 CDr14r27      [17] 7578 	call	_hud_update
                           7579 ;mainloop.h:297: if (pkill) player_kill ();
   2E49 3Ar6Br00      [13] 7580 	ld	a,(#_pkill + 0)
   2E4C B7            [ 4] 7581 	or	a, a
   2E4D 28 03         [12] 7582 	jr	Z,00102$
   2E4F CDrA0r0B      [17] 7583 	call	_player_kill
   2E52                    7584 00102$:
                           7585 ;mainloop.h:298: if (game_over || level_reset) break;			
   2E52 3ArC6r01      [13] 7586 	ld	a,(#_game_over + 0)
   2E55 B7            [ 4] 7587 	or	a, a
   2E56 C2rC5r30      [10] 7588 	jp	NZ,00168$
   2E59 3ArC8r01      [13] 7589 	ld	a,(#_level_reset + 0)
   2E5C B7            [ 4] 7590 	or	a, a
   2E5D C2rC5r30      [10] 7591 	jp	NZ,00168$
                           7592 ;mainloop.h:302: flick_override = 0;
   2E60 21rC9r01      [10] 7593 	ld	hl,#_flick_override + 0
   2E63 36 00         [10] 7594 	ld	(hl), #0x00
                           7595 ;mainloop.h:305: flickscreen_do_horizontal ();
   2E65 CDr6Er2A      [17] 7596 	call	_flickscreen_do_horizontal
                           7597 ;mainloop.h:306: flickscreen_do_vertical ();
   2E68 CDrB9r2A      [17] 7598 	call	_flickscreen_do_vertical
                           7599 ;mainloop.h:311: if (on_pant != n_pant) {
   2E6B 3ArC1r01      [13] 7600 	ld	a,(#_on_pant + 0)
   2E6E FD 21rC0r01   [14] 7601 	ld	iy,#_n_pant
   2E72 FD 96 00      [19] 7602 	sub	a, 0 (iy)
   2E75 28 09         [12] 7603 	jr	Z,00109$
                           7604 ;mainloop.h:312: prepare_scr ();
   2E77 CDr34r2D      [17] 7605 	call	_prepare_scr
                           7606 ;mainloop.h:313: on_pant = n_pant;
   2E7A 3ArC0r01      [13] 7607 	ld	a,(#_n_pant + 0)
   2E7D 32rC1r01      [13] 7608 	ld	(#_on_pant + 0),a
   2E80                    7609 00109$:
                           7610 ;mainloop.h:332: update_cycle ();
   2E80 CDr1Dr08      [17] 7611 	call	_update_cycle
                           7612 ;mainloop.h:336: pad_read ();
   2E83 CDr5Er07      [17] 7613 	call	_pad_read
                           7614 ;mainloop.h:337: a_button = (pad_this_frame & PAD_A);
   2E86 3Ar06r00      [13] 7615 	ld	a,(#_pad_this_frame + 0)
   2E89 E6 20         [ 7] 7616 	and	a, #0x20
   2E8B 67            [ 4] 7617 	ld	h,a
   2E8C FD 21r59r00   [14] 7618 	ld	iy,#_a_button
   2E90 FD 74 00      [19] 7619 	ld	0 (iy),h
                           7620 ;mainloop.h:338: b_button = (pad_this_frame & PAD_B);
   2E93 3Ar06r00      [13] 7621 	ld	a,(#_pad_this_frame + 0)
   2E96 E6 10         [ 7] 7622 	and	a, #0x10
   2E98 67            [ 4] 7623 	ld	h,a
   2E99 FD 21r5Ar00   [14] 7624 	ld	iy,#_b_button
   2E9D FD 74 00      [19] 7625 	ld	0 (iy),h
                           7626 ;mainloop.h:342: ntsc_frame ++; if (ntsc_frame == 6) ntsc_frame = 0;
   2EA0 FD 21r99r00   [14] 7627 	ld	iy,#_ntsc_frame
   2EA4 FD 34 00      [23] 7628 	inc	0 (iy)
   2EA7 3Ar99r00      [13] 7629 	ld	a,(#_ntsc_frame + 0)
   2EAA D6 06         [ 7] 7630 	sub	a, #0x06
   2EAC 20 08         [12] 7631 	jr	NZ,00111$
   2EAE FD 21r99r00   [14] 7632 	ld	iy,#_ntsc_frame
   2EB2 FD 36 00 00   [19] 7633 	ld	0 (iy),#0x00
   2EB6                    7634 00111$:
                           7635 ;mainloop.h:344: if (paused == 0 && (ntsc == 0 || ntsc_frame)) {
   2EB6 3ArC4r01      [13] 7636 	ld	a,(#_paused + 0)
   2EB9 B7            [ 4] 7637 	or	a, a
   2EBA C2rA4r30      [10] 7638 	jp	NZ,00159$
   2EBD 3Ar98r00      [13] 7639 	ld	a,(#_ntsc + 0)
   2EC0 B7            [ 4] 7640 	or	a, a
   2EC1 28 07         [12] 7641 	jr	Z,00158$
   2EC3 3Ar99r00      [13] 7642 	ld	a,(#_ntsc_frame + 0)
   2EC6 B7            [ 4] 7643 	or	a, a
   2EC7 CArA4r30      [10] 7644 	jp	Z,00159$
   2ECA                    7645 00158$:
                           7646 ;mainloop.h:346: if (ticker) -- ticker; else ticker = 50;
   2ECA 3Ar1Fr00      [13] 7647 	ld	a,(#_ticker + 0)
   2ECD B7            [ 4] 7648 	or	a, a
   2ECE 28 09         [12] 7649 	jr	Z,00113$
   2ED0 FD 21r1Fr00   [14] 7650 	ld	iy,#_ticker
   2ED4 FD 35 00      [23] 7651 	dec	0 (iy)
   2ED7 18 08         [12] 7652 	jr	00114$
   2ED9                    7653 00113$:
   2ED9 FD 21r1Fr00   [14] 7654 	ld	iy,#_ticker
   2EDD FD 36 00 32   [19] 7655 	ld	0 (iy),#0x32
   2EE1                    7656 00114$:
                           7657 ;mainloop.h:347: half_life ^= 1;
   2EE1 3ArC2r01      [13] 7658 	ld	a,(#_half_life + 0)
   2EE4 EE 01         [ 7] 7659 	xor	a, #0x01
   2EE6 FD 21rC2r01   [14] 7660 	ld	iy,#_half_life
   2EEA FD 77 00      [19] 7661 	ld	0 (iy),a
                           7662 ;mainloop.h:348: ++ frame_counter;
   2EED FD 21rC3r01   [14] 7663 	ld	iy,#_frame_counter
   2EF1 FD 34 00      [23] 7664 	inc	0 (iy)
                           7665 ;mainloop/hotspots.h:6: if (hrt) {
   2EF4 3Ar7Cr00      [13] 7666 	ld	a,(#_hrt + 0)
   2EF7 B7            [ 4] 7667 	or	a, a
   2EF8 CArE0r2F      [10] 7668 	jp	Z,00131$
                           7669 ;mainloop.h:7: void game_init (void) {
   2EFB FD 21r7Br00   [14] 7670 	ld	iy,#_hry
   2EFF FD 5E 00      [19] 7671 	ld	e,0 (iy)
   2F02 FD 21r7Ar00   [14] 7672 	ld	iy,#_hrx
   2F06 FD 4E 00      [19] 7673 	ld	c,0 (iy)
   2F09 3Ar53r00      [13] 7674 	ld	a,(#_pry + 0)
   2F0C C6 08         [ 7] 7675 	add	a, #0x08
   2F0E 57            [ 4] 7676 	ld	d,a
   2F0F FD 21r52r00   [14] 7677 	ld	iy,#_prx
   2F13 FD 6E 00      [19] 7678 	ld	l,0 (iy)
   2F16 2C            [ 4] 7679 	inc	l
   2F17 2C            [ 4] 7680 	inc	l
   2F18 2C            [ 4] 7681 	inc	l
   2F19 2C            [ 4] 7682 	inc	l
                           7683 ;engine/general.h:28: return (x0 >= x1 && x0 <= x1 + 15 && y0 >= y1 && y0 <= y1 + 15);	
   2F1A 7D            [ 4] 7684 	ld	a,l
   2F1B 91            [ 4] 7685 	sub	a, c
   2F1C DArE0r2F      [10] 7686 	jp	C,00131$
   2F1F 06 00         [ 7] 7687 	ld	b,#0x00
   2F21 79            [ 4] 7688 	ld	a,c
   2F22 C6 0F         [ 7] 7689 	add	a, #0x0F
   2F24 4F            [ 4] 7690 	ld	c,a
   2F25 78            [ 4] 7691 	ld	a,b
   2F26 CE 00         [ 7] 7692 	adc	a, #0x00
   2F28 47            [ 4] 7693 	ld	b,a
   2F29 26 00         [ 7] 7694 	ld	h,#0x00
   2F2B 79            [ 4] 7695 	ld	a,c
   2F2C 95            [ 4] 7696 	sub	a, l
   2F2D 78            [ 4] 7697 	ld	a,b
   2F2E 9C            [ 4] 7698 	sbc	a, h
   2F2F E2r34r2F      [10] 7699 	jp	PO, 00325$
   2F32 EE 80         [ 7] 7700 	xor	a, #0x80
   2F34                    7701 00325$:
   2F34 FArE0r2F      [10] 7702 	jp	M,00131$
   2F37 7A            [ 4] 7703 	ld	a,d
   2F38 93            [ 4] 7704 	sub	a, e
   2F39 DArE0r2F      [10] 7705 	jp	C,00131$
   2F3C 6B            [ 4] 7706 	ld	l,e
   2F3D 26 00         [ 7] 7707 	ld	h,#0x00
   2F3F 01 0F 00      [10] 7708 	ld	bc,#0x000F
   2F42 09            [11] 7709 	add	hl,bc
   2F43 1E 00         [ 7] 7710 	ld	e,#0x00
   2F45 7D            [ 4] 7711 	ld	a,l
   2F46 92            [ 4] 7712 	sub	a, d
   2F47 7C            [ 4] 7713 	ld	a,h
   2F48 9B            [ 4] 7714 	sbc	a, e
   2F49 E2r4Er2F      [10] 7715 	jp	PO, 00326$
   2F4C EE 80         [ 7] 7716 	xor	a, #0x80
   2F4E                    7717 00326$:
   2F4E FArE0r2F      [10] 7718 	jp	M,00131$
                           7719 ;mainloop/hotspots.h:9: if (hrt == HOTSPOT_TYPE_RESONATOR) {
   2F51 3Ar7Cr00      [13] 7720 	ld	a,(#_hrt + 0)
   2F54 D6 04         [ 7] 7721 	sub	a, #0x04
   2F56 20 3A         [12] 7722 	jr	NZ,00126$
                           7723 ;mainloop/hotspots.h:10: if (pvy > 0 && pry < hry) {
   2F58 AF            [ 4] 7724 	xor	a, a
   2F59 FD 21r50r00   [14] 7725 	ld	iy,#_pvy
   2F5D FD BE 00      [19] 7726 	cp	a, 0 (iy)
   2F60 FD 21r50r00   [14] 7727 	ld	iy,#_pvy
   2F64 FD 9E 01      [19] 7728 	sbc	a, 1 (iy)
   2F67 E2r6Cr2F      [10] 7729 	jp	PO, 00329$
   2F6A EE 80         [ 7] 7730 	xor	a, #0x80
   2F6C                    7731 00329$:
   2F6C F2rE0r2F      [10] 7732 	jp	P,00131$
   2F6F 21r7Br00      [10] 7733 	ld	hl,#_hry
   2F72 3Ar53r00      [13] 7734 	ld	a,(#_pry + 0)
   2F75 96            [ 7] 7735 	sub	a, (hl)
   2F76 30 68         [12] 7736 	jr	NC,00131$
                           7737 ;mainloop/hotspots.h:11: if (res_on == 0) {
   2F78 3ArB7r02      [13] 7738 	ld	a,(#_res_on + 0)
   2F7B B7            [ 4] 7739 	or	a, a
   2F7C 20 62         [12] 7740 	jr	NZ,00131$
                           7741 ;mainloop/hotspots.h:12: res_on = 1; res_ct = 9; res_subct = 50;
   2F7E 21rB7r02      [10] 7742 	ld	hl,#_res_on + 0
   2F81 36 01         [10] 7743 	ld	(hl), #0x01
   2F83 21rB8r02      [10] 7744 	ld	hl,#_res_ct + 0
   2F86 36 09         [10] 7745 	ld	(hl), #0x09
   2F88 21rB9r02      [10] 7746 	ld	hl,#_res_subct + 0
   2F8B 36 32         [10] 7747 	ld	(hl), #0x32
                           7748 ;mainloop/hotspots.h:13: jump_start ();
   2F8D CDr0Cr08      [17] 7749 	call	_jump_start
   2F90 18 4E         [12] 7750 	jr	00131$
   2F92                    7751 00126$:
                           7752 ;mainloop/hotspots.h:128: rda = 0;
   2F92 FD 21r18r00   [14] 7753 	ld	iy,#_rda
   2F96 FD 36 00 00   [19] 7754 	ld	0 (iy),#0x00
                           7755 ;mainloop/hotspots.h:129: switch (hrt) {
   2F9A 3Ar7Cr00      [13] 7756 	ld	a,(#_hrt + 0)
   2F9D FE 02         [ 7] 7757 	cp	a,#0x02
   2F9F 28 06         [12] 7758 	jr	Z,00120$
   2FA1 D6 03         [ 7] 7759 	sub	a, #0x03
   2FA3 28 13         [12] 7760 	jr	Z,00121$
   2FA5 18 20         [12] 7761 	jr	00122$
                           7762 ;mainloop/hotspots.h:151: case HOTSPOT_TYPE_KEYS:
   2FA7                    7763 00120$:
                           7764 ;mainloop/hotspots.h:152: ++ pkeys;
   2FA7 FD 21r70r00   [14] 7765 	ld	iy,#_pkeys
   2FAB FD 34 00      [23] 7766 	inc	0 (iy)
                           7767 ;mainloop/hotspots.h:153: rda = SFX_OBJECT;
   2FAE FD 21r18r00   [14] 7768 	ld	iy,#_rda
   2FB2 FD 36 00 02   [19] 7769 	ld	0 (iy),#0x02
                           7770 ;mainloop/hotspots.h:154: break;
   2FB6 18 0F         [12] 7771 	jr	00122$
                           7772 ;mainloop/hotspots.h:156: case HOTSPOT_TYPE_REFILL:
   2FB8                    7773 00121$:
                           7774 ;mainloop/hotspots.h:157: plife += PLAYER_REFILL;
   2FB8 FD 21r6Fr00   [14] 7775 	ld	iy,#_plife
   2FBC FD 34 00      [23] 7776 	inc	0 (iy)
                           7777 ;mainloop/hotspots.h:161: rda = SFX_USE;
   2FBF FD 21r18r00   [14] 7778 	ld	iy,#_rda
   2FC3 FD 36 00 03   [19] 7779 	ld	0 (iy),#0x03
                           7780 ;mainloop/hotspots.h:191: }
   2FC7                    7781 00122$:
                           7782 ;mainloop/hotspots.h:192: if (rda) {
   2FC7 3Ar18r00      [13] 7783 	ld	a,(#_rda + 0)
   2FCA B7            [ 4] 7784 	or	a, a
   2FCB 28 13         [12] 7785 	jr	Z,00131$
                           7786 ;mainloop/hotspots.h:194: hrt = 0;
   2FCD 21r7Cr00      [10] 7787 	ld	hl,#_hrt + 0
   2FD0 36 00         [10] 7788 	ld	(hl), #0x00
                           7789 ;mainloop/hotspots.h:195: hact [n_pant] = 0;
   2FD2 3ErD2         [ 7] 7790 	ld	a,#<(_hact)
   2FD4 21rC0r01      [10] 7791 	ld	hl,#_n_pant
   2FD7 86            [ 7] 7792 	add	a, (hl)
   2FD8 5F            [ 4] 7793 	ld	e,a
   2FD9 3Es01         [ 7] 7794 	ld	a,#>(_hact)
   2FDB CE 00         [ 7] 7795 	adc	a, #0x00
   2FDD 57            [ 4] 7796 	ld	d,a
   2FDE AF            [ 4] 7797 	xor	a, a
   2FDF 12            [ 7] 7798 	ld	(de),a
   2FE0                    7799 00131$:
                           7800 ;mainloop.h:368: if (!warp_to_level) {
   2FE0 3ArC7r01      [13] 7801 	ld	a,(#_warp_to_level + 0)
   2FE3 B7            [ 4] 7802 	or	a, a
   2FE4 20 03         [12] 7803 	jr	NZ,00133$
                           7804 ;mainloop.h:369: player_move ();
   2FE6 CDrA7r0C      [17] 7805 	call	_player_move
   2FE9                    7806 00133$:
                           7807 ;my/extra_checks.h:14: if (c_max_enems == pkilled) {
   2FE9 3ArBFr01      [13] 7808 	ld	a,(#_c_max_enems + 0)
   2FEC FD 21r73r00   [14] 7809 	ld	iy,#_pkilled
   2FF0 FD 96 00      [19] 7810 	sub	a, 0 (iy)
   2FF3 20 17         [12] 7811 	jr	NZ,00139$
                           7812 ;my/extra_checks.h:16: en_cttouched [0] == 0 &&
   2FF5 3Ar23r02      [13] 7813 	ld	a, (#_en_cttouched + 0)
   2FF8 B7            [ 4] 7814 	or	a, a
   2FF9 20 11         [12] 7815 	jr	NZ,00139$
                           7816 ;my/extra_checks.h:17: en_cttouched [1] == 0 &&
   2FFB 3Ar24r02      [13] 7817 	ld	a, (#_en_cttouched + 1)
   2FFE B7            [ 4] 7818 	or	a, a
   2FFF 20 0B         [12] 7819 	jr	NZ,00139$
                           7820 ;my/extra_checks.h:18: en_cttouched [2] == 0
   3001 3Ar25r02      [13] 7821 	ld	a, (#_en_cttouched + 2)
   3004 B7            [ 4] 7822 	or	a, a
   3005 20 05         [12] 7823 	jr	NZ,00139$
                           7824 ;my/extra_checks.h:19: ) win_level = 1;
   3007 21rC5r01      [10] 7825 	ld	hl,#_win_level + 0
   300A 36 01         [10] 7826 	ld	(hl), #0x01
   300C                    7827 00139$:
                           7828 ;mainloop/win_level_condition.h:10: win_level
   300C 3ArC5r01      [13] 7829 	ld	a,(#_win_level + 0)
   300F B7            [ 4] 7830 	or	a, a
   3010 28 0E         [12] 7831 	jr	Z,00141$
                           7832 ;mainloop/win_level_condition.h:23: PSGStop ();
   3012 CDr00r00      [17] 7833 	call	_PSGStop
                           7834 ;mainloop/win_level_condition.h:24: delay (50);
   3015 3E 32         [ 7] 7835 	ld	a,#0x32
   3017 F5            [11] 7836 	push	af
   3018 33            [ 6] 7837 	inc	sp
   3019 CDr00r00      [17] 7838 	call	_delay
   301C 33            [ 6] 7839 	inc	sp
                           7840 ;mainloop/win_level_condition.h:25: break;
   301D C3rC5r30      [10] 7841 	jp	00168$
   3020                    7842 00141$:
                           7843 ;mainloop.h:406: cur_stp = SG_getStp (); 
   3020 CDr00r00      [17] 7844 	call	_SG_getStp
   3023 22r27r00      [16] 7845 	ld	(_cur_stp),hl
                           7846 ;mainloop.h:407: if (!warp_to_level)	player_render ();
   3026 3ArC7r01      [13] 7847 	ld	a,(#_warp_to_level + 0)
   3029 B7            [ 4] 7848 	or	a, a
   302A 20 03         [12] 7849 	jr	NZ,00143$
   302C CDr2Br0B      [17] 7850 	call	_player_render
   302F                    7851 00143$:
                           7852 ;mainloop.h:411: enems_move ();
   302F CDr0Fr1A      [17] 7853 	call	_enems_move
                           7854 ;mainloop.h:415: if (warp_to_level) {
   3032 3ArC7r01      [13] 7855 	ld	a,(#_warp_to_level + 0)
   3035 B7            [ 4] 7856 	or	a, a
   3036 28 09         [12] 7857 	jr	Z,00145$
                           7858 ;mainloop.h:416: update_cycle (); PSGStop (); break;
   3038 CDr1Dr08      [17] 7859 	call	_update_cycle
   303B CDr00r00      [17] 7860 	call	_PSGStop
   303E C3rC5r30      [10] 7861 	jp	00168$
   3041                    7862 00145$:
                           7863 ;mainloop/resonators.h:5: if (res_on) {
   3041 3ArB7r02      [13] 7864 	ld	a,(#_res_on + 0)
   3044 B7            [ 4] 7865 	or	a, a
   3045 28 2E         [12] 7866 	jr	Z,00153$
                           7867 ;mainloop/resonators.h:20: if (res_subct) -- res_subct; else {
   3047 3ArB9r02      [13] 7868 	ld	a,(#_res_subct + 0)
   304A B7            [ 4] 7869 	or	a, a
   304B 28 09         [12] 7870 	jr	Z,00150$
   304D FD 21rB9r02   [14] 7871 	ld	iy,#_res_subct
   3051 FD 35 00      [23] 7872 	dec	0 (iy)
   3054 18 1F         [12] 7873 	jr	00153$
   3056                    7874 00150$:
                           7875 ;mainloop/resonators.h:21: res_subct = 50;
   3056 FD 21rB9r02   [14] 7876 	ld	iy,#_res_subct
   305A FD 36 00 32   [19] 7877 	ld	0 (iy),#0x32
                           7878 ;mainloop/resonators.h:22: if (res_ct) { 
   305E 3ArB8r02      [13] 7879 	ld	a,(#_res_ct + 0)
   3061 B7            [ 4] 7880 	or	a, a
   3062 28 09         [12] 7881 	jr	Z,00147$
                           7882 ;mainloop/resonators.h:23: -- res_ct; 
   3064 FD 21rB8r02   [14] 7883 	ld	iy,#_res_ct
   3068 FD 35 00      [23] 7884 	dec	0 (iy)
   306B 18 08         [12] 7885 	jr	00153$
   306D                    7886 00147$:
                           7887 ;mainloop/resonators.h:26: res_on = 0;
   306D FD 21rB7r02   [14] 7888 	ld	iy,#_res_on
   3071 FD 36 00 00   [19] 7889 	ld	0 (iy),#0x00
   3075                    7890 00153$:
                           7891 ;mainloop.h:427: if (hrt) hotspots_paint ();
   3075 3Ar7Cr00      [13] 7892 	ld	a,(#_hrt + 0)
   3078 B7            [ 4] 7893 	or	a, a
   3079 28 03         [12] 7894 	jr	Z,00155$
   307B CDr51r08      [17] 7895 	call	_hotspots_paint
   307E                    7896 00155$:
                           7897 ;mainloop/no.h:5: if (no_ct) {
   307E 3ArD0r01      [13] 7898 	ld	a,(#_no_ct + 0)
   3081 B7            [ 4] 7899 	or	a, a
   3082 28 1D         [12] 7900 	jr	Z,00157$
                           7901 ;mainloop/no.h:6: -- no_ct;
   3084 FD 21rD0r01   [14] 7902 	ld	iy,#_no_ct
   3088 FD 35 00      [23] 7903 	dec	0 (iy)
                           7904 ;mainloop/no.h:9: NO_METASPRITE
   308B 11r00r00      [10] 7905 	ld	de,#_ss_it_06
                           7906 ;mainloop/no.h:8: prx + NO_OFFS_X, pry + NO_OFFS_Y + SPRITE_ADJUST,
   308E 3Ar53r00      [13] 7907 	ld	a,(#_pry + 0)
   3091 C6 E4         [ 7] 7908 	add	a, #0xE4
   3093 67            [ 4] 7909 	ld	h,a
   3094 D5            [11] 7910 	push	de
   3095 E5            [11] 7911 	push	hl
   3096 33            [ 6] 7912 	inc	sp
   3097 3Ar52r00      [13] 7913 	ld	a,(_prx)
   309A F5            [11] 7914 	push	af
   309B 33            [ 6] 7915 	inc	sp
   309C CDr00r00      [17] 7916 	call	_SG_addMetaSprite1x1
   309F F1            [10] 7917 	pop	af
   30A0 F1            [10] 7918 	pop	af
   30A1                    7919 00157$:
                           7920 ;mainloop.h:456: chac_chacs_do ();
   30A1 CDr4Er09      [17] 7921 	call	_chac_chacs_do
   30A4                    7922 00159$:
                           7923 ;mainloop/cheat.h:5: if ((pad0 & (PAD_B|PAD_SELECT|PAD_UP)) == (PAD_B|PAD_SELECT|PAD_UP)) break;
   30A4 3Ar04r00      [13] 7924 	ld	a,(#_pad0 + 0)
   30A7 E6 31         [ 7] 7925 	and	a, #0x31
   30A9 2E 00         [ 7] 7926 	ld	l, #0x00
   30AB D6 31         [ 7] 7927 	sub	a,#0x31
   30AD 20 03         [12] 7928 	jr	NZ,00334$
   30AF B5            [ 4] 7929 	or	a,l
   30B0 28 13         [12] 7930 	jr	Z,00168$
   30B2                    7931 00334$:
   30B2 21r06r00      [10] 7932 	ld	hl,#_pad_this_frame+0
   30B5 CB 66         [12] 7933 	bit	4, (hl)
   30B7 CAr46r2E      [10] 7934 	jp	Z,00167$
                           7935 ;mainloop/pause.h:6: paused ^= 1;
   30BA 3ArC4r01      [13] 7936 	ld	a,(#_paused + 0)
   30BD EE 01         [ 7] 7937 	xor	a, #0x01
   30BF 32rC4r01      [13] 7938 	ld	(#_paused + 0),a
   30C2 C3r46r2E      [10] 7939 	jp	00167$
   30C5                    7940 00168$:
                           7941 ;mainloop.h:473: SG_displayOff ();
   30C5 21 40 01      [10] 7942 	ld	hl,#0x0140
   30C8 E5            [11] 7943 	push	hl
   30C9 CDr00r00      [17] 7944 	call	_SG_VDPturnOffFeature
   30CC F1            [10] 7945 	pop	af
   30CD 33            [ 6] 7946 	inc	sp
   30CE DD E1         [14] 7947 	pop	ix
   30D0 C9            [10] 7948 	ret
                           7949 ;game.c:111: void main(void) {
                           7950 ;	---------------------------------
                           7951 ; Function main
                           7952 ; ---------------------------------
   30D1                    7953 _main::
                           7954 ;game.c:112: SG_displayOff ();
   30D1 21 40 01      [10] 7955 	ld	hl,#0x0140
   30D4 E5            [11] 7956 	push	hl
   30D5 CDr00r00      [17] 7957 	call	_SG_VDPturnOffFeature
                           7958 ;game.c:113: SG_setSpriteMode (SG_SPRITEMODE_LARGE);
   30D8 26 01         [ 7] 7959 	ld	h,#0x01
   30DA E3            [19] 7960 	ex	(sp),hl
   30DB 33            [ 6] 7961 	inc	sp
   30DC CDr00r00      [17] 7962 	call	_SG_setSpriteMode
   30DF 33            [ 6] 7963 	inc	sp
                           7964 ;game.c:114: first_game = 1;
   30E0 21rBDr01      [10] 7965 	ld	hl,#_first_game + 0
   30E3 36 01         [10] 7966 	ld	(hl), #0x01
                           7967 ;game.c:120: unpack_bg_patterns (tsfont_patterns_c, tsfont_colours_c, 0, 7);
   30E5 11r00r00      [10] 7968 	ld	de,#_tsfont_colours_c+0
   30E8 01r00r00      [10] 7969 	ld	bc,#_tsfont_patterns_c+0
   30EB 3E 07         [ 7] 7970 	ld	a,#0x07
   30ED F5            [11] 7971 	push	af
   30EE 33            [ 6] 7972 	inc	sp
   30EF 21 00 00      [10] 7973 	ld	hl,#0x0000
   30F2 E5            [11] 7974 	push	hl
   30F3 D5            [11] 7975 	push	de
   30F4 C5            [11] 7976 	push	bc
   30F5 CDr00r00      [17] 7977 	call	_unpack_bg_patterns
   30F8 21 07 00      [10] 7978 	ld	hl,#7
   30FB 39            [11] 7979 	add	hl,sp
   30FC F9            [ 6] 7980 	ld	sp,hl
                           7981 ;game.c:122: mode_no_resonators = 0;
   30FD 21rBDr02      [10] 7982 	ld	hl,#_mode_no_resonators + 0
   3100 36 00         [10] 7983 	ld	(hl), #0x00
                           7984 ;game.c:123: credits ();
   3102 CDr91r29      [17] 7985 	call	_credits
                           7986 ;game.c:126: aPLib_depack_VRAM (SGTADDRESS, ss_fixed_patterns_c);
   3105 21r00r00      [10] 7987 	ld	hl,#_ss_fixed_patterns_c+0
   3108 E5            [11] 7988 	push	hl
   3109 21 00 38      [10] 7989 	ld	hl,#0x3800
   310C E5            [11] 7990 	push	hl
   310D CDr00r00      [17] 7991 	call	_aPLib_depack_VRAM
   3110 F1            [10] 7992 	pop	af
   3111 F1            [10] 7993 	pop	af
                           7994 ;game.c:128: while (1) {	
   3112                    7995 00110$:
                           7996 ;game.c:129: title ();
   3112 CDrC3r27      [17] 7997 	call	_title
                           7998 ;game.c:131: level = 0;
   3115 21rBEr01      [10] 7999 	ld	hl,#_level + 0
   3118 36 00         [10] 8000 	ld	(hl), #0x00
                           8001 ;game.c:132: plife = PLAYER_LIFE;
   311A 21r6Fr00      [10] 8002 	ld	hl,#_plife + 0
   311D 36 05         [10] 8003 	ld	(hl), #0x05
                           8004 ;game.c:136: while (1) {
   311F                    8005 00107$:
                           8006 ;game.c:137: pres (scr_level);
   311F 21r22r29      [10] 8007 	ld	hl,#_scr_level
   3122 E5            [11] 8008 	push	hl
   3123 CDrA9r27      [17] 8009 	call	_pres
   3126 F1            [10] 8010 	pop	af
                           8011 ;game.c:138: game_init (); 
   3127 CDr5Cr2B      [17] 8012 	call	_game_init
                           8013 ;game.c:139: game_loop ();
   312A CDr0Fr2E      [17] 8014 	call	_game_loop
                           8015 ;game.c:141: if (game_over) {
   312D 3ArC6r01      [13] 8016 	ld	a,(#_game_over + 0)
   3130 B7            [ 4] 8017 	or	a, a
   3131 28 0A         [12] 8018 	jr	Z,00104$
                           8019 ;game.c:142: pres (scr_game_over);
   3133 21r8Er28      [10] 8020 	ld	hl,#_scr_game_over
   3136 E5            [11] 8021 	push	hl
   3137 CDrA9r27      [17] 8022 	call	_pres
   313A F1            [10] 8023 	pop	af
                           8024 ;game.c:143: break;
   313B 18 13         [12] 8025 	jr	00108$
   313D                    8026 00104$:
                           8027 ;game.c:145: level ++;
   313D 21rBEr01      [10] 8028 	ld	hl, #_level+0
   3140 34            [11] 8029 	inc	(hl)
                           8030 ;game.c:146: if (level == MAX_LEVELS) {
   3141 3ArBEr01      [13] 8031 	ld	a,(#_level + 0)
   3144 D6 03         [ 7] 8032 	sub	a, #0x03
   3146 20 D7         [12] 8033 	jr	NZ,00107$
                           8034 ;game.c:147: pres (scr_the_end);
   3148 21rACr28      [10] 8035 	ld	hl,#_scr_the_end
   314B E5            [11] 8036 	push	hl
   314C CDrA9r27      [17] 8037 	call	_pres
   314F F1            [10] 8038 	pop	af
                           8039 ;game.c:148: break;
   3150                    8040 00108$:
                           8041 ;game.c:153: first_game = 0;
   3150 21rBDr01      [10] 8042 	ld	hl,#_first_game + 0
   3153 36 00         [10] 8043 	ld	(hl), #0x00
   3155 18 BB         [12] 8044 	jr	00110$
                           8045 	.area _CODE
                           8046 	.area _INITIALIZER
                           8047 	.area _CABS (ABS)
