                              1 ;--------------------------------------------------------
                              2 ; File Created by SDCC : free open source ANSI-C Compiler
                              3 ; Version 3.5.2 #9293 (MINGW32)
                              4 ; This file was generated Sun Nov 04 13:34:56 2018
                              5 ;--------------------------------------------------------
                              6 	.module player
                              7 	.optsdcc -mz80
                              8 	
                              9 ;--------------------------------------------------------
                             10 ; Public variables in this module
                             11 ;--------------------------------------------------------
                             12 	.globl _player_move
                             13 	.globl _player_process_tile
                             14 	.globl _player_kill
                             15 	.globl _player_to_pixels
                             16 	.globl _player_render
                             17 	.globl _player_init
                             18 	.globl _player_stop
                             19 	.globl _player_register_safe_spot
                             20 	.globl _update_cycle
                             21 	.globl _jump_start
                             22 	.globl _cm_two_points
                             23 	.globl _map_set
                             24 	.globl _delay
                             25 	.globl _PSGSFXPlay
                             26 	.globl _SG_setStp
                             27 	.globl _SG_addMetaSprite1x1
                             28 ;--------------------------------------------------------
                             29 ; special function registers
                             30 ;--------------------------------------------------------
                     00BF    31 _VDPControlPort	=	0x00bf
                     00BF    32 _VDPStatusPort	=	0x00bf
                     00BE    33 _VDPDataPort	=	0x00be
                     007E    34 _VDPVCounterPort	=	0x007e
                     007F    35 _VDPHCounterPort	=	0x007f
                     00DC    36 _IOPortL	=	0x00dc
                     00DD    37 _IOPortH	=	0x00dd
                             38 ;--------------------------------------------------------
                             39 ; ram data
                             40 ;--------------------------------------------------------
                             41 	.area _DATA
                             42 ;--------------------------------------------------------
                             43 ; ram data
                             44 ;--------------------------------------------------------
                             45 	.area _INITIALIZED
                             46 ;--------------------------------------------------------
                             47 ; absolute external ram data
                             48 ;--------------------------------------------------------
                             49 	.area _DABS (ABS)
                             50 ;--------------------------------------------------------
                             51 ; global & static initialisations
                             52 ;--------------------------------------------------------
                             53 	.area _HOME
                             54 	.area _GSINIT
                             55 	.area _GSFINAL
                             56 	.area _GSINIT
                             57 ;--------------------------------------------------------
                             58 ; Home
                             59 ;--------------------------------------------------------
                             60 	.area _HOME
                             61 	.area _HOME
                             62 ;--------------------------------------------------------
                             63 ; code
                             64 ;--------------------------------------------------------
                             65 	.area _CODE
                             66 ;engine/player.c:24: void player_register_safe_spot (void) {
                             67 ;	---------------------------------
                             68 ; Function player_register_safe_spot
                             69 ; ---------------------------------
   0000                      70 _player_register_safe_spot::
                             71 ;engine/player.c:25: px_safe = px;
   0000 2Ar00r00      [16]   72 	ld	hl,(_px)
   0003 22r00r00      [16]   73 	ld	(_px_safe),hl
                             74 ;engine/player.c:26: py_safe = py;
   0006 2Ar00r00      [16]   75 	ld	hl,(_py)
   0009 22r00r00      [16]   76 	ld	(_py_safe),hl
                             77 ;engine/player.c:27: n_pant_safe = n_pant;
   000C 3Ar00r00      [13]   78 	ld	a,(#_n_pant + 0)
   000F 32r00r00      [13]   79 	ld	(#_n_pant_safe + 0),a
   0012 C9            [10]   80 	ret
                             81 ;engine/player.c:31: void player_stop (void) {
                             82 ;	---------------------------------
                             83 ; Function player_stop
                             84 ; ---------------------------------
   0013                      85 _player_stop::
                             86 ;engine/player.c:32: pvx = pvy = 0;
   0013 21 00 00      [10]   87 	ld	hl,#0x0000
   0016 22r00r00      [16]   88 	ld	(_pvy),hl
   0019 2E 00         [ 7]   89 	ld	l, #0x00
   001B 22r00r00      [16]   90 	ld	(_pvx),hl
   001E C9            [10]   91 	ret
                             92 ;engine/player.c:35: void player_init (void) {
                             93 ;	---------------------------------
                             94 ; Function player_init
                             95 ; ---------------------------------
   001F                      96 _player_init::
                             97 ;engine/player.c:38: if (!warp_to_level) player_stop ();
   001F 3Ar00r00      [13]   98 	ld	a,(#_warp_to_level + 0)
   0022 B7            [ 4]   99 	or	a, a
   0023 20 03         [12]  100 	jr	NZ,00102$
   0025 CDr13r00      [17]  101 	call	_player_stop
   0028                     102 00102$:
                            103 ;engine/player.c:43: pfacing = 0;
   0028 21r00r00      [10]  104 	ld	hl,#_pfacing + 0
   002B 36 00         [10]  105 	ld	(hl), #0x00
                            106 ;engine/player.c:46: pfr = pctfr = 0;
   002D 21r00r00      [10]  107 	ld	hl,#_pctfr + 0
   0030 36 00         [10]  108 	ld	(hl), #0x00
   0032 21r00r00      [10]  109 	ld	hl,#_pfr + 0
   0035 36 00         [10]  110 	ld	(hl), #0x00
                            111 ;engine/player.c:47: pj = pctj = 0;
   0037 21r00r00      [10]  112 	ld	hl,#_pctj + 0
   003A 36 00         [10]  113 	ld	(hl), #0x00
   003C 21r00r00      [10]  114 	ld	hl,#_pj + 0
   003F 36 00         [10]  115 	ld	(hl), #0x00
                            116 ;engine/player.c:48: psprid = 0;
   0041 21r00r00      [10]  117 	ld	hl,#_psprid + 0
   0044 36 00         [10]  118 	ld	(hl), #0x00
                            119 ;engine/player.c:55: pkeys = 0;
   0046 21r00r00      [10]  120 	ld	hl,#_pkeys + 0
   0049 36 00         [10]  121 	ld	(hl), #0x00
                            122 ;engine/player.c:58: pgotten = 0;
   004B 21r00r00      [10]  123 	ld	hl,#_pgotten + 0
   004E 36 00         [10]  124 	ld	(hl), #0x00
                            125 ;engine/player.c:59: pfiring = 0;
   0050 21r00r00      [10]  126 	ld	hl,#_pfiring + 0
   0053 36 00         [10]  127 	ld	(hl), #0x00
                            128 ;engine/player.c:62: pkilled = 0;
   0055 21r00r00      [10]  129 	ld	hl,#_pkilled + 0
   0058 36 00         [10]  130 	ld	(hl), #0x00
                            131 ;engine/player.c:78: pflickering = pbouncing = 0;
   005A 21r00r00      [10]  132 	ld	hl,#_pbouncing + 0
   005D 36 00         [10]  133 	ld	(hl), #0x00
   005F 21r00r00      [10]  134 	ld	hl,#_pflickering + 0
   0062 36 00         [10]  135 	ld	(hl), #0x00
                            136 ;engine/player.c:81: player_register_safe_spot ();
   0064 CDr00r00      [17]  137 	call	_player_register_safe_spot
                            138 ;engine/player.c:91: vertical_engine_type = ENGINE_TYPE_JUMP;
   0067 21r00r00      [10]  139 	ld	hl,#_vertical_engine_type + 0
   006A 36 00         [10]  140 	ld	(hl), #0x00
   006C C9            [10]  141 	ret
                            142 ;engine/player.c:110: void player_render (void) {
                            143 ;	---------------------------------
                            144 ; Function player_render
                            145 ; ---------------------------------
   006D                     146 _player_render::
                            147 ;engine/player.c:111: if (0 == pflickering || half_life) 
   006D 3Ar00r00      [13]  148 	ld	a,(#_pflickering + 0)
   0070 B7            [ 4]  149 	or	a, a
   0071 28 05         [12]  150 	jr	Z,00101$
   0073 3Ar00r00      [13]  151 	ld	a,(#_half_life + 0)
   0076 B7            [ 4]  152 	or	a, a
   0077 C8            [11]  153 	ret	Z
   0078                     154 00101$:
                            155 ;engine/player.c:114: spr_player [psprid]
   0078 11r00r00      [10]  156 	ld	de,#_spr_player+0
   007B FD 21r00r00   [14]  157 	ld	iy,#_psprid
   007F FD 6E 00      [19]  158 	ld	l,0 (iy)
   0082 26 00         [ 7]  159 	ld	h,#0x00
   0084 29            [11]  160 	add	hl, hl
   0085 19            [11]  161 	add	hl,de
   0086 5E            [ 7]  162 	ld	e,(hl)
   0087 23            [ 6]  163 	inc	hl
   0088 56            [ 7]  164 	ld	d,(hl)
                            165 ;engine/player.c:113: prx - 4, pry + SPRITE_ADJUST, 
   0089 3Ar00r00      [13]  166 	ld	a,(#_pry + 0)
   008C C6 F7         [ 7]  167 	add	a, #0xF7
   008E 47            [ 4]  168 	ld	b,a
   008F 3Ar00r00      [13]  169 	ld	a,(#_prx + 0)
   0092 C6 FC         [ 7]  170 	add	a,#0xFC
   0094 4F            [ 4]  171 	ld	c,a
   0095 D5            [11]  172 	push	de
   0096 C5            [11]  173 	push	bc
   0097 CDr00r00      [17]  174 	call	_SG_addMetaSprite1x1
   009A F1            [10]  175 	pop	af
   009B F1            [10]  176 	pop	af
   009C C9            [10]  177 	ret
                            178 ;engine/player.c:118: void player_to_pixels (void) {
                            179 ;	---------------------------------
                            180 ; Function player_to_pixels
                            181 ; ---------------------------------
   009D                     182 _player_to_pixels::
                            183 ;engine/player.c:119: prx = px >> FIXBITS;
   009D 2Ar00r00      [16]  184 	ld	hl,(_px)
   00A0 CB 2C         [ 8]  185 	sra	h
   00A2 CB 1D         [ 8]  186 	rr	l
   00A4 CB 2C         [ 8]  187 	sra	h
   00A6 CB 1D         [ 8]  188 	rr	l
   00A8 CB 2C         [ 8]  189 	sra	h
   00AA CB 1D         [ 8]  190 	rr	l
   00AC CB 2C         [ 8]  191 	sra	h
   00AE CB 1D         [ 8]  192 	rr	l
   00B0 CB 2C         [ 8]  193 	sra	h
   00B2 CB 1D         [ 8]  194 	rr	l
   00B4 CB 2C         [ 8]  195 	sra	h
   00B6 CB 1D         [ 8]  196 	rr	l
   00B8 FD 21r00r00   [14]  197 	ld	iy,#_prx
   00BC FD 75 00      [19]  198 	ld	0 (iy),l
                            199 ;engine/player.c:120: pry = py >> FIXBITS;
   00BF 2Ar00r00      [16]  200 	ld	hl,(_py)
   00C2 CB 2C         [ 8]  201 	sra	h
   00C4 CB 1D         [ 8]  202 	rr	l
   00C6 CB 2C         [ 8]  203 	sra	h
   00C8 CB 1D         [ 8]  204 	rr	l
   00CA CB 2C         [ 8]  205 	sra	h
   00CC CB 1D         [ 8]  206 	rr	l
   00CE CB 2C         [ 8]  207 	sra	h
   00D0 CB 1D         [ 8]  208 	rr	l
   00D2 CB 2C         [ 8]  209 	sra	h
   00D4 CB 1D         [ 8]  210 	rr	l
   00D6 CB 2C         [ 8]  211 	sra	h
   00D8 CB 1D         [ 8]  212 	rr	l
   00DA FD 21r00r00   [14]  213 	ld	iy,#_pry
   00DE FD 75 00      [19]  214 	ld	0 (iy),l
   00E1 C9            [10]  215 	ret
                            216 ;engine/player.c:123: void player_kill (void) {
                            217 ;	---------------------------------
                            218 ; Function player_kill
                            219 ; ---------------------------------
   00E2                     220 _player_kill::
                            221 ;engine/player.c:124: SG_setStp (cur_stp);
   00E2 2Ar00r00      [16]  222 	ld	hl,(_cur_stp)
   00E5 E5            [11]  223 	push	hl
   00E6 CDr00r00      [17]  224 	call	_SG_setStp
   00E9 F1            [10]  225 	pop	af
                            226 ;engine/player.c:125: player_render ();
   00EA CDr6Dr00      [17]  227 	call	_player_render
                            228 ;engine/player.c:126: update_cycle ();
   00ED CDr00r00      [17]  229 	call	_update_cycle
                            230 ;engine/player.c:128: pkill = phit = 0;
   00F0 21r00r00      [10]  231 	ld	hl,#_phit + 0
   00F3 36 00         [10]  232 	ld	(hl), #0x00
   00F5 21r00r00      [10]  233 	ld	hl,#_pkill + 0
   00F8 36 00         [10]  234 	ld	(hl), #0x00
                            235 ;engine/player.c:129: PSGSFXPlay (SFX_PHIT, 2);
   00FA 11r00r00      [10]  236 	ld	de,#_s_05_phit3_psg+0
   00FD 3E 02         [ 7]  237 	ld	a,#0x02
   00FF F5            [11]  238 	push	af
   0100 33            [ 6]  239 	inc	sp
   0101 D5            [11]  240 	push	de
   0102 CDr00r00      [17]  241 	call	_PSGSFXPlay
   0105 F1            [10]  242 	pop	af
   0106 33            [ 6]  243 	inc	sp
                            244 ;engine/player.c:131: if (plife) -- plife; else game_over = 1;
   0107 3Ar00r00      [13]  245 	ld	a,(#_plife + 0)
   010A B7            [ 4]  246 	or	a, a
   010B 28 06         [12]  247 	jr	Z,00102$
   010D 21r00r00      [10]  248 	ld	hl, #_plife+0
   0110 35            [11]  249 	dec	(hl)
   0111 18 05         [12]  250 	jr	00103$
   0113                     251 00102$:
   0113 21r00r00      [10]  252 	ld	hl,#_game_over + 0
   0116 36 01         [10]  253 	ld	(hl), #0x01
   0118                     254 00103$:
                            255 ;engine/player.c:134: pflickering = PLAYER_FLICKERS;
   0118 21r00r00      [10]  256 	ld	hl,#_pflickering + 0
   011B 36 64         [10]  257 	ld	(hl), #0x64
                            258 ;engine/player.c:147: delay (60);
   011D 3E 3C         [ 7]  259 	ld	a,#0x3C
   011F F5            [11]  260 	push	af
   0120 33            [ 6]  261 	inc	sp
   0121 CDr00r00      [17]  262 	call	_delay
   0124 33            [ 6]  263 	inc	sp
                            264 ;engine/player.c:152: px = px_safe; 
   0125 2Ar00r00      [16]  265 	ld	hl,(_px_safe)
   0128 22r00r00      [16]  266 	ld	(_px),hl
                            267 ;engine/player.c:153: py = py_safe; 
   012B 2Ar00r00      [16]  268 	ld	hl,(_py_safe)
   012E 22r00r00      [16]  269 	ld	(_py),hl
                            270 ;engine/player.c:154: player_to_pixels ();
   0131 CDr9Dr00      [17]  271 	call	_player_to_pixels
                            272 ;engine/player.c:155: n_pant = n_pant_safe;		
   0134 3Ar00r00      [13]  273 	ld	a,(#_n_pant_safe + 0)
   0137 32r00r00      [13]  274 	ld	(#_n_pant + 0),a
                            275 ;engine/player.c:156: player_stop ();
   013A C3r13r00      [10]  276 	jp  _player_stop
                            277 ;engine/../engine/playermods/process_tile.h:4: void player_process_tile (unsigned char at, unsigned char x0, unsigned char y0, unsigned char x1, unsigned char y1) {
                            278 ;	---------------------------------
                            279 ; Function player_process_tile
                            280 ; ---------------------------------
   013D                     281 _player_process_tile::
   013D DD E5         [15]  282 	push	ix
   013F DD 21 00 00   [14]  283 	ld	ix,#0
   0143 DD 39         [15]  284 	add	ix,sp
                            285 ;engine/../engine/playermods/process_tile.h:5: if (y0) -- y0;
   0145 DD 7E 06      [19]  286 	ld	a,6 (ix)
   0148 B7            [ 4]  287 	or	a, a
   0149 28 03         [12]  288 	jr	Z,00102$
   014B DD 35 06      [23]  289 	dec	6 (ix)
   014E                     290 00102$:
                            291 ;engine/../engine/playermods/process_tile.h:46: at == 10 &&
   014E DD 7E 04      [19]  292 	ld	a,4 (ix)
   0151 D6 0A         [ 7]  293 	sub	a, #0x0A
   0153 C2rFBr01      [10]  294 	jp	NZ,00110$
                            295 ;engine/../engine/playermods/process_tile.h:47: pkeys
   0156 3Ar00r00      [13]  296 	ld	a,(#_pkeys + 0)
   0159 B7            [ 4]  297 	or	a, a
   015A CArFBr01      [10]  298 	jp	Z,00110$
                            299 ;engine/../engine/playermods/process_tile.h:49: _x = x0; _y = y0; _t = 0; map_set ();
   015D DD 7E 05      [19]  300 	ld	a,5 (ix)
   0160 32r00r00      [13]  301 	ld	(#__x + 0),a
   0163 DD 7E 06      [19]  302 	ld	a,6 (ix)
   0166 32r00r00      [13]  303 	ld	(#__y + 0),a
   0169 21r00r00      [10]  304 	ld	hl,#__t + 0
   016C 36 00         [10]  305 	ld	(hl), #0x00
   016E CDr00r00      [17]  306 	call	_map_set
                            307 ;engine/../engine/playermods/process_tile.h:52: gp_gen = (unsigned char *) c_locks;
   0171 2Ar00r00      [16]  308 	ld	hl,(_c_locks)
   0174 22r00r00      [16]  309 	ld	(_gp_gen),hl
                            310 ;engine/../engine/playermods/process_tile.h:53: gpit = c_max_bolts; while (gpit --) {
   0177 3Ar00r00      [13]  311 	ld	a,(#_c_max_bolts + 0)
   017A 32r00r00      [13]  312 	ld	(#_gpit + 0),a
   017D                     313 00106$:
   017D 21r00r00      [10]  314 	ld	hl,#_gpit + 0
   0180 5E            [ 7]  315 	ld	e, (hl)
   0181 21r00r00      [10]  316 	ld	hl, #_gpit+0
   0184 35            [11]  317 	dec	(hl)
   0185 7B            [ 4]  318 	ld	a,e
   0186 B7            [ 4]  319 	or	a, a
   0187 28 5F         [12]  320 	jr	Z,00108$
                            321 ;engine/../engine/playermods/process_tile.h:54: rda = *gp_gen ++; rdb = *gp_gen ++;
   0189 2Ar00r00      [16]  322 	ld	hl,(_gp_gen)
   018C 7E            [ 7]  323 	ld	a,(hl)
   018D 32r00r00      [13]  324 	ld	(#_rda + 0),a
   0190 21r00r00      [10]  325 	ld	hl, #_gp_gen+0
   0193 34            [11]  326 	inc	(hl)
   0194 20 04         [12]  327 	jr	NZ,00145$
   0196 21r01r00      [10]  328 	ld	hl, #_gp_gen+1
   0199 34            [11]  329 	inc	(hl)
   019A                     330 00145$:
   019A 2Ar00r00      [16]  331 	ld	hl,(_gp_gen)
   019D 7E            [ 7]  332 	ld	a,(hl)
   019E 32r00r00      [13]  333 	ld	(#_rdb + 0),a
   01A1 21r00r00      [10]  334 	ld	hl, #_gp_gen+0
   01A4 34            [11]  335 	inc	(hl)
   01A5 20 04         [12]  336 	jr	NZ,00146$
   01A7 21r01r00      [10]  337 	ld	hl, #_gp_gen+1
   01AA 34            [11]  338 	inc	(hl)
   01AB                     339 00146$:
                            340 ;engine/../engine/playermods/process_tile.h:55: if (n_pant == rda && COORDS (x0, y0) == rdb) {
   01AB 3Ar00r00      [13]  341 	ld	a,(#_n_pant + 0)
   01AE FD 21r00r00   [14]  342 	ld	iy,#_rda
   01B2 FD 96 00      [19]  343 	sub	a, 0 (iy)
   01B5 20 C6         [12]  344 	jr	NZ,00106$
   01B7 DD 6E 06      [19]  345 	ld	l,6 (ix)
   01BA 26 00         [ 7]  346 	ld	h,#0x00
   01BC 29            [11]  347 	add	hl, hl
   01BD 29            [11]  348 	add	hl, hl
   01BE 29            [11]  349 	add	hl, hl
   01BF 29            [11]  350 	add	hl, hl
   01C0 DD 7E 05      [19]  351 	ld	a, 5 (ix)
   01C3 16 00         [ 7]  352 	ld	d, #0x00
   01C5 B5            [ 4]  353 	or	a, l
   01C6 5F            [ 4]  354 	ld	e,a
   01C7 7A            [ 4]  355 	ld	a,d
   01C8 B4            [ 4]  356 	or	a, h
   01C9 57            [ 4]  357 	ld	d,a
   01CA 21r00r00      [10]  358 	ld	hl,#_rdb + 0
   01CD 4E            [ 7]  359 	ld	c, (hl)
   01CE 06 00         [ 7]  360 	ld	b,#0x00
   01D0 7B            [ 4]  361 	ld	a,e
   01D1 91            [ 4]  362 	sub	a, c
   01D2 20 A9         [12]  363 	jr	NZ,00106$
   01D4 7A            [ 4]  364 	ld	a,d
   01D5 90            [ 4]  365 	sub	a, b
   01D6 20 A5         [12]  366 	jr	NZ,00106$
                            367 ;engine/../engine/playermods/process_tile.h:56: lkact [gpit] = 0;
   01D8 3Er00         [ 7]  368 	ld	a,#<(_lkact)
   01DA 21r00r00      [10]  369 	ld	hl,#_gpit
   01DD 86            [ 7]  370 	add	a, (hl)
   01DE 5F            [ 4]  371 	ld	e,a
   01DF 3Es00         [ 7]  372 	ld	a,#>(_lkact)
   01E1 CE 00         [ 7]  373 	adc	a, #0x00
   01E3 57            [ 4]  374 	ld	d,a
   01E4 AF            [ 4]  375 	xor	a, a
   01E5 12            [ 7]  376 	ld	(de),a
   01E6 18 95         [12]  377 	jr	00106$
   01E8                     378 00108$:
                            379 ;engine/../engine/playermods/process_tile.h:60: -- pkeys;
   01E8 21r00r00      [10]  380 	ld	hl, #_pkeys+0
   01EB 35            [11]  381 	dec	(hl)
                            382 ;engine/../engine/playermods/process_tile.h:61: PSGSFXPlay (SFX_TILE, 2);
   01EC 11r00r00      [10]  383 	ld	de,#_s_01_tile3_psg+0
   01EF 3E 02         [ 7]  384 	ld	a,#0x02
   01F1 F5            [11]  385 	push	af
   01F2 33            [ 6]  386 	inc	sp
   01F3 D5            [11]  387 	push	de
   01F4 CDr00r00      [17]  388 	call	_PSGSFXPlay
   01F7 F1            [10]  389 	pop	af
   01F8 33            [ 6]  390 	inc	sp
   01F9 18 05         [12]  391 	jr	00113$
   01FB                     392 00110$:
                            393 ;engine/../engine/playermods/process_tile.h:64: no_ct = 100;
   01FB 21r00r00      [10]  394 	ld	hl,#_no_ct + 0
   01FE 36 64         [10]  395 	ld	(hl), #0x64
   0200                     396 00113$:
   0200 DD E1         [14]  397 	pop	ix
   0202 C9            [10]  398 	ret
                            399 ;engine/player.c:179: void player_move (void) {
                            400 ;	---------------------------------
                            401 ; Function player_move
                            402 ; ---------------------------------
   0203                     403 _player_move::
   0203 DD E5         [15]  404 	push	ix
   0205 DD 21 00 00   [14]  405 	ld	ix,#0
   0209 DD 39         [15]  406 	add	ix,sp
   020B F5            [11]  407 	push	af
   020C F5            [11]  408 	push	af
                            409 ;engine/player.c:180: if (pflickering) -- pflickering;
   020D 3Ar00r00      [13]  410 	ld	a,(#_pflickering + 0)
   0210 B7            [ 4]  411 	or	a, a
   0211 28 04         [12]  412 	jr	Z,00102$
   0213 21r00r00      [10]  413 	ld	hl, #_pflickering+0
   0216 35            [11]  414 	dec	(hl)
   0217                     415 00102$:
                            416 ;engine/player.c:181: if (pbouncing) -- pbouncing;
   0217 3Ar00r00      [13]  417 	ld	a,(#_pbouncing + 0)
   021A B7            [ 4]  418 	or	a, a
   021B 28 04         [12]  419 	jr	Z,00104$
   021D 21r00r00      [10]  420 	ld	hl, #_pbouncing+0
   0220 35            [11]  421 	dec	(hl)
   0221                     422 00104$:
                            423 ;engine/player.c:217: hitv = hith = 0;
   0221 21r00r00      [10]  424 	ld	hl,#_hith + 0
   0224 36 00         [10]  425 	ld	(hl), #0x00
   0226 21r00r00      [10]  426 	ld	hl,#_hitv + 0
   0229 36 00         [10]  427 	ld	(hl), #0x00
                            428 ;engine/player.c:218: pcx = prx; pcy = pry;
   022B 3Ar00r00      [13]  429 	ld	a,(#_prx + 0)
   022E 32r00r00      [13]  430 	ld	(#_pcx + 0),a
   0231 3Ar00r00      [13]  431 	ld	a,(#_pry + 0)
   0234 32r00r00      [13]  432 	ld	(#_pcy + 0),a
                            433 ;engine/player.c:219: pnotsafe = 0;
   0237 21r00r00      [10]  434 	ld	hl,#_pnotsafe + 0
   023A 36 00         [10]  435 	ld	(hl), #0x00
                            436 ;engine/player.c:229: cx1 = prx >> 4; cx2 = (prx + 7) >> 4;
   023C 3Ar00r00      [13]  437 	ld	a,(#_prx + 0)
   023F 07            [ 4]  438 	rlca
   0240 07            [ 4]  439 	rlca
   0241 07            [ 4]  440 	rlca
   0242 07            [ 4]  441 	rlca
   0243 E6 0F         [ 7]  442 	and	a,#0x0F
   0245 32r00r00      [13]  443 	ld	(#_cx1 + 0),a
   0248 FD 21r00r00   [14]  444 	ld	iy,#_prx
   024C FD 6E 00      [19]  445 	ld	l,0 (iy)
   024F 26 00         [ 7]  446 	ld	h,#0x00
   0251 01 07 00      [10]  447 	ld	bc,#0x0007
   0254 09            [11]  448 	add	hl,bc
   0255 CB 2C         [ 8]  449 	sra	h
   0257 CB 1D         [ 8]  450 	rr	l
   0259 CB 2C         [ 8]  451 	sra	h
   025B CB 1D         [ 8]  452 	rr	l
   025D CB 2C         [ 8]  453 	sra	h
   025F CB 1D         [ 8]  454 	rr	l
   0261 CB 2C         [ 8]  455 	sra	h
   0263 CB 1D         [ 8]  456 	rr	l
   0265 FD 21r00r00   [14]  457 	ld	iy,#_cx2
   0269 FD 75 00      [19]  458 	ld	0 (iy),l
                            459 ;engine/player.c:230: cy1 = cy2 = (pry + 15) >> 4;
   026C FD 21r00r00   [14]  460 	ld	iy,#_pry
   0270 FD 6E 00      [19]  461 	ld	l,0 (iy)
   0273 26 00         [ 7]  462 	ld	h,#0x00
   0275 01 0F 00      [10]  463 	ld	bc,#0x000F
   0278 09            [11]  464 	add	hl,bc
   0279 CB 2C         [ 8]  465 	sra	h
   027B CB 1D         [ 8]  466 	rr	l
   027D CB 2C         [ 8]  467 	sra	h
   027F CB 1D         [ 8]  468 	rr	l
   0281 CB 2C         [ 8]  469 	sra	h
   0283 CB 1D         [ 8]  470 	rr	l
   0285 CB 2C         [ 8]  471 	sra	h
   0287 CB 1D         [ 8]  472 	rr	l
   0289 7D            [ 4]  473 	ld	a,l
   028A 32r00r00      [13]  474 	ld	(#_cy2 + 0),a
   028D 32r00r00      [13]  475 	ld	(#_cy1 + 0),a
                            476 ;engine/player.c:231: cm_two_points ();
   0290 CDr00r00      [17]  477 	call	_cm_two_points
                            478 ;engine/player.c:246: if (springs_on && cy1 < 12) {
   0293 3Ar00r00      [13]  479 	ld	a,(#_springs_on + 0)
   0296 B7            [ 4]  480 	or	a, a
   0297 CAr7Er03      [10]  481 	jp	Z,00116$
                            482 ;engine/player.c:247: if (cy1) -- cy1;
   029A 3Ar00r00      [13]  483 	ld	a,(#_cy1 + 0)
   029D FE 0C         [ 7]  484 	cp	a,#0x0C
   029F D2r7Er03      [10]  485 	jp	NC,00116$
   02A2 B7            [ 4]  486 	or	a, a
   02A3 28 04         [12]  487 	jr	Z,00106$
   02A5 21r00r00      [10]  488 	ld	hl, #_cy1+0
   02A8 35            [11]  489 	dec	(hl)
   02A9                     490 00106$:
                            491 ;engine/player.c:248: _t = SPRING_SPIKE_TILE; 
   02A9 21r00r00      [10]  492 	ld	hl,#__t + 0
   02AC 36 0A         [10]  493 	ld	(hl), #0x0A
                            494 ;engine/player.c:250: if (ppossee)
   02AE 3Ar00r00      [13]  495 	ld	a,(#_ppossee + 0)
   02B1 B7            [ 4]  496 	or	a, a
   02B2 CAr7Er03      [10]  497 	jp	Z,00116$
                            498 ;engine/player.c:253: if (QTILE (cx1, cy1 + 1) == SPRING_TILE && QTILE (cx1, cy1) != SPRING_SPIKE_TILE) { _x = cx1; _y = cy1; map_set (); PSGSFXPlay (SFX_SPRING, 1); }
   02B5 3Ar00r00      [13]  499 	ld	a,(#_cy1 + 0)
   02B8 DD 77 FE      [19]  500 	ld	-2 (ix),a
   02BB DD 36 FF 00   [19]  501 	ld	-1 (ix),#0x00
   02BF DD 6E FE      [19]  502 	ld	l,-2 (ix)
   02C2 DD 66 FF      [19]  503 	ld	h,-1 (ix)
   02C5 23            [ 6]  504 	inc	hl
   02C6 29            [11]  505 	add	hl, hl
   02C7 29            [11]  506 	add	hl, hl
   02C8 29            [11]  507 	add	hl, hl
   02C9 29            [11]  508 	add	hl, hl
   02CA 55            [ 4]  509 	ld	d,l
   02CB 5C            [ 4]  510 	ld	e,h
   02CC 3Ar00r00      [13]  511 	ld	a,(#_cx1 + 0)
   02CF DD 77 FC      [19]  512 	ld	-4 (ix),a
   02D2 DD 36 FD 00   [19]  513 	ld	-3 (ix),#0x00
   02D6 DD 7E FC      [19]  514 	ld	a,-4 (ix)
   02D9 B2            [ 4]  515 	or	a, d
   02DA 6F            [ 4]  516 	ld	l,a
   02DB DD 7E FD      [19]  517 	ld	a,-3 (ix)
   02DE B3            [ 4]  518 	or	a, e
   02DF 67            [ 4]  519 	ld	h,a
   02E0 11r00r00      [10]  520 	ld	de,#_map_buff
   02E3 19            [11]  521 	add	hl,de
   02E4 7E            [ 7]  522 	ld	a,(hl)
   02E5 D6 1F         [ 7]  523 	sub	a, #0x1F
   02E7 20 37         [12]  524 	jr	NZ,00108$
   02E9 C1            [10]  525 	pop	bc
   02EA E1            [10]  526 	pop	hl
   02EB E5            [11]  527 	push	hl
   02EC C5            [11]  528 	push	bc
   02ED 29            [11]  529 	add	hl, hl
   02EE 29            [11]  530 	add	hl, hl
   02EF 29            [11]  531 	add	hl, hl
   02F0 29            [11]  532 	add	hl, hl
   02F1 7D            [ 4]  533 	ld	a,l
   02F2 DD B6 FC      [19]  534 	or	a, -4 (ix)
   02F5 6F            [ 4]  535 	ld	l,a
   02F6 7C            [ 4]  536 	ld	a,h
   02F7 DD B6 FD      [19]  537 	or	a, -3 (ix)
   02FA 67            [ 4]  538 	ld	h,a
   02FB 11r00r00      [10]  539 	ld	de,#_map_buff
   02FE 19            [11]  540 	add	hl,de
   02FF 7E            [ 7]  541 	ld	a,(hl)
   0300 D6 0A         [ 7]  542 	sub	a, #0x0A
   0302 28 1C         [12]  543 	jr	Z,00108$
   0304 3Ar00r00      [13]  544 	ld	a,(#_cx1 + 0)
   0307 32r00r00      [13]  545 	ld	(#__x + 0),a
   030A 3Ar00r00      [13]  546 	ld	a,(#_cy1 + 0)
   030D 32r00r00      [13]  547 	ld	(#__y + 0),a
   0310 CDr00r00      [17]  548 	call	_map_set
   0313 11r00r00      [10]  549 	ld	de,#_s_11_spring2_psg+0
   0316 3E 01         [ 7]  550 	ld	a,#0x01
   0318 F5            [11]  551 	push	af
   0319 33            [ 6]  552 	inc	sp
   031A D5            [11]  553 	push	de
   031B CDr00r00      [17]  554 	call	_PSGSFXPlay
   031E F1            [10]  555 	pop	af
   031F 33            [ 6]  556 	inc	sp
   0320                     557 00108$:
                            558 ;engine/player.c:254: if (QTILE (cx2, cy1 + 1) == SPRING_TILE && QTILE (cx2, cy1) != SPRING_SPIKE_TILE) { _x = cx2; _y = cy1; map_set (); PSGSFXPlay (SFX_SPRING, 1);	}
   0320 FD 21r00r00   [14]  559 	ld	iy,#_cy1
   0324 FD 5E 00      [19]  560 	ld	e,0 (iy)
   0327 16 00         [ 7]  561 	ld	d,#0x00
   0329 6B            [ 4]  562 	ld	l, e
   032A 62            [ 4]  563 	ld	h, d
   032B 23            [ 6]  564 	inc	hl
   032C 29            [11]  565 	add	hl, hl
   032D 29            [11]  566 	add	hl, hl
   032E 29            [11]  567 	add	hl, hl
   032F 29            [11]  568 	add	hl, hl
   0330 E3            [19]  569 	ex	(sp), hl
   0331 21r00r00      [10]  570 	ld	hl,#_cx2 + 0
   0334 4E            [ 7]  571 	ld	c, (hl)
   0335 06 00         [ 7]  572 	ld	b,#0x00
   0337 79            [ 4]  573 	ld	a,c
   0338 DD B6 FC      [19]  574 	or	a, -4 (ix)
   033B 6F            [ 4]  575 	ld	l,a
   033C 78            [ 4]  576 	ld	a,b
   033D DD B6 FD      [19]  577 	or	a, -3 (ix)
   0340 67            [ 4]  578 	ld	h,a
   0341 3Er00         [ 7]  579 	ld	a,#<(_map_buff)
   0343 85            [ 4]  580 	add	a, l
   0344 6F            [ 4]  581 	ld	l,a
   0345 3Es00         [ 7]  582 	ld	a,#>(_map_buff)
   0347 8C            [ 4]  583 	adc	a, h
   0348 67            [ 4]  584 	ld	h,a
   0349 7E            [ 7]  585 	ld	a,(hl)
   034A D6 1F         [ 7]  586 	sub	a, #0x1F
   034C 20 30         [12]  587 	jr	NZ,00116$
   034E EB            [ 4]  588 	ex	de,hl
   034F 29            [11]  589 	add	hl, hl
   0350 29            [11]  590 	add	hl, hl
   0351 29            [11]  591 	add	hl, hl
   0352 29            [11]  592 	add	hl, hl
   0353 7D            [ 4]  593 	ld	a,l
   0354 B1            [ 4]  594 	or	a, c
   0355 6F            [ 4]  595 	ld	l,a
   0356 7C            [ 4]  596 	ld	a,h
   0357 B0            [ 4]  597 	or	a, b
   0358 67            [ 4]  598 	ld	h,a
   0359 11r00r00      [10]  599 	ld	de,#_map_buff
   035C 19            [11]  600 	add	hl,de
   035D 7E            [ 7]  601 	ld	a,(hl)
   035E D6 0A         [ 7]  602 	sub	a, #0x0A
   0360 28 1C         [12]  603 	jr	Z,00116$
   0362 3Ar00r00      [13]  604 	ld	a,(#_cx2 + 0)
   0365 32r00r00      [13]  605 	ld	(#__x + 0),a
   0368 3Ar00r00      [13]  606 	ld	a,(#_cy1 + 0)
   036B 32r00r00      [13]  607 	ld	(#__y + 0),a
   036E CDr00r00      [17]  608 	call	_map_set
   0371 11r00r00      [10]  609 	ld	de,#_s_11_spring2_psg+0
   0374 3E 01         [ 7]  610 	ld	a,#0x01
   0376 F5            [11]  611 	push	af
   0377 33            [ 6]  612 	inc	sp
   0378 D5            [11]  613 	push	de
   0379 CDr00r00      [17]  614 	call	_PSGSFXPlay
   037C F1            [10]  615 	pop	af
   037D 33            [ 6]  616 	inc	sp
   037E                     617 00116$:
                            618 ;engine/player.c:259: oppossee = ppossee;
   037E 3Ar00r00      [13]  619 	ld	a,(#_ppossee + 0)
   0381 32r00r00      [13]  620 	ld	(#_oppossee + 0),a
                            621 ;engine/player.c:260: ppossee = 0;
   0384 21r00r00      [10]  622 	ld	hl,#_ppossee + 0
   0387 36 00         [10]  623 	ld	(hl), #0x00
                            624 ;engine/player.c:332: if (vertical_engine_type != ENGINE_TYPE_SWIM) {
   0389 3Ar00r00      [13]  625 	ld	a,(#_vertical_engine_type + 0)
   038C D6 02         [ 7]  626 	sub	a, #0x02
   038E 28 45         [12]  627 	jr	Z,00126$
                            628 ;engine/player.c:335: !pgotten
   0390 3Ar00r00      [13]  629 	ld	a,(#_pgotten + 0)
   0393 B7            [ 4]  630 	or	a, a
   0394 20 3F         [12]  631 	jr	NZ,00126$
                            632 ;engine/player.c:337: if (!pj) {
   0396 3Ar00r00      [13]  633 	ld	a,(#_pj + 0)
   0399 B7            [ 4]  634 	or	a, a
   039A 20 0E         [12]  635 	jr	NZ,00119$
                            636 ;engine/player.c:338: pvy += PLAYER_G;
   039C 21r00r00      [10]  637 	ld	hl,#_pvy
   039F 7E            [ 7]  638 	ld	a,(hl)
   03A0 C6 08         [ 7]  639 	add	a, #0x08
   03A2 77            [ 7]  640 	ld	(hl),a
   03A3 23            [ 6]  641 	inc	hl
   03A4 7E            [ 7]  642 	ld	a,(hl)
   03A5 CE 00         [ 7]  643 	adc	a, #0x00
   03A7 77            [ 7]  644 	ld	(hl),a
   03A8 18 0C         [12]  645 	jr	00120$
   03AA                     646 00119$:
                            647 ;engine/player.c:339: } else pvy += PLAYER_G_MK2_JUMPING;
   03AA 21r00r00      [10]  648 	ld	hl,#_pvy
   03AD 7E            [ 7]  649 	ld	a,(hl)
   03AE C6 04         [ 7]  650 	add	a, #0x04
   03B0 77            [ 7]  651 	ld	(hl),a
   03B1 23            [ 6]  652 	inc	hl
   03B2 7E            [ 7]  653 	ld	a,(hl)
   03B3 CE 00         [ 7]  654 	adc	a, #0x00
   03B5 77            [ 7]  655 	ld	(hl),a
   03B6                     656 00120$:
                            657 ;engine/player.c:340: if (pvy > PLAYER_VY_FALLING_MAX) pvy = PLAYER_VY_FALLING_MAX; 
   03B6 AF            [ 4]  658 	xor	a, a
   03B7 FD 21r00r00   [14]  659 	ld	iy,#_pvy
   03BB FD BE 00      [19]  660 	cp	a, 0 (iy)
   03BE 3E 01         [ 7]  661 	ld	a,#0x01
   03C0 FD 21r00r00   [14]  662 	ld	iy,#_pvy
   03C4 FD 9E 01      [19]  663 	sbc	a, 1 (iy)
   03C7 E2rCCr03      [10]  664 	jp	PO, 00585$
   03CA EE 80         [ 7]  665 	xor	a, #0x80
   03CC                     666 00585$:
   03CC F2rD5r03      [10]  667 	jp	P,00126$
   03CF 21 00 01      [10]  668 	ld	hl,#0x0100
   03D2 22r00r00      [16]  669 	ld	(_pvy),hl
   03D5                     670 00126$:
                            671 ;engine/player.c:352: if (pgotten) pvy = 0;			
   03D5 3Ar00r00      [13]  672 	ld	a,(#_pgotten + 0)
   03D8 B7            [ 4]  673 	or	a, a
   03D9 28 06         [12]  674 	jr	Z,00128$
   03DB 21 00 00      [10]  675 	ld	hl,#0x0000
   03DE 22r00r00      [16]  676 	ld	(_pvy),hl
   03E1                     677 00128$:
                            678 ;engine/player.c:389: py += pvy;
   03E1 21r00r00      [10]  679 	ld	hl,#_pvy
   03E4 D5            [11]  680 	push	de
   03E5 FD 21r00r00   [14]  681 	ld	iy,#_py
   03E9 FD E5         [15]  682 	push	iy
   03EB D1            [10]  683 	pop	de
   03EC 1A            [ 7]  684 	ld	a,(de)
   03ED 86            [ 7]  685 	add	a, (hl)
   03EE 12            [ 7]  686 	ld	(de),a
   03EF 13            [ 6]  687 	inc	de
   03F0 1A            [ 7]  688 	ld	a,(de)
   03F1 23            [ 6]  689 	inc	hl
   03F2 8E            [ 7]  690 	adc	a, (hl)
   03F3 12            [ 7]  691 	ld	(de),a
   03F4 D1            [10]  692 	pop	de
                            693 ;engine/player.c:390: if (py < 0) py = 0;
   03F5 3Ar01r00      [13]  694 	ld	a,(#_py + 1)
   03F8 CB 7F         [ 8]  695 	bit	7,a
   03FA 28 06         [12]  696 	jr	Z,00130$
   03FC 21 00 00      [10]  697 	ld	hl,#0x0000
   03FF 22r00r00      [16]  698 	ld	(_py),hl
   0402                     699 00130$:
                            700 ;engine/player.c:391: pry = py >> FIXBITS;
   0402 2Ar00r00      [16]  701 	ld	hl,(_py)
   0405 CB 2C         [ 8]  702 	sra	h
   0407 CB 1D         [ 8]  703 	rr	l
   0409 CB 2C         [ 8]  704 	sra	h
   040B CB 1D         [ 8]  705 	rr	l
   040D CB 2C         [ 8]  706 	sra	h
   040F CB 1D         [ 8]  707 	rr	l
   0411 CB 2C         [ 8]  708 	sra	h
   0413 CB 1D         [ 8]  709 	rr	l
   0415 CB 2C         [ 8]  710 	sra	h
   0417 CB 1D         [ 8]  711 	rr	l
   0419 CB 2C         [ 8]  712 	sra	h
   041B CB 1D         [ 8]  713 	rr	l
   041D FD 21r00r00   [14]  714 	ld	iy,#_pry
   0421 FD 75 00      [19]  715 	ld	0 (iy),l
                            716 ;engine/player.c:394: player_to_pixels ();
   0424 CDr9Dr00      [17]  717 	call	_player_to_pixels
                            718 ;engine/player.c:396: cx1 = prx >> 4;
   0427 3Ar00r00      [13]  719 	ld	a,(#_prx + 0)
   042A 07            [ 4]  720 	rlca
   042B 07            [ 4]  721 	rlca
   042C 07            [ 4]  722 	rlca
   042D 07            [ 4]  723 	rlca
   042E E6 0F         [ 7]  724 	and	a,#0x0F
   0430 32r00r00      [13]  725 	ld	(#_cx1 + 0),a
                            726 ;engine/player.c:397: cx2 = (prx + 7) >> 4;
   0433 FD 21r00r00   [14]  727 	ld	iy,#_prx
   0437 FD 6E 00      [19]  728 	ld	l,0 (iy)
   043A 26 00         [ 7]  729 	ld	h,#0x00
   043C 01 07 00      [10]  730 	ld	bc,#0x0007
   043F 09            [11]  731 	add	hl,bc
   0440 CB 2C         [ 8]  732 	sra	h
   0442 CB 1D         [ 8]  733 	rr	l
   0444 CB 2C         [ 8]  734 	sra	h
   0446 CB 1D         [ 8]  735 	rr	l
   0448 CB 2C         [ 8]  736 	sra	h
   044A CB 1D         [ 8]  737 	rr	l
   044C CB 2C         [ 8]  738 	sra	h
   044E CB 1D         [ 8]  739 	rr	l
   0450 FD 21r00r00   [14]  740 	ld	iy,#_cx2
   0454 FD 75 00      [19]  741 	ld	0 (iy),l
                            742 ;engine/player.c:402: rds16 = pvy + pgtmy;
   0457 21r00r00      [10]  743 	ld	hl,#_pgtmy
   045A D5            [11]  744 	push	de
   045B FD 21r00r00   [14]  745 	ld	iy,#_rds16
   045F FD E5         [15]  746 	push	iy
   0461 D1            [10]  747 	pop	de
   0462 3Ar00r00      [13]  748 	ld	a,(#_pvy + 0)
   0465 86            [ 7]  749 	add	a, (hl)
   0466 12            [ 7]  750 	ld	(de),a
   0467 3Ar01r00      [13]  751 	ld	a,(#_pvy + 1)
   046A 23            [ 6]  752 	inc	hl
   046B 8E            [ 7]  753 	adc	a, (hl)
   046C 13            [ 6]  754 	inc	de
   046D 12            [ 7]  755 	ld	(de),a
   046E D1            [10]  756 	pop	de
                            757 ;engine/player.c:230: cy1 = cy2 = (pry + 15) >> 4;
   046F FD 21r00r00   [14]  758 	ld	iy,#_pry
   0473 FD 5E 00      [19]  759 	ld	e,0 (iy)
   0476 16 00         [ 7]  760 	ld	d,#0x00
                            761 ;engine/player.c:403: if (rds16 < 0)
   0478 3Ar01r00      [13]  762 	ld	a,(#_rds16 + 1)
   047B CB 7F         [ 8]  763 	bit	7,a
   047D CAr12r05      [10]  764 	jp	Z,00166$
                            765 ;engine/player.c:406: cy1 = cy2 = (pry - PLAYER_COLLISION_VSTRETCH_BG) >> 4;			
   0480 7B            [ 4]  766 	ld	a,e
   0481 C6 04         [ 7]  767 	add	a,#0x04
   0483 5F            [ 4]  768 	ld	e,a
   0484 7A            [ 4]  769 	ld	a,d
   0485 CE 00         [ 7]  770 	adc	a,#0x00
   0487 57            [ 4]  771 	ld	d,a
   0488 CB 2A         [ 8]  772 	sra	d
   048A CB 1B         [ 8]  773 	rr	e
   048C CB 2A         [ 8]  774 	sra	d
   048E CB 1B         [ 8]  775 	rr	e
   0490 CB 2A         [ 8]  776 	sra	d
   0492 CB 1B         [ 8]  777 	rr	e
   0494 CB 2A         [ 8]  778 	sra	d
   0496 CB 1B         [ 8]  779 	rr	e
   0498 21r00r00      [10]  780 	ld	hl,#_cy2 + 0
   049B 73            [ 7]  781 	ld	(hl), e
   049C 21r00r00      [10]  782 	ld	hl,#_cy1 + 0
   049F 73            [ 7]  783 	ld	(hl), e
                            784 ;engine/player.c:407: cm_two_points ();
   04A0 CDr00r00      [17]  785 	call	_cm_two_points
                            786 ;engine/player.c:408: if ((at1 & 8) || (at2 & 8)) {
   04A3 FD 21r00r00   [14]  787 	ld	iy,#_at1
   04A7 FD CB 00 5E   [20]  788 	bit	3, 0 (iy)
   04AB 20 0A         [12]  789 	jr	NZ,00134$
   04AD FD 21r00r00   [14]  790 	ld	iy,#_at2
   04B1 FD CB 00 5E   [20]  791 	bit	3, 0 (iy)
   04B5 28 3B         [12]  792 	jr	Z,00135$
   04B7                     793 00134$:
                            794 ;engine/player.c:409: pry = ((cy1 + 1) << 4) + PLAYER_COLLISION_VSTRETCH_BG;
   04B7 3Ar00r00      [13]  795 	ld	a,(#_cy1 + 0)
   04BA 3C            [ 4]  796 	inc	a
   04BB 07            [ 4]  797 	rlca
   04BC 07            [ 4]  798 	rlca
   04BD 07            [ 4]  799 	rlca
   04BE 07            [ 4]  800 	rlca
   04BF E6 F0         [ 7]  801 	and	a,#0xF0
   04C1 21r00r00      [10]  802 	ld	hl,#_pry
   04C4 C6 FC         [ 7]  803 	add	a, #0xFC
   04C6 77            [ 7]  804 	ld	(hl),a
                            805 ;engine/player.c:410: pvy = 0; py = pry << FIXBITS;
   04C7 21 00 00      [10]  806 	ld	hl,#0x0000
   04CA 22r00r00      [16]  807 	ld	(_pvy),hl
   04CD FD 21r00r00   [14]  808 	ld	iy,#_pry
   04D1 FD 6E 00      [19]  809 	ld	l,0 (iy)
   04D4 26 00         [ 7]  810 	ld	h,#0x00
   04D6 29            [11]  811 	add	hl, hl
   04D7 29            [11]  812 	add	hl, hl
   04D8 29            [11]  813 	add	hl, hl
   04D9 29            [11]  814 	add	hl, hl
   04DA 29            [11]  815 	add	hl, hl
   04DB 29            [11]  816 	add	hl, hl
   04DC 22r00r00      [16]  817 	ld	(_py),hl
                            818 ;engine/player.c:411: pgotten = 0;
   04DF FD 21r00r00   [14]  819 	ld	iy,#_pgotten
   04E3 FD 36 00 00   [19]  820 	ld	0 (iy),#0x00
                            821 ;engine/player.c:412: pfiring = 1;
   04E7 FD 21r00r00   [14]  822 	ld	iy,#_pfiring
   04EB FD 36 00 01   [19]  823 	ld	0 (iy),#0x01
   04EF C3r80r06      [10]  824 	jp	00167$
   04F2                     825 00135$:
                            826 ;engine/player.c:418: } else if ((at1 & 1) || (at2 & 1)) {
   04F2 FD 21r00r00   [14]  827 	ld	iy,#_at1
   04F6 FD CB 00 46   [20]  828 	bit	0, 0 (iy)
   04FA 20 0B         [12]  829 	jr	NZ,00131$
   04FC FD 21r00r00   [14]  830 	ld	iy,#_at2
   0500 FD CB 00 46   [20]  831 	bit	0, 0 (iy)
   0504 CAr80r06      [10]  832 	jp	Z,00167$
   0507                     833 00131$:
                            834 ;engine/player.c:419: hitv = 1;
   0507 FD 21r00r00   [14]  835 	ld	iy,#_hitv
   050B FD 36 00 01   [19]  836 	ld	0 (iy),#0x01
   050F C3r80r06      [10]  837 	jp	00167$
   0512                     838 00166$:
                            839 ;engine/player.c:430: } else if (rds16 > 0)
   0512 AF            [ 4]  840 	xor	a, a
   0513 FD 21r00r00   [14]  841 	ld	iy,#_rds16
   0517 FD BE 00      [19]  842 	cp	a, 0 (iy)
   051A FD 21r00r00   [14]  843 	ld	iy,#_rds16
   051E FD 9E 01      [19]  844 	sbc	a, 1 (iy)
   0521 E2r26r05      [10]  845 	jp	PO, 00592$
   0524 EE 80         [ 7]  846 	xor	a, #0x80
   0526                     847 00592$:
   0526 F2r80r06      [10]  848 	jp	P,00167$
                            849 ;engine/player.c:433: cy1 = cy2 = (pry + 16) >> 4; 
   0529 21 10 00      [10]  850 	ld	hl,#0x0010
   052C 19            [11]  851 	add	hl,de
   052D CB 2C         [ 8]  852 	sra	h
   052F CB 1D         [ 8]  853 	rr	l
   0531 CB 2C         [ 8]  854 	sra	h
   0533 CB 1D         [ 8]  855 	rr	l
   0535 CB 2C         [ 8]  856 	sra	h
   0537 CB 1D         [ 8]  857 	rr	l
   0539 CB 2C         [ 8]  858 	sra	h
   053B CB 1D         [ 8]  859 	rr	l
   053D 7D            [ 4]  860 	ld	a,l
   053E 32r00r00      [13]  861 	ld	(#_cy2 + 0),a
   0541 32r00r00      [13]  862 	ld	(#_cy1 + 0),a
                            863 ;engine/player.c:434: cm_two_points (); 
   0544 CDr00r00      [17]  864 	call	_cm_two_points
                            865 ;engine/player.c:439: pry < ((cy1 - 1) << 4) + 4 && 
   0547 FD 21r00r00   [14]  866 	ld	iy,#_cy1
   054B FD 6E 00      [19]  867 	ld	l,0 (iy)
   054E 26 00         [ 7]  868 	ld	h,#0x00
   0550 2B            [ 6]  869 	dec	hl
   0551 29            [11]  870 	add	hl, hl
   0552 29            [11]  871 	add	hl, hl
   0553 29            [11]  872 	add	hl, hl
   0554 29            [11]  873 	add	hl, hl
   0555 5D            [ 4]  874 	ld	e, l
   0556 54            [ 4]  875 	ld	d, h
   0557 13            [ 6]  876 	inc	de
   0558 13            [ 6]  877 	inc	de
   0559 13            [ 6]  878 	inc	de
   055A 13            [ 6]  879 	inc	de
   055B 3Ar00r00      [13]  880 	ld	a,(#_pry + 0)
   055E DD 77 FC      [19]  881 	ld	-4 (ix),a
   0561 DD 36 FD 00   [19]  882 	ld	-3 (ix),#0x00
                            883 ;engine/player.c:418: } else if ((at1 & 1) || (at2 & 1)) {
   0565 3Ar00r00      [13]  884 	ld	a,(#_at1 + 0)
   0568 E6 01         [ 7]  885 	and	a, #0x01
   056A 4F            [ 4]  886 	ld	c,a
   056B FD 21r00r00   [14]  887 	ld	iy,#_at2
   056F FD 7E 00      [19]  888 	ld	a,0 (iy)
   0572 E6 01         [ 7]  889 	and	a, #0x01
   0574 DD 77 FE      [19]  890 	ld	-2 (ix),a
                            891 ;engine/player.c:439: pry < ((cy1 - 1) << 4) + 4 && 
   0577 DD 7E FC      [19]  892 	ld	a,-4 (ix)
   057A 93            [ 4]  893 	sub	a, e
   057B DD 7E FD      [19]  894 	ld	a,-3 (ix)
   057E 9A            [ 4]  895 	sbc	a, d
   057F E2r84r05      [10]  896 	jp	PO, 00593$
   0582 EE 80         [ 7]  897 	xor	a, #0x80
   0584                     898 00593$:
   0584 F2r63r06      [10]  899 	jp	P,00159$
                            900 ;engine/player.c:441: (at1 & 12) || (at2 & 12)
   0587 3Ar00r00      [13]  901 	ld	a,(#_at1 + 0)
   058A E6 0C         [ 7]  902 	and	a, #0x0C
   058C 20 08         [12]  903 	jr	NZ,00158$
   058E 3Ar00r00      [13]  904 	ld	a,(#_at2 + 0)
   0591 E6 0C         [ 7]  905 	and	a, #0x0C
   0593 CAr63r06      [10]  906 	jp	Z,00159$
   0596                     907 00158$:
                            908 ;engine/player.c:449: pvy = 0; pry = ((cy1 - 1) << 4);py = pry << FIXBITS;
   0596 21 00 00      [10]  909 	ld	hl,#0x0000
   0599 22r00r00      [16]  910 	ld	(_pvy),hl
   059C 3Ar00r00      [13]  911 	ld	a,(#_cy1 + 0)
   059F C6 FF         [ 7]  912 	add	a,#0xFF
   05A1 07            [ 4]  913 	rlca
   05A2 07            [ 4]  914 	rlca
   05A3 07            [ 4]  915 	rlca
   05A4 07            [ 4]  916 	rlca
   05A5 E6 F0         [ 7]  917 	and	a,#0xF0
   05A7 32r00r00      [13]  918 	ld	(#_pry + 0),a
   05AA FD 21r00r00   [14]  919 	ld	iy,#_pry
   05AE FD 6E 00      [19]  920 	ld	l,0 (iy)
   05B1 26 00         [ 7]  921 	ld	h,#0x00
   05B3 29            [11]  922 	add	hl, hl
   05B4 29            [11]  923 	add	hl, hl
   05B5 29            [11]  924 	add	hl, hl
   05B6 29            [11]  925 	add	hl, hl
   05B7 29            [11]  926 	add	hl, hl
   05B8 29            [11]  927 	add	hl, hl
   05B9 22r00r00      [16]  928 	ld	(_py),hl
                            929 ;engine/player.c:450: pgotten = 0;
   05BC FD 21r00r00   [14]  930 	ld	iy,#_pgotten
   05C0 FD 36 00 00   [19]  931 	ld	0 (iy),#0x00
                            932 ;engine/player.c:451: pfiring = 1;
   05C4 FD 21r00r00   [14]  933 	ld	iy,#_pfiring
   05C8 FD 36 00 01   [19]  934 	ld	0 (iy),#0x01
                            935 ;engine/player.c:452: ppossee = 1;
   05CC FD 21r00r00   [14]  936 	ld	iy,#_ppossee
   05D0 FD 36 00 01   [19]  937 	ld	0 (iy),#0x01
                            938 ;engine/player.c:476: cfx = 0;
   05D4 FD 21r00r00   [14]  939 	ld	iy,#_cfx
   05D8 FD 36 00 00   [19]  940 	ld	0 (iy),#0x00
                            941 ;engine/player.c:477: if ((at1 & 40) == 40) { if (at1 & 1) cfx = pgtmx = PLAYER_VX_CONVEYORS; else cfx = pgtmx = -PLAYER_VX_CONVEYORS; pgotten = 1; } 
   05DC 3Ar00r00      [13]  942 	ld	a,(#_at1 + 0)
   05DF E6 28         [ 7]  943 	and	a, #0x28
   05E1 D6 28         [ 7]  944 	sub	a,#0x28
   05E3 20 29         [12]  945 	jr	NZ,00142$
   05E5 B1            [ 4]  946 	or	a,c
   05E6 28 10         [12]  947 	jr	Z,00139$
   05E8 21 30 00      [10]  948 	ld	hl,#0x0030
   05EB 22r00r00      [16]  949 	ld	(_pgtmx),hl
   05EE FD 21r00r00   [14]  950 	ld	iy,#_cfx
   05F2 FD 36 00 30   [19]  951 	ld	0 (iy),#0x30
   05F6 18 0E         [12]  952 	jr	00140$
   05F8                     953 00139$:
   05F8 21 D0 FF      [10]  954 	ld	hl,#0xFFD0
   05FB 22r00r00      [16]  955 	ld	(_pgtmx),hl
   05FE FD 21r00r00   [14]  956 	ld	iy,#_cfx
   0602 FD 36 00 D0   [19]  957 	ld	0 (iy),#0xD0
   0606                     958 00140$:
   0606 FD 21r00r00   [14]  959 	ld	iy,#_pgotten
   060A FD 36 00 01   [19]  960 	ld	0 (iy),#0x01
   060E                     961 00142$:
                            962 ;engine/player.c:478: if (cx1 != cx2) if ((at2 & 40) == 40) { if (at2 & 1) cfx = pgtmx = PLAYER_VX_CONVEYORS; else cfx = pgtmx = -PLAYER_VX_CONVEYORS; pgotten = 1; } 
   060E 3Ar00r00      [13]  963 	ld	a,(#_cx1 + 0)
   0611 FD 21r00r00   [14]  964 	ld	iy,#_cx2
   0615 FD 96 00      [19]  965 	sub	a, 0 (iy)
   0618 28 35         [12]  966 	jr	Z,00149$
   061A 3Ar00r00      [13]  967 	ld	a,(#_at2 + 0)
   061D E6 28         [ 7]  968 	and	a, #0x28
   061F D6 28         [ 7]  969 	sub	a, #0x28
   0621 20 2C         [12]  970 	jr	NZ,00149$
   0623 DD 7E FE      [19]  971 	ld	a,-2 (ix)
   0626 B7            [ 4]  972 	or	a, a
   0627 28 10         [12]  973 	jr	Z,00144$
   0629 21 30 00      [10]  974 	ld	hl,#0x0030
   062C 22r00r00      [16]  975 	ld	(_pgtmx),hl
   062F FD 21r00r00   [14]  976 	ld	iy,#_cfx
   0633 FD 36 00 30   [19]  977 	ld	0 (iy),#0x30
   0637 18 0E         [12]  978 	jr	00145$
   0639                     979 00144$:
   0639 21 D0 FF      [10]  980 	ld	hl,#0xFFD0
   063C 22r00r00      [16]  981 	ld	(_pgtmx),hl
   063F FD 21r00r00   [14]  982 	ld	iy,#_cfx
   0643 FD 36 00 D0   [19]  983 	ld	0 (iy),#0xD0
   0647                     984 00145$:
   0647 FD 21r00r00   [14]  985 	ld	iy,#_pgotten
   064B FD 36 00 01   [19]  986 	ld	0 (iy),#0x01
   064F                     987 00149$:
                            988 ;engine/player.c:486: if ((at1 & 1) || (at2 & 1)) pnotsafe = 1; 
   064F 79            [ 4]  989 	ld	a,c
   0650 B7            [ 4]  990 	or	a, a
   0651 20 06         [12]  991 	jr	NZ,00150$
   0653 DD 7E FE      [19]  992 	ld	a,-2 (ix)
   0656 B7            [ 4]  993 	or	a, a
   0657 28 27         [12]  994 	jr	Z,00167$
   0659                     995 00150$:
   0659 FD 21r00r00   [14]  996 	ld	iy,#_pnotsafe
   065D FD 36 00 01   [19]  997 	ld	0 (iy),#0x01
   0661 18 1D         [12]  998 	jr	00167$
   0663                     999 00159$:
                           1000 ;engine/player.c:487: } else if ((at1 & 1) || (at2 & 1)) {
   0663 79            [ 4] 1001 	ld	a,c
   0664 B7            [ 4] 1002 	or	a, a
   0665 20 06         [12] 1003 	jr	NZ,00155$
   0667 DD 7E FE      [19] 1004 	ld	a,-2 (ix)
   066A B7            [ 4] 1005 	or	a, a
   066B 28 13         [12] 1006 	jr	Z,00167$
   066D                    1007 00155$:
                           1008 ;engine/player.c:488: if ((pry & 15) > 4) hitv = 1;
   066D 3Ar00r00      [13] 1009 	ld	a,(#_pry + 0)
   0670 E6 0F         [ 7] 1010 	and	a, #0x0F
   0672 67            [ 4] 1011 	ld	h,a
   0673 3E 04         [ 7] 1012 	ld	a,#0x04
   0675 94            [ 4] 1013 	sub	a, h
   0676 30 08         [12] 1014 	jr	NC,00167$
   0678 FD 21r00r00   [14] 1015 	ld	iy,#_hitv
   067C FD 36 00 01   [19] 1016 	ld	0 (iy),#0x01
   0680                    1017 00167$:
                           1018 ;engine/player.c:505: if (vertical_engine_type == ENGINE_TYPE_JUMP) {
   0680 3Ar00r00      [13] 1019 	ld	a,(#_vertical_engine_type + 0)
   0683 B7            [ 4] 1020 	or	a, a
   0684 C2r02r07      [10] 1021 	jp	NZ,00188$
                           1022 ;engine/player.c:509: a_button 
   0687 3Ar00r00      [13] 1023 	ld	a,(#_a_button + 0)
   068A B7            [ 4] 1024 	or	a, a
   068B 28 30         [12] 1025 	jr	Z,00173$
                           1026 ;engine/player.c:510: && !pj
   068D 3Ar00r00      [13] 1027 	ld	a,(#_pj + 0)
   0690 B7            [ 4] 1028 	or	a, a
   0691 20 2A         [12] 1029 	jr	NZ,00173$
                           1030 ;engine/player.c:512: pgotten || ppossee || hitv
   0693 3Ar00r00      [13] 1031 	ld	a,(#_pgotten + 0)
   0696 B7            [ 4] 1032 	or	a, a
   0697 20 0C         [12] 1033 	jr	NZ,00172$
   0699 3Ar00r00      [13] 1034 	ld	a,(#_ppossee + 0)
   069C B7            [ 4] 1035 	or	a, a
   069D 20 06         [12] 1036 	jr	NZ,00172$
   069F 3Ar00r00      [13] 1037 	ld	a,(#_hitv + 0)
   06A2 B7            [ 4] 1038 	or	a, a
   06A3 28 18         [12] 1039 	jr	Z,00173$
   06A5                    1040 00172$:
                           1041 ;engine/player.c:518: jump_start ();
   06A5 CDr00r00      [17] 1042 	call	_jump_start
                           1043 ;engine/player.c:521: if (!(pgotten || hitv || pnotsafe)) {
   06A8 3Ar00r00      [13] 1044 	ld	a,(#_pgotten + 0)
   06AB B7            [ 4] 1045 	or	a, a
   06AC 20 0F         [12] 1046 	jr	NZ,00173$
   06AE 3Ar00r00      [13] 1047 	ld	a,(#_hitv + 0)
   06B1 B7            [ 4] 1048 	or	a, a
   06B2 20 09         [12] 1049 	jr	NZ,00173$
   06B4 3Ar00r00      [13] 1050 	ld	a,(#_pnotsafe + 0)
   06B7 B7            [ 4] 1051 	or	a, a
   06B8 20 03         [12] 1052 	jr	NZ,00173$
                           1053 ;engine/player.c:522: player_register_safe_spot ();
   06BA CDr00r00      [17] 1054 	call	_player_register_safe_spot
   06BD                    1055 00173$:
                           1056 ;engine/player.c:534: if (pj) {
   06BD 3Ar00r00      [13] 1057 	ld	a,(#_pj + 0)
   06C0 B7            [ 4] 1058 	or	a, a
   06C1 28 3F         [12] 1059 	jr	Z,00188$
                           1060 ;engine/player.c:541: if (pad0 & PAD_A) {
   06C3 FD 21r00r00   [14] 1061 	ld	iy,#_pad0
   06C7 FD CB 00 6E   [20] 1062 	bit	5, 0 (iy)
   06CB 28 18         [12] 1063 	jr	Z,00183$
                           1064 ;engine/player.c:542: ++ pctj; if (pctj == PLAYER_VY_MK2_JUMP_A_STEPS) pj = 0;
   06CD FD 21r00r00   [14] 1065 	ld	iy,#_pctj
   06D1 FD 34 00      [23] 1066 	inc	0 (iy)
   06D4 3Ar00r00      [13] 1067 	ld	a,(#_pctj + 0)
   06D7 D6 08         [ 7] 1068 	sub	a, #0x08
   06D9 20 27         [12] 1069 	jr	NZ,00188$
   06DB FD 21r00r00   [14] 1070 	ld	iy,#_pj
   06DF FD 36 00 00   [19] 1071 	ld	0 (iy),#0x00
   06E3 18 1D         [12] 1072 	jr	00188$
   06E5                    1073 00183$:
                           1074 ;engine/player.c:544: pj = 0; if (pvy < -PLAYER_VY_MK2_JUMP_RELEASE) pvy = -PLAYER_VY_MK2_JUMP_RELEASE;
   06E5 FD 21r00r00   [14] 1075 	ld	iy,#_pj
   06E9 FD 36 00 00   [19] 1076 	ld	0 (iy),#0x00
   06ED 3Ar00r00      [13] 1077 	ld	a,(#_pvy + 0)
   06F0 D6 C0         [ 7] 1078 	sub	a, #0xC0
   06F2 3Ar01r00      [13] 1079 	ld	a,(#_pvy + 1)
   06F5 17            [ 4] 1080 	rla
   06F6 3F            [ 4] 1081 	ccf
   06F7 1F            [ 4] 1082 	rra
   06F8 DE 7F         [ 7] 1083 	sbc	a, #0x7F
   06FA 30 06         [12] 1084 	jr	NC,00188$
   06FC 21 C0 FF      [10] 1085 	ld	hl,#0xFFC0
   06FF 22r00r00      [16] 1086 	ld	(_pvy),hl
   0702                    1087 00188$:
                           1088 ;engine/player.c:642: if (!(pad0 & PAD_LEFT || pad0 & PAD_RIGHT)) {
   0702 3Ar00r00      [13] 1089 	ld	a,(#_pad0 + 0)
   0705 E6 04         [ 7] 1090 	and	a, #0x04
   0707 57            [ 4] 1091 	ld	d,a
   0708 3Ar00r00      [13] 1092 	ld	a,(#_pad0 + 0)
   070B E6 08         [ 7] 1093 	and	a, #0x08
   070D 5F            [ 4] 1094 	ld	e,a
   070E 7A            [ 4] 1095 	ld	a,d
   070F B7            [ 4] 1096 	or	a,a
   0710 20 65         [12] 1097 	jr	NZ,00199$
   0712 B3            [ 4] 1098 	or	a,e
   0713 20 62         [12] 1099 	jr	NZ,00199$
                           1100 ;engine/player.c:650: if (pvx > 0) {
   0715 AF            [ 4] 1101 	xor	a, a
   0716 FD 21r00r00   [14] 1102 	ld	iy,#_pvx
   071A FD BE 00      [19] 1103 	cp	a, 0 (iy)
   071D FD 21r00r00   [14] 1104 	ld	iy,#_pvx
   0721 FD 9E 01      [19] 1105 	sbc	a, 1 (iy)
   0724 E2r29r07      [10] 1106 	jp	PO, 00605$
   0727 EE 80         [ 7] 1107 	xor	a, #0x80
   0729                    1108 00605$:
   0729 F2r47r07      [10] 1109 	jp	P,00196$
                           1110 ;engine/player.c:655: pvx -= PLAYER_RX;
   072C 21r00r00      [10] 1111 	ld	hl,#_pvx
   072F 7E            [ 7] 1112 	ld	a,(hl)
   0730 C6 F4         [ 7] 1113 	add	a,#0xF4
   0732 77            [ 7] 1114 	ld	(hl),a
   0733 23            [ 6] 1115 	inc	hl
   0734 7E            [ 7] 1116 	ld	a,(hl)
   0735 CE FF         [ 7] 1117 	adc	a,#0xFF
   0737 77            [ 7] 1118 	ld	(hl),a
                           1119 ;engine/player.c:658: if (pvx < 0) pvx = 0;
   0738 3Ar01r00      [13] 1120 	ld	a,(#_pvx + 1)
   073B CB 7F         [ 8] 1121 	bit	7,a
   073D 28 38         [12] 1122 	jr	Z,00199$
   073F 21 00 00      [10] 1123 	ld	hl,#0x0000
   0742 22r00r00      [16] 1124 	ld	(_pvx),hl
   0745 18 30         [12] 1125 	jr	00199$
   0747                    1126 00196$:
                           1127 ;engine/player.c:659: } else if (pvx < 0) {
   0747 3Ar01r00      [13] 1128 	ld	a,(#_pvx + 1)
   074A CB 7F         [ 8] 1129 	bit	7,a
   074C 28 29         [12] 1130 	jr	Z,00199$
                           1131 ;engine/player.c:664: pvx += PLAYER_RX;
   074E 21r00r00      [10] 1132 	ld	hl,#_pvx
   0751 7E            [ 7] 1133 	ld	a,(hl)
   0752 C6 0C         [ 7] 1134 	add	a, #0x0C
   0754 77            [ 7] 1135 	ld	(hl),a
   0755 23            [ 6] 1136 	inc	hl
   0756 7E            [ 7] 1137 	ld	a,(hl)
   0757 CE 00         [ 7] 1138 	adc	a, #0x00
   0759 77            [ 7] 1139 	ld	(hl),a
                           1140 ;engine/player.c:667: if (pvx > 0) pvx = 0;
   075A AF            [ 4] 1141 	xor	a, a
   075B FD 21r00r00   [14] 1142 	ld	iy,#_pvx
   075F FD BE 00      [19] 1143 	cp	a, 0 (iy)
   0762 FD 21r00r00   [14] 1144 	ld	iy,#_pvx
   0766 FD 9E 01      [19] 1145 	sbc	a, 1 (iy)
   0769 E2r6Er07      [10] 1146 	jp	PO, 00606$
   076C EE 80         [ 7] 1147 	xor	a, #0x80
   076E                    1148 00606$:
   076E F2r77r07      [10] 1149 	jp	P,00199$
   0771 21 00 00      [10] 1150 	ld	hl,#0x0000
   0774 22r00r00      [16] 1151 	ld	(_pvx),hl
   0777                    1152 00199$:
                           1153 ;engine/player.c:672: if (pad0 & PAD_LEFT) {
   0777 7A            [ 4] 1154 	ld	a,d
   0778 B7            [ 4] 1155 	or	a, a
   0779 28 2E         [12] 1156 	jr	Z,00204$
                           1157 ;engine/player.c:676: pfacing = CELL_FACING_LEFT;		
   077B FD 21r00r00   [14] 1158 	ld	iy,#_pfacing
   077F FD 36 00 08   [19] 1159 	ld	0 (iy),#0x08
                           1160 ;engine/player.c:679: if (pvx > -PLAYER_VX_MAX) {
   0783 3E 90         [ 7] 1161 	ld	a,#0x90
   0785 FD 21r00r00   [14] 1162 	ld	iy,#_pvx
   0789 FD BE 00      [19] 1163 	cp	a, 0 (iy)
   078C 3E FF         [ 7] 1164 	ld	a,#0xFF
   078E FD 21r00r00   [14] 1165 	ld	iy,#_pvx
   0792 FD 9E 01      [19] 1166 	sbc	a, 1 (iy)
   0795 E2r9Ar07      [10] 1167 	jp	PO, 00607$
   0798 EE 80         [ 7] 1168 	xor	a, #0x80
   079A                    1169 00607$:
   079A F2rA9r07      [10] 1170 	jp	P,00204$
                           1171 ;engine/player.c:684: pvx -= PLAYER_AX;
   079D 21r00r00      [10] 1172 	ld	hl,#_pvx
   07A0 7E            [ 7] 1173 	ld	a,(hl)
   07A1 C6 F4         [ 7] 1174 	add	a,#0xF4
   07A3 77            [ 7] 1175 	ld	(hl),a
   07A4 23            [ 6] 1176 	inc	hl
   07A5 7E            [ 7] 1177 	ld	a,(hl)
   07A6 CE FF         [ 7] 1178 	adc	a,#0xFF
   07A8 77            [ 7] 1179 	ld	(hl),a
   07A9                    1180 00204$:
                           1181 ;engine/player.c:689: if (pad0 & PAD_RIGHT) {
   07A9 7B            [ 4] 1182 	ld	a,e
   07AA B7            [ 4] 1183 	or	a, a
   07AB 28 20         [12] 1184 	jr	Z,00208$
                           1185 ;engine/player.c:693: pfacing = CELL_FACING_RIGHT;
   07AD 21r00r00      [10] 1186 	ld	hl,#_pfacing + 0
   07B0 36 00         [10] 1187 	ld	(hl), #0x00
                           1188 ;engine/player.c:696: if (pvx < PLAYER_VX_MAX) {
   07B2 3Ar00r00      [13] 1189 	ld	a,(#_pvx + 0)
   07B5 D6 70         [ 7] 1190 	sub	a, #0x70
   07B7 3Ar01r00      [13] 1191 	ld	a,(#_pvx + 1)
   07BA 17            [ 4] 1192 	rla
   07BB 3F            [ 4] 1193 	ccf
   07BC 1F            [ 4] 1194 	rra
   07BD DE 80         [ 7] 1195 	sbc	a, #0x80
   07BF 30 0C         [12] 1196 	jr	NC,00208$
                           1197 ;engine/player.c:701: pvx += PLAYER_AX;
   07C1 21r00r00      [10] 1198 	ld	hl,#_pvx
   07C4 7E            [ 7] 1199 	ld	a,(hl)
   07C5 C6 0C         [ 7] 1200 	add	a, #0x0C
   07C7 77            [ 7] 1201 	ld	(hl),a
   07C8 23            [ 6] 1202 	inc	hl
   07C9 7E            [ 7] 1203 	ld	a,(hl)
   07CA CE 00         [ 7] 1204 	adc	a, #0x00
   07CC 77            [ 7] 1205 	ld	(hl),a
   07CD                    1206 00208$:
                           1207 ;engine/player.c:707: px += pvx;
   07CD 21r00r00      [10] 1208 	ld	hl,#_pvx
   07D0 D5            [11] 1209 	push	de
   07D1 FD 21r00r00   [14] 1210 	ld	iy,#_px
   07D5 FD E5         [15] 1211 	push	iy
   07D7 D1            [10] 1212 	pop	de
   07D8 1A            [ 7] 1213 	ld	a,(de)
   07D9 86            [ 7] 1214 	add	a, (hl)
   07DA 12            [ 7] 1215 	ld	(de),a
   07DB 13            [ 6] 1216 	inc	de
   07DC 1A            [ 7] 1217 	ld	a,(de)
   07DD 23            [ 6] 1218 	inc	hl
   07DE 8E            [ 7] 1219 	adc	a, (hl)
   07DF 12            [ 7] 1220 	ld	(de),a
   07E0 D1            [10] 1221 	pop	de
                           1222 ;engine/player.c:709: if (pgotten) px += pgtmx;
   07E1 3Ar00r00      [13] 1223 	ld	a,(#_pgotten + 0)
   07E4 B7            [ 4] 1224 	or	a, a
   07E5 28 14         [12] 1225 	jr	Z,00210$
   07E7 21r00r00      [10] 1226 	ld	hl,#_pgtmx
   07EA D5            [11] 1227 	push	de
   07EB FD 21r00r00   [14] 1228 	ld	iy,#_px
   07EF FD E5         [15] 1229 	push	iy
   07F1 D1            [10] 1230 	pop	de
   07F2 1A            [ 7] 1231 	ld	a,(de)
   07F3 86            [ 7] 1232 	add	a, (hl)
   07F4 12            [ 7] 1233 	ld	(de),a
   07F5 13            [ 6] 1234 	inc	de
   07F6 1A            [ 7] 1235 	ld	a,(de)
   07F7 23            [ 6] 1236 	inc	hl
   07F8 8E            [ 7] 1237 	adc	a, (hl)
   07F9 12            [ 7] 1238 	ld	(de),a
   07FA D1            [10] 1239 	pop	de
   07FB                    1240 00210$:
                           1241 ;engine/player.c:712: if (px < (4<<FIXBITS)) { px = 4 << FIXBITS; prx = 4;}
   07FB 3Ar01r00      [13] 1242 	ld	a,(#_px + 1)
   07FE EE 80         [ 7] 1243 	xor	a, #0x80
   0800 D6 81         [ 7] 1244 	sub	a, #0x81
   0802 30 0D         [12] 1245 	jr	NC,00215$
   0804 21 00 01      [10] 1246 	ld	hl,#0x0100
   0807 22r00r00      [16] 1247 	ld	(_px),hl
   080A 21r00r00      [10] 1248 	ld	hl,#_prx + 0
   080D 36 04         [10] 1249 	ld	(hl), #0x04
   080F 18 29         [12] 1250 	jr	00216$
   0811                    1251 00215$:
                           1252 ;engine/player.c:713: else if (px > (244<<FIXBITS)) { px = 244 << FIXBITS; prx = 244; }
   0811 AF            [ 4] 1253 	xor	a, a
   0812 FD 21r00r00   [14] 1254 	ld	iy,#_px
   0816 FD BE 00      [19] 1255 	cp	a, 0 (iy)
   0819 3E 3D         [ 7] 1256 	ld	a,#0x3D
   081B FD 21r00r00   [14] 1257 	ld	iy,#_px
   081F FD 9E 01      [19] 1258 	sbc	a, 1 (iy)
   0822 E2r27r08      [10] 1259 	jp	PO, 00608$
   0825 EE 80         [ 7] 1260 	xor	a, #0x80
   0827                    1261 00608$:
   0827 F2r37r08      [10] 1262 	jp	P,00212$
   082A 21 00 3D      [10] 1263 	ld	hl,#0x3D00
   082D 22r00r00      [16] 1264 	ld	(_px),hl
   0830 21r00r00      [10] 1265 	ld	hl,#_prx + 0
   0833 36 F4         [10] 1266 	ld	(hl), #0xF4
   0835 18 03         [12] 1267 	jr	00216$
   0837                    1268 00212$:
                           1269 ;engine/player.c:714: else player_to_pixels ();
   0837 CDr9Dr00      [17] 1270 	call	_player_to_pixels
   083A                    1271 00216$:
                           1272 ;engine/player.c:719: cy1 = (pry - PLAYER_COLLISION_VSTRETCH_BG) >> 4;
   083A 21r00r00      [10] 1273 	ld	hl,#_pry + 0
   083D 5E            [ 7] 1274 	ld	e, (hl)
   083E 16 00         [ 7] 1275 	ld	d,#0x00
   0840 7B            [ 4] 1276 	ld	a,e
   0841 C6 04         [ 7] 1277 	add	a,#0x04
   0843 6F            [ 4] 1278 	ld	l,a
   0844 7A            [ 4] 1279 	ld	a,d
   0845 CE 00         [ 7] 1280 	adc	a,#0x00
   0847 67            [ 4] 1281 	ld	h,a
   0848 CB 2C         [ 8] 1282 	sra	h
   084A CB 1D         [ 8] 1283 	rr	l
   084C CB 2C         [ 8] 1284 	sra	h
   084E CB 1D         [ 8] 1285 	rr	l
   0850 CB 2C         [ 8] 1286 	sra	h
   0852 CB 1D         [ 8] 1287 	rr	l
   0854 CB 2C         [ 8] 1288 	sra	h
   0856 CB 1D         [ 8] 1289 	rr	l
   0858 FD 21r00r00   [14] 1290 	ld	iy,#_cy1
   085C FD 75 00      [19] 1291 	ld	0 (iy),l
                           1292 ;engine/player.c:720: cy2 = (pry + 15) >> 4;
   085F 21 0F 00      [10] 1293 	ld	hl,#0x000F
   0862 19            [11] 1294 	add	hl,de
   0863 CB 2C         [ 8] 1295 	sra	h
   0865 CB 1D         [ 8] 1296 	rr	l
   0867 CB 2C         [ 8] 1297 	sra	h
   0869 CB 1D         [ 8] 1298 	rr	l
   086B CB 2C         [ 8] 1299 	sra	h
   086D CB 1D         [ 8] 1300 	rr	l
   086F CB 2C         [ 8] 1301 	sra	h
   0871 CB 1D         [ 8] 1302 	rr	l
   0873 FD 21r00r00   [14] 1303 	ld	iy,#_cy2
   0877 FD 75 00      [19] 1304 	ld	0 (iy),l
                           1305 ;engine/player.c:723: rds16 = pvx + pgtmx;
   087A 21r00r00      [10] 1306 	ld	hl,#_pgtmx
   087D D5            [11] 1307 	push	de
   087E FD 21r00r00   [14] 1308 	ld	iy,#_rds16
   0882 FD E5         [15] 1309 	push	iy
   0884 D1            [10] 1310 	pop	de
   0885 3Ar00r00      [13] 1311 	ld	a,(#_pvx + 0)
   0888 86            [ 7] 1312 	add	a, (hl)
   0889 12            [ 7] 1313 	ld	(de),a
   088A 3Ar01r00      [13] 1314 	ld	a,(#_pvx + 1)
   088D 23            [ 6] 1315 	inc	hl
   088E 8E            [ 7] 1316 	adc	a, (hl)
   088F 13            [ 6] 1317 	inc	de
   0890 12            [ 7] 1318 	ld	(de),a
   0891 D1            [10] 1319 	pop	de
                           1320 ;engine/player.c:724: if (rds16) 	{
   0892 3Ar01r00      [13] 1321 	ld	a,(#_rds16 + 1)
   0895 FD 21r00r00   [14] 1322 	ld	iy,#_rds16
   0899 FD B6 00      [19] 1323 	or	a,0 (iy)
   089C CArEEr09      [10] 1324 	jp	Z,00233$
                           1325 ;engine/player.c:725: if (rds16 < 0) {
   089F 3Ar01r00      [13] 1326 	ld	a,(#_rds16 + 1)
   08A2 CB 7F         [ 8] 1327 	bit	7,a
   08A4 28 24         [12] 1328 	jr	Z,00218$
                           1329 ;engine/player.c:726: cx1 = cx2 = prx >> 4; 
   08A6 3Ar00r00      [13] 1330 	ld	a,(#_prx + 0)
   08A9 07            [ 4] 1331 	rlca
   08AA 07            [ 4] 1332 	rlca
   08AB 07            [ 4] 1333 	rlca
   08AC 07            [ 4] 1334 	rlca
   08AD E6 0F         [ 7] 1335 	and	a,#0x0F
   08AF 32r00r00      [13] 1336 	ld	(#_cx2 + 0),a
                           1337 ;engine/player.c:727: rda = (cx1 + 1) << 4;
   08B2 32r00r00      [13] 1338 	ld	(#_cx1 + 0),a
   08B5 3C            [ 4] 1339 	inc	a
   08B6 07            [ 4] 1340 	rlca
   08B7 07            [ 4] 1341 	rlca
   08B8 07            [ 4] 1342 	rlca
   08B9 07            [ 4] 1343 	rlca
   08BA E6 F0         [ 7] 1344 	and	a,#0xF0
   08BC 32r00r00      [13] 1345 	ld	(#_rda + 0),a
                           1346 ;engine/player.c:728: rdm = cx1 - 1;
   08BF 21r00r00      [10] 1347 	ld	hl,#_rdm
   08C2 3Ar00r00      [13] 1348 	ld	a,(#_cx1 + 0)
   08C5 C6 FF         [ 7] 1349 	add	a,#0xFF
   08C7 77            [ 7] 1350 	ld	(hl),a
   08C8 18 3A         [12] 1351 	jr	00219$
   08CA                    1352 00218$:
                           1353 ;engine/player.c:730: cx1 = cx2 = (prx + 8) >> 4;
   08CA FD 21r00r00   [14] 1354 	ld	iy,#_prx
   08CE FD 6E 00      [19] 1355 	ld	l,0 (iy)
   08D1 26 00         [ 7] 1356 	ld	h,#0x00
   08D3 01 08 00      [10] 1357 	ld	bc,#0x0008
   08D6 09            [11] 1358 	add	hl,bc
   08D7 CB 2C         [ 8] 1359 	sra	h
   08D9 CB 1D         [ 8] 1360 	rr	l
   08DB CB 2C         [ 8] 1361 	sra	h
   08DD CB 1D         [ 8] 1362 	rr	l
   08DF CB 2C         [ 8] 1363 	sra	h
   08E1 CB 1D         [ 8] 1364 	rr	l
   08E3 CB 2C         [ 8] 1365 	sra	h
   08E5 CB 1D         [ 8] 1366 	rr	l
   08E7 7D            [ 4] 1367 	ld	a,l
   08E8 32r00r00      [13] 1368 	ld	(#_cx2 + 0),a
                           1369 ;engine/player.c:731: rda = ((cx1 - 1) << 4) + 8;
   08EB 32r00r00      [13] 1370 	ld	(#_cx1 + 0),a
   08EE C6 FF         [ 7] 1371 	add	a,#0xFF
   08F0 07            [ 4] 1372 	rlca
   08F1 07            [ 4] 1373 	rlca
   08F2 07            [ 4] 1374 	rlca
   08F3 07            [ 4] 1375 	rlca
   08F4 E6 F0         [ 7] 1376 	and	a,#0xF0
   08F6 21r00r00      [10] 1377 	ld	hl,#_rda
   08F9 C6 08         [ 7] 1378 	add	a, #0x08
   08FB 77            [ 7] 1379 	ld	(hl),a
                           1380 ;engine/player.c:732: rdm = cx1 + 1;
   08FC 21r00r00      [10] 1381 	ld	hl,#_rdm
   08FF 3Ar00r00      [13] 1382 	ld	a,(#_cx1 + 0)
   0902 3C            [ 4] 1383 	inc	a
   0903 77            [ 7] 1384 	ld	(hl),a
   0904                    1385 00219$:
                           1386 ;engine/player.c:748: cm_two_points ();
   0904 CDr00r00      [17] 1387 	call	_cm_two_points
                           1388 ;engine/player.c:749: if ((at1 & 8) || (at2 & 8)) {
   0907 FD 21r00r00   [14] 1389 	ld	iy,#_at1
   090B FD CB 00 5E   [20] 1390 	bit	3, 0 (iy)
   090F 20 0B         [12] 1391 	jr	NZ,00226$
   0911 FD 21r00r00   [14] 1392 	ld	iy,#_at2
   0915 FD CB 00 5E   [20] 1393 	bit	3, 0 (iy)
   0919 CArA2r09      [10] 1394 	jp	Z,00227$
   091C                    1395 00226$:
                           1396 ;engine/player.c:750: pvx = 0; prx = rda; px = prx << FIXBITS; pfiring = 1;
   091C 21 00 00      [10] 1397 	ld	hl,#0x0000
   091F 22r00r00      [16] 1398 	ld	(_pvx),hl
   0922 3Ar00r00      [13] 1399 	ld	a,(#_rda + 0)
   0925 32r00r00      [13] 1400 	ld	(#_prx + 0),a
   0928 FD 21r00r00   [14] 1401 	ld	iy,#_prx
   092C FD 6E 00      [19] 1402 	ld	l,0 (iy)
   092F 26 00         [ 7] 1403 	ld	h,#0x00
   0931 29            [11] 1404 	add	hl, hl
   0932 29            [11] 1405 	add	hl, hl
   0933 29            [11] 1406 	add	hl, hl
   0934 29            [11] 1407 	add	hl, hl
   0935 29            [11] 1408 	add	hl, hl
   0936 29            [11] 1409 	add	hl, hl
   0937 22r00r00      [16] 1410 	ld	(_px),hl
   093A FD 21r00r00   [14] 1411 	ld	iy,#_pfiring
   093E FD 36 00 01   [19] 1412 	ld	0 (iy),#0x01
                           1413 ;engine/player.c:754: if (at1 & 2) player_process_tile (at1, cx1, cy1, rdm, cy1);
   0942 FD 21r00r00   [14] 1414 	ld	iy,#_at1
   0946 FD CB 00 4E   [20] 1415 	bit	1, 0 (iy)
   094A 28 1F         [12] 1416 	jr	Z,00221$
   094C 3Ar00r00      [13] 1417 	ld	a,(_cy1)
   094F F5            [11] 1418 	push	af
   0950 33            [ 6] 1419 	inc	sp
   0951 3Ar00r00      [13] 1420 	ld	a,(_rdm)
   0954 F5            [11] 1421 	push	af
   0955 33            [ 6] 1422 	inc	sp
   0956 3Ar00r00      [13] 1423 	ld	a,(_cy1)
   0959 F5            [11] 1424 	push	af
   095A 33            [ 6] 1425 	inc	sp
   095B 3Ar00r00      [13] 1426 	ld	a,(_cx1)
   095E F5            [11] 1427 	push	af
   095F 33            [ 6] 1428 	inc	sp
   0960 3Ar00r00      [13] 1429 	ld	a,(_at1)
   0963 F5            [11] 1430 	push	af
   0964 33            [ 6] 1431 	inc	sp
   0965 CDr3Dr01      [17] 1432 	call	_player_process_tile
   0968 F1            [10] 1433 	pop	af
   0969 F1            [10] 1434 	pop	af
   096A 33            [ 6] 1435 	inc	sp
   096B                    1436 00221$:
                           1437 ;engine/player.c:755: if (cy1 != cy2) if (at2 & 2) player_process_tile (at2, cx1, cy2, rdm, cy2);
   096B 3Ar00r00      [13] 1438 	ld	a,(#_cy1 + 0)
   096E FD 21r00r00   [14] 1439 	ld	iy,#_cy2
   0972 FD 96 00      [19] 1440 	sub	a, 0 (iy)
   0975 28 4C         [12] 1441 	jr	Z,00228$
   0977 FD 21r00r00   [14] 1442 	ld	iy,#_at2
   097B FD CB 00 4E   [20] 1443 	bit	1, 0 (iy)
   097F 28 42         [12] 1444 	jr	Z,00228$
   0981 3Ar00r00      [13] 1445 	ld	a,(_cy2)
   0984 F5            [11] 1446 	push	af
   0985 33            [ 6] 1447 	inc	sp
   0986 3Ar00r00      [13] 1448 	ld	a,(_rdm)
   0989 F5            [11] 1449 	push	af
   098A 33            [ 6] 1450 	inc	sp
   098B 3Ar00r00      [13] 1451 	ld	a,(_cy2)
   098E F5            [11] 1452 	push	af
   098F 33            [ 6] 1453 	inc	sp
   0990 3Ar00r00      [13] 1454 	ld	a,(_cx1)
   0993 F5            [11] 1455 	push	af
   0994 33            [ 6] 1456 	inc	sp
   0995 3Ar00r00      [13] 1457 	ld	a,(_at2)
   0998 F5            [11] 1458 	push	af
   0999 33            [ 6] 1459 	inc	sp
   099A CDr3Dr01      [17] 1460 	call	_player_process_tile
   099D F1            [10] 1461 	pop	af
   099E F1            [10] 1462 	pop	af
   099F 33            [ 6] 1463 	inc	sp
   09A0 18 21         [12] 1464 	jr	00228$
   09A2                    1465 00227$:
                           1466 ;engine/player.c:758: hith = ((at1 & 1) || (at2 & 1));
   09A2 FD 21r00r00   [14] 1467 	ld	iy,#_at1
   09A6 FD CB 00 46   [20] 1468 	bit	0, 0 (iy)
   09AA 20 0E         [12] 1469 	jr	NZ,00260$
   09AC FD 21r00r00   [14] 1470 	ld	iy,#_at2
   09B0 FD CB 00 46   [20] 1471 	bit	0, 0 (iy)
   09B4 20 04         [12] 1472 	jr	NZ,00260$
   09B6 3E 00         [ 7] 1473 	ld	a,#0x00
   09B8 18 02         [12] 1474 	jr	00261$
   09BA                    1475 00260$:
   09BA 3E 01         [ 7] 1476 	ld	a,#0x01
   09BC                    1477 00261$:
   09BC FD 21r00r00   [14] 1478 	ld	iy,#_hith
   09C0 FD 77 00      [19] 1479 	ld	0 (iy),a
   09C3                    1480 00228$:
                           1481 ;engine/player.c:761: if (pvy > 0) hith &= ((pry & 15) > 4);
   09C3 AF            [ 4] 1482 	xor	a, a
   09C4 FD 21r00r00   [14] 1483 	ld	iy,#_pvy
   09C8 FD BE 00      [19] 1484 	cp	a, 0 (iy)
   09CB FD 21r00r00   [14] 1485 	ld	iy,#_pvy
   09CF FD 9E 01      [19] 1486 	sbc	a, 1 (iy)
   09D2 E2rD7r09      [10] 1487 	jp	PO, 00619$
   09D5 EE 80         [ 7] 1488 	xor	a, #0x80
   09D7                    1489 00619$:
   09D7 F2rEEr09      [10] 1490 	jp	P,00233$
   09DA 3Ar00r00      [13] 1491 	ld	a,(#_pry + 0)
   09DD E6 0F         [ 7] 1492 	and	a, #0x0F
   09DF 67            [ 4] 1493 	ld	h,a
   09E0 3E 04         [ 7] 1494 	ld	a,#0x04
   09E2 94            [ 4] 1495 	sub	a, h
   09E3 3E 00         [ 7] 1496 	ld	a,#0x00
   09E5 17            [ 4] 1497 	rla
   09E6 57            [ 4] 1498 	ld	d,a
   09E7 3Ar00r00      [13] 1499 	ld	a,(#_hith + 0)
   09EA A2            [ 4] 1500 	and	a, d
                           1501 ;engine/player.c:789: phit = 0;
   09EB 32r00r00      [13] 1502 	ld	(#_hith + 0),a
   09EE                    1503 00233$:
   09EE FD 21r00r00   [14] 1504 	ld	iy,#_phit
   09F2 FD 36 00 00   [19] 1505 	ld	0 (iy),#0x00
                           1506 ;engine/player.c:791: if (pgotten == 0) {
   09F6 3Ar00r00      [13] 1507 	ld	a,(#_pgotten + 0)
   09F9 B7            [ 4] 1508 	or	a, a
   09FA C2r3Dr0B      [10] 1509 	jp	NZ,00248$
                           1510 ;engine/player.c:799: if (hitv) { phit = 1; pvy = ADD_SIGN (-pvy, PLAYER_V_REBOUND); pry = pcy; py = pry << FIXBITS; } 
   09FD 3Ar00r00      [13] 1511 	ld	a,(#_hitv + 0)
   0A00 B7            [ 4] 1512 	or	a, a
   0A01 28 50         [12] 1513 	jr	Z,00237$
   0A03 21r00r00      [10] 1514 	ld	hl,#_phit + 0
   0A06 36 01         [10] 1515 	ld	(hl), #0x01
   0A08 AF            [ 4] 1516 	xor	a, a
   0A09 FD 21r00r00   [14] 1517 	ld	iy,#_pvy
   0A0D FD 96 00      [19] 1518 	sub	a, 0 (iy)
   0A10 67            [ 4] 1519 	ld	h,a
   0A11 3E 00         [ 7] 1520 	ld	a, #0x00
   0A13 FD 21r00r00   [14] 1521 	ld	iy,#_pvy
   0A17 FD 9E 01      [19] 1522 	sbc	a, 1 (iy)
   0A1A 6F            [ 4] 1523 	ld	l,a
   0A1B B4            [ 4] 1524 	or	a,h
   0A1C 28 15         [12] 1525 	jr	Z,00262$
   0A1E AF            [ 4] 1526 	xor	a, a
   0A1F BC            [ 4] 1527 	cp	a, h
   0A20 9D            [ 4] 1528 	sbc	a, l
   0A21 E2r26r0A      [10] 1529 	jp	PO, 00620$
   0A24 EE 80         [ 7] 1530 	xor	a, #0x80
   0A26                    1531 00620$:
   0A26 F2r2Er0A      [10] 1532 	jp	P,00264$
   0A29 21 E0 00      [10] 1533 	ld	hl,#0x00E0
   0A2C 18 08         [12] 1534 	jr	00263$
   0A2E                    1535 00264$:
   0A2E 21 20 FF      [10] 1536 	ld	hl,#0xFF20
   0A31 18 03         [12] 1537 	jr	00263$
   0A33                    1538 00262$:
   0A33 21 00 00      [10] 1539 	ld	hl,#0x0000
   0A36                    1540 00263$:
   0A36 22r00r00      [16] 1541 	ld	(_pvy),hl
   0A39 3Ar00r00      [13] 1542 	ld	a,(#_pcy + 0)
   0A3C 32r00r00      [13] 1543 	ld	(#_pry + 0),a
   0A3F FD 21r00r00   [14] 1544 	ld	iy,#_pry
   0A43 FD 6E 00      [19] 1545 	ld	l,0 (iy)
   0A46 26 00         [ 7] 1546 	ld	h,#0x00
   0A48 29            [11] 1547 	add	hl, hl
   0A49 29            [11] 1548 	add	hl, hl
   0A4A 29            [11] 1549 	add	hl, hl
   0A4B 29            [11] 1550 	add	hl, hl
   0A4C 29            [11] 1551 	add	hl, hl
   0A4D 29            [11] 1552 	add	hl, hl
   0A4E 22r00r00      [16] 1553 	ld	(_py),hl
   0A51 18 54         [12] 1554 	jr	00238$
   0A53                    1555 00237$:
                           1556 ;engine/player.c:803: if (hith) { phit = 1; pvx = ADD_SIGN (-pvx, PLAYER_V_REBOUND); prx = pcx; px = prx << FIXBITS; }
   0A53 3Ar00r00      [13] 1557 	ld	a,(#_hith + 0)
   0A56 B7            [ 4] 1558 	or	a, a
   0A57 28 4E         [12] 1559 	jr	Z,00238$
   0A59 21r00r00      [10] 1560 	ld	hl,#_phit + 0
   0A5C 36 01         [10] 1561 	ld	(hl), #0x01
   0A5E AF            [ 4] 1562 	xor	a, a
   0A5F FD 21r00r00   [14] 1563 	ld	iy,#_pvx
   0A63 FD 96 00      [19] 1564 	sub	a, 0 (iy)
   0A66 67            [ 4] 1565 	ld	h,a
   0A67 3E 00         [ 7] 1566 	ld	a, #0x00
   0A69 FD 21r00r00   [14] 1567 	ld	iy,#_pvx
   0A6D FD 9E 01      [19] 1568 	sbc	a, 1 (iy)
   0A70 6F            [ 4] 1569 	ld	l,a
   0A71 B4            [ 4] 1570 	or	a,h
   0A72 28 15         [12] 1571 	jr	Z,00266$
   0A74 AF            [ 4] 1572 	xor	a, a
   0A75 BC            [ 4] 1573 	cp	a, h
   0A76 9D            [ 4] 1574 	sbc	a, l
   0A77 E2r7Cr0A      [10] 1575 	jp	PO, 00621$
   0A7A EE 80         [ 7] 1576 	xor	a, #0x80
   0A7C                    1577 00621$:
   0A7C F2r84r0A      [10] 1578 	jp	P,00268$
   0A7F 21 E0 00      [10] 1579 	ld	hl,#0x00E0
   0A82 18 08         [12] 1580 	jr	00267$
   0A84                    1581 00268$:
   0A84 21 20 FF      [10] 1582 	ld	hl,#0xFF20
   0A87 18 03         [12] 1583 	jr	00267$
   0A89                    1584 00266$:
   0A89 21 00 00      [10] 1585 	ld	hl,#0x0000
   0A8C                    1586 00267$:
   0A8C 22r00r00      [16] 1587 	ld	(_pvx),hl
   0A8F 3Ar00r00      [13] 1588 	ld	a,(#_pcx + 0)
   0A92 32r00r00      [13] 1589 	ld	(#_prx + 0),a
   0A95 FD 21r00r00   [14] 1590 	ld	iy,#_prx
   0A99 FD 6E 00      [19] 1591 	ld	l,0 (iy)
   0A9C 26 00         [ 7] 1592 	ld	h,#0x00
   0A9E 29            [11] 1593 	add	hl, hl
   0A9F 29            [11] 1594 	add	hl, hl
   0AA0 29            [11] 1595 	add	hl, hl
   0AA1 29            [11] 1596 	add	hl, hl
   0AA2 29            [11] 1597 	add	hl, hl
   0AA3 29            [11] 1598 	add	hl, hl
   0AA4 22r00r00      [16] 1599 	ld	(_px),hl
   0AA7                    1600 00238$:
                           1601 ;engine/player.c:807: cx1 = cx2 = (prx + 4) >> 4;
   0AA7 21r00r00      [10] 1602 	ld	hl,#_prx + 0
   0AAA 5E            [ 7] 1603 	ld	e, (hl)
   0AAB 16 00         [ 7] 1604 	ld	d,#0x00
   0AAD 13            [ 6] 1605 	inc	de
   0AAE 13            [ 6] 1606 	inc	de
   0AAF 13            [ 6] 1607 	inc	de
   0AB0 13            [ 6] 1608 	inc	de
   0AB1 CB 2A         [ 8] 1609 	sra	d
   0AB3 CB 1B         [ 8] 1610 	rr	e
   0AB5 CB 2A         [ 8] 1611 	sra	d
   0AB7 CB 1B         [ 8] 1612 	rr	e
   0AB9 CB 2A         [ 8] 1613 	sra	d
   0ABB CB 1B         [ 8] 1614 	rr	e
   0ABD CB 2A         [ 8] 1615 	sra	d
   0ABF CB 1B         [ 8] 1616 	rr	e
   0AC1 21r00r00      [10] 1617 	ld	hl,#_cx2 + 0
   0AC4 73            [ 7] 1618 	ld	(hl), e
   0AC5 21r00r00      [10] 1619 	ld	hl,#_cx1 + 0
   0AC8 73            [ 7] 1620 	ld	(hl), e
                           1621 ;engine/player.c:808: cy1 = pry >> 4; cy2 = (pry + 15) >> 4;
   0AC9 3Ar00r00      [13] 1622 	ld	a,(#_pry + 0)
   0ACC 07            [ 4] 1623 	rlca
   0ACD 07            [ 4] 1624 	rlca
   0ACE 07            [ 4] 1625 	rlca
   0ACF 07            [ 4] 1626 	rlca
   0AD0 E6 0F         [ 7] 1627 	and	a,#0x0F
   0AD2 32r00r00      [13] 1628 	ld	(#_cy1 + 0),a
   0AD5 FD 21r00r00   [14] 1629 	ld	iy,#_pry
   0AD9 FD 6E 00      [19] 1630 	ld	l,0 (iy)
   0ADC 26 00         [ 7] 1631 	ld	h,#0x00
   0ADE 01 0F 00      [10] 1632 	ld	bc,#0x000F
   0AE1 09            [11] 1633 	add	hl,bc
   0AE2 CB 2C         [ 8] 1634 	sra	h
   0AE4 CB 1D         [ 8] 1635 	rr	l
   0AE6 CB 2C         [ 8] 1636 	sra	h
   0AE8 CB 1D         [ 8] 1637 	rr	l
   0AEA CB 2C         [ 8] 1638 	sra	h
   0AEC CB 1D         [ 8] 1639 	rr	l
   0AEE CB 2C         [ 8] 1640 	sra	h
   0AF0 CB 1D         [ 8] 1641 	rr	l
   0AF2 FD 21r00r00   [14] 1642 	ld	iy,#_cy2
   0AF6 FD 75 00      [19] 1643 	ld	0 (iy),l
                           1644 ;engine/player.c:809: cm_two_points ();
   0AF9 CDr00r00      [17] 1645 	call	_cm_two_points
                           1646 ;engine/player.c:810: if ((at1 & 1) || (at2 & 1)) phit = 1;
   0AFC FD 21r00r00   [14] 1647 	ld	iy,#_at1
   0B00 FD CB 00 46   [20] 1648 	bit	0, 0 (iy)
   0B04 20 0A         [12] 1649 	jr	NZ,00239$
   0B06 FD 21r00r00   [14] 1650 	ld	iy,#_at2
   0B0A FD CB 00 46   [20] 1651 	bit	0, 0 (iy)
   0B0E 28 08         [12] 1652 	jr	Z,00240$
   0B10                    1653 00239$:
   0B10 FD 21r00r00   [14] 1654 	ld	iy,#_phit
   0B14 FD 36 00 01   [19] 1655 	ld	0 (iy),#0x01
   0B18                    1656 00240$:
                           1657 ;engine/player.c:813: if (!pflickering && !pbouncing) if (phit) { 
   0B18 3Ar00r00      [13] 1658 	ld	a,(#_pflickering + 0)
   0B1B B7            [ 4] 1659 	or	a, a
   0B1C 20 1F         [12] 1660 	jr	NZ,00248$
   0B1E 3Ar00r00      [13] 1661 	ld	a,(#_pbouncing + 0)
   0B21 B7            [ 4] 1662 	or	a, a
   0B22 20 19         [12] 1663 	jr	NZ,00248$
   0B24 3Ar00r00      [13] 1664 	ld	a,(#_phit + 0)
   0B27 B7            [ 4] 1665 	or	a, a
   0B28 28 13         [12] 1666 	jr	Z,00248$
                           1667 ;engine/player.c:814: player_to_pixels ();
   0B2A CDr9Dr00      [17] 1668 	call	_player_to_pixels
                           1669 ;engine/player.c:815: en_sg_2 = 1;
   0B2D FD 21r00r00   [14] 1670 	ld	iy,#_en_sg_2
   0B31 FD 36 00 01   [19] 1671 	ld	0 (iy),#0x01
                           1672 ;engine/player.c:822: pkill = en_sg_2;
   0B35 FD 21r00r00   [14] 1673 	ld	iy,#_pkill
   0B39 FD 36 00 01   [19] 1674 	ld	0 (iy),#0x01
   0B3D                    1675 00248$:
                           1676 ;engine/../my/player_frame_selector.h:37: if (ppossee || pgotten) {
   0B3D 3Ar00r00      [13] 1677 	ld	a,(#_ppossee + 0)
   0B40 B7            [ 4] 1678 	or	a, a
   0B41 20 06         [12] 1679 	jr	NZ,00253$
   0B43 3Ar00r00      [13] 1680 	ld	a,(#_pgotten + 0)
   0B46 B7            [ 4] 1681 	or	a, a
   0B47 28 41         [12] 1682 	jr	Z,00254$
   0B49                    1683 00253$:
                           1684 ;engine/../my/player_frame_selector.h:39: if (pvx > PLAYER_VX_MIN || pvx < -PLAYER_VX_MIN) {
   0B49 3E 18         [ 7] 1685 	ld	a,#0x18
   0B4B FD 21r00r00   [14] 1686 	ld	iy,#_pvx
   0B4F FD BE 00      [19] 1687 	cp	a, 0 (iy)
   0B52 3E 00         [ 7] 1688 	ld	a,#0x00
   0B54 FD 21r00r00   [14] 1689 	ld	iy,#_pvx
   0B58 FD 9E 01      [19] 1690 	sbc	a, 1 (iy)
   0B5B E2r60r0B      [10] 1691 	jp	PO, 00625$
   0B5E EE 80         [ 7] 1692 	xor	a, #0x80
   0B60                    1693 00625$:
   0B60 FAr72r0B      [10] 1694 	jp	M,00249$
   0B63 3Ar00r00      [13] 1695 	ld	a,(#_pvx + 0)
   0B66 D6 E8         [ 7] 1696 	sub	a, #0xE8
   0B68 3Ar01r00      [13] 1697 	ld	a,(#_pvx + 1)
   0B6B 17            [ 4] 1698 	rla
   0B6C 3F            [ 4] 1699 	ccf
   0B6D 1F            [ 4] 1700 	rra
   0B6E DE 7F         [ 7] 1701 	sbc	a, #0x7F
   0B70 30 11         [12] 1702 	jr	NC,00250$
   0B72                    1703 00249$:
                           1704 ;engine/../my/player_frame_selector.h:40: psprid = CELL_WALK_CYCLE + ((prx >> 3) & 3);
   0B72 3Ar00r00      [13] 1705 	ld	a,(#_prx + 0)
   0B75 0F            [ 4] 1706 	rrca
   0B76 0F            [ 4] 1707 	rrca
   0B77 0F            [ 4] 1708 	rrca
   0B78 E6 1F         [ 7] 1709 	and	a,#0x1F
   0B7A E6 03         [ 7] 1710 	and	a, #0x03
   0B7C 21r00r00      [10] 1711 	ld	hl,#_psprid
   0B7F 3C            [ 4] 1712 	inc	a
   0B80 77            [ 7] 1713 	ld	(hl),a
   0B81 18 0C         [12] 1714 	jr	00255$
   0B83                    1715 00250$:
                           1716 ;engine/../my/player_frame_selector.h:42: psprid = CELL_IDLE;
   0B83 21r00r00      [10] 1717 	ld	hl,#_psprid + 0
   0B86 36 00         [10] 1718 	ld	(hl), #0x00
   0B88 18 05         [12] 1719 	jr	00255$
   0B8A                    1720 00254$:
                           1721 ;engine/../my/player_frame_selector.h:45: psprid = CELL_AIRBORNE;
   0B8A 21r00r00      [10] 1722 	ld	hl,#_psprid + 0
   0B8D 36 05         [10] 1723 	ld	(hl), #0x05
   0B8F                    1724 00255$:
                           1725 ;engine/../my/player_frame_selector.h:55: psprid += pfacing;
   0B8F 21r00r00      [10] 1726 	ld	hl,#_pfacing
   0B92 D5            [11] 1727 	push	de
   0B93 FD 21r00r00   [14] 1728 	ld	iy,#_psprid
   0B97 FD E5         [15] 1729 	push	iy
   0B99 D1            [10] 1730 	pop	de
   0B9A 1A            [ 7] 1731 	ld	a,(de)
   0B9B 86            [ 7] 1732 	add	a, (hl)
   0B9C 12            [ 7] 1733 	ld	(de),a
   0B9D D1            [10] 1734 	pop	de
                           1735 ;engine/player.c:942: prx_old = prx;
   0B9E 3Ar00r00      [13] 1736 	ld	a,(#_prx + 0)
   0BA1 32r00r00      [13] 1737 	ld	(#_prx_old + 0),a
                           1738 ;engine/player.c:943: pry_old = pry;
   0BA4 3Ar00r00      [13] 1739 	ld	a,(#_pry + 0)
   0BA7 32r00r00      [13] 1740 	ld	(#_pry_old + 0),a
   0BAA DD F9         [10] 1741 	ld	sp, ix
   0BAC DD E1         [14] 1742 	pop	ix
   0BAE C9            [10] 1743 	ret
                           1744 	.area _CODE
                           1745 	.area _INITIALIZER
                           1746 	.area _CABS (ABS)
