                              1 ;--------------------------------------------------------
                              2 ; File Created by SDCC : free open source ANSI-C Compiler
                              3 ; Version 3.5.2 #9293 (MINGW32)
                              4 ; This file was generated Fri Sep 13 13:00:04 2019
                              5 ;--------------------------------------------------------
                              6 	.module breakable
                              7 	.optsdcc -mz80
                              8 	
                              9 ;--------------------------------------------------------
                             10 ; Public variables in this module
                             11 ;--------------------------------------------------------
                             12 	.globl _breakable_break
                             13 	.globl _breakable_do_anim
                             14 	.globl _map_set
                             15 	.globl _PSGSFXPlay
                             16 ;--------------------------------------------------------
                             17 ; special function registers
                             18 ;--------------------------------------------------------
                     00BF    19 _VDPControlPort	=	0x00bf
                     00BF    20 _VDPStatusPort	=	0x00bf
                     00BE    21 _VDPDataPort	=	0x00be
                     007E    22 _VDPVCounterPort	=	0x007e
                     007F    23 _VDPHCounterPort	=	0x007f
                     00DC    24 _IOPortL	=	0x00dc
                     00DD    25 _IOPortH	=	0x00dd
                             26 ;--------------------------------------------------------
                             27 ; ram data
                             28 ;--------------------------------------------------------
                             29 	.area _DATA
                             30 ;--------------------------------------------------------
                             31 ; ram data
                             32 ;--------------------------------------------------------
                             33 	.area _INITIALIZED
                             34 ;--------------------------------------------------------
                             35 ; absolute external ram data
                             36 ;--------------------------------------------------------
                             37 	.area _DABS (ABS)
                             38 ;--------------------------------------------------------
                             39 ; global & static initialisations
                             40 ;--------------------------------------------------------
                             41 	.area _HOME
                             42 	.area _GSINIT
                             43 	.area _GSFINAL
                             44 	.area _GSINIT
                             45 ;--------------------------------------------------------
                             46 ; Home
                             47 ;--------------------------------------------------------
                             48 	.area _HOME
                             49 	.area _HOME
                             50 ;--------------------------------------------------------
                             51 ; code
                             52 ;--------------------------------------------------------
                             53 	.area _CODE
                             54 ;./engine/breakable.c:30: void breakable_do_anim (void) {
                             55 ;	---------------------------------
                             56 ; Function breakable_do_anim
                             57 ; ---------------------------------
   0000                      58 _breakable_do_anim::
                             59 ;./engine/breakable.c:31: do_process_breakable = 0;
   0000 21r00r00      [10]   60 	ld	hl,#_do_process_breakable + 0
   0003 36 00         [10]   61 	ld	(hl), #0x00
                             62 ;./engine/breakable.c:32: gpit = BREAKABLE_MAX; while (gpit --) {
   0005 21r00r00      [10]   63 	ld	hl,#_gpit + 0
   0008 36 04         [10]   64 	ld	(hl), #0x04
   000A 01r00r00      [10]   65 	ld	bc,#_brkx+0
   000D                      66 00106$:
   000D 21r00r00      [10]   67 	ld	hl,#_gpit + 0
   0010 5E            [ 7]   68 	ld	e, (hl)
   0011 21r00r00      [10]   69 	ld	hl, #_gpit+0
   0014 35            [11]   70 	dec	(hl)
   0015 7B            [ 4]   71 	ld	a,e
   0016 B7            [ 4]   72 	or	a, a
   0017 C8            [11]   73 	ret	Z
                             74 ;./engine/breakable.c:33: if (brkf [gpit]) {
   0018 3Er00         [ 7]   75 	ld	a,#<(_brkf)
   001A 21r00r00      [10]   76 	ld	hl,#_gpit
   001D 86            [ 7]   77 	add	a, (hl)
   001E 5F            [ 4]   78 	ld	e,a
   001F 3Es00         [ 7]   79 	ld	a,#>(_brkf)
   0021 CE 00         [ 7]   80 	adc	a, #0x00
   0023 57            [ 4]   81 	ld	d,a
   0024 1A            [ 7]   82 	ld	a,(de)
   0025 B7            [ 4]   83 	or	a, a
   0026 28 E5         [12]   84 	jr	Z,00106$
                             85 ;./engine/breakable.c:34: ++ brkf [gpit];
   0028 3C            [ 4]   86 	inc	a
   0029 12            [ 7]   87 	ld	(de),a
                             88 ;./engine/breakable.c:35: if (brkf [gpit] == BREAKABLE_MAX_FRAMES) {
   002A 3Er00         [ 7]   89 	ld	a,#<(_brkf)
   002C 21r00r00      [10]   90 	ld	hl,#_gpit
   002F 86            [ 7]   91 	add	a, (hl)
   0030 5F            [ 4]   92 	ld	e,a
   0031 3Es00         [ 7]   93 	ld	a,#>(_brkf)
   0033 CE 00         [ 7]   94 	adc	a, #0x00
   0035 57            [ 4]   95 	ld	d,a
   0036 1A            [ 7]   96 	ld	a,(de)
   0037 D6 08         [ 7]   97 	sub	a, #0x08
   0039 20 28         [12]   98 	jr	NZ,00102$
                             99 ;./engine/breakable.c:36: brkf [gpit] = 0;
   003B AF            [ 4]  100 	xor	a, a
   003C 12            [ 7]  101 	ld	(de),a
                            102 ;./engine/breakable.c:37: _x = brkx [gpit]; _y = brky [gpit]; _t = BREAKABLE_ERASE;
   003D 2Ar00r00      [16]  103 	ld	hl,(_gpit)
   0040 26 00         [ 7]  104 	ld	h,#0x00
   0042 09            [11]  105 	add	hl,bc
   0043 7E            [ 7]  106 	ld	a,(hl)
   0044 32r00r00      [13]  107 	ld	(#__x + 0),a
   0047 3Er00         [ 7]  108 	ld	a,#<(_brky)
   0049 21r00r00      [10]  109 	ld	hl,#_gpit
   004C 86            [ 7]  110 	add	a, (hl)
   004D 5F            [ 4]  111 	ld	e,a
   004E 3Es00         [ 7]  112 	ld	a,#>(_brky)
   0050 CE 00         [ 7]  113 	adc	a, #0x00
   0052 57            [ 4]  114 	ld	d,a
   0053 1A            [ 7]  115 	ld	a,(de)
   0054 32r00r00      [13]  116 	ld	(#__y + 0),a
   0057 21r00r00      [10]  117 	ld	hl,#__t + 0
   005A 36 1A         [10]  118 	ld	(hl), #0x1A
                            119 ;./engine/breakable.c:38: map_set ();
   005C C5            [11]  120 	push	bc
   005D CDr00r00      [17]  121 	call	_map_set
   0060 C1            [10]  122 	pop	bc
   0061 18 AA         [12]  123 	jr	00106$
   0063                     124 00102$:
                            125 ;./engine/breakable.c:40: do_process_breakable = 1;
   0063 21r00r00      [10]  126 	ld	hl,#_do_process_breakable + 0
   0066 36 01         [10]  127 	ld	(hl), #0x01
   0068 18 A3         [12]  128 	jr	00106$
                            129 ;./engine/breakable.c:47: void breakable_break (unsigned char x, unsigned char y) {
                            130 ;	---------------------------------
                            131 ; Function breakable_break
                            132 ; ---------------------------------
   006A                     133 _breakable_break::
   006A DD E5         [15]  134 	push	ix
   006C DD 21 00 00   [14]  135 	ld	ix,#0
   0070 DD 39         [15]  136 	add	ix,sp
   0072 F5            [11]  137 	push	af
   0073 3B            [ 6]  138 	dec	sp
                            139 ;./engine/breakable.c:49: gp_addr = BREAKABLE_VRAM_ADDR + COORDS (x, y);
   0074 DD 6E 05      [19]  140 	ld	l,5 (ix)
   0077 26 00         [ 7]  141 	ld	h,#0x00
   0079 29            [11]  142 	add	hl, hl
   007A 29            [11]  143 	add	hl, hl
   007B 29            [11]  144 	add	hl, hl
   007C 29            [11]  145 	add	hl, hl
   007D DD 7E 04      [19]  146 	ld	a, 4 (ix)
   0080 06 00         [ 7]  147 	ld	b, #0x00
   0082 B5            [ 4]  148 	or	a, l
   0083 5F            [ 4]  149 	ld	e,a
   0084 78            [ 4]  150 	ld	a,b
   0085 B4            [ 4]  151 	or	a, h
   0086 57            [ 4]  152 	ld	d,a
   0087 21 40 1F      [10]  153 	ld	hl,#0x1F40
   008A 19            [11]  154 	add	hl,de
   008B 22r00r00      [16]  155 	ld	(_gp_addr),hl
                            156 ;./engine/breakable.c:50: DISABLE_INTERRUPTS;
   008E F3            [ 4]  157 	di 
                            158 ;./engine/breakable.c:51: VDPControlPort = LO (gp_addr);
   008F 21r00r00      [10]  159 	ld	hl,#_gp_addr + 0
   0092 66            [ 7]  160 	ld	h, (hl)
   0093 DD 74 FF      [19]  161 	ld	-1 (ix), h
   0096 7C            [ 4]  162 	ld	a, h
   0097 D3 BF         [11]  163 	out	(_VDPControlPort),a
                            164 ;./engine/breakable.c:52: VDPControlPort = HI (gp_addr);	// Set up for reading. Note there's no | 0x40!
   0099 3Ar01r00      [13]  165 	ld	a,(#_gp_addr + 1)
   009C DD 77 FD      [19]  166 	ld	-3 (ix),a
   009F DD 36 FE 00   [19]  167 	ld	-2 (ix),#0x00
   00A3 DD 7E FD      [19]  168 	ld	a,-3 (ix)
   00A6 D3 BF         [11]  169 	out	(_VDPControlPort),a
                            170 ;./engine/breakable.c:53: rda = VDPDataPort;
   00A8 DB BE         [11]  171 	in	a,(_VDPDataPort)
   00AA 32r00r00      [13]  172 	ld	(#_rda + 0),a
                            173 ;./engine/breakable.c:54: ENABLE_INTERRUPTS;
   00AD FB            [ 4]  174 	ei 
                            175 ;./engine/breakable.c:56: if (rda < BREAKABLE_LIFE) {
   00AE 3Ar00r00      [13]  176 	ld	a,(#_rda + 0)
   00B1 D6 02         [ 7]  177 	sub	a, #0x02
   00B3 30 1A         [12]  178 	jr	NC,00107$
                            179 ;./engine/breakable.c:57: ++ rda;
   00B5 21r00r00      [10]  180 	ld	hl, #_rda+0
   00B8 34            [11]  181 	inc	(hl)
                            182 ;./engine/breakable.c:58: DISABLE_INTERRUPTS;
   00B9 F3            [ 4]  183 	di 
                            184 ;./engine/breakable.c:59: VDPControlPort = LO (gp_addr);
   00BA DD 7E FF      [19]  185 	ld	a,-1 (ix)
   00BD D3 BF         [11]  186 	out	(_VDPControlPort),a
                            187 ;./engine/breakable.c:60: VDPControlPort = HI (gp_addr) | 0x40;
   00BF DD 7E FD      [19]  188 	ld	a,-3 (ix)
   00C2 CB F7         [ 8]  189 	set	6, a
   00C4 D3 BF         [11]  190 	out	(_VDPControlPort),a
                            191 ;./engine/breakable.c:61: VDPDataPort = rda;
   00C6 3Ar00r00      [13]  192 	ld	a,(#_rda + 0)
   00C9 D3 BE         [11]  193 	out	(_VDPDataPort),a
                            194 ;./engine/breakable.c:62: ENABLE_INTERRUPTS;
   00CB FB            [ 4]  195 	ei 
   00CC C3r4Er01      [10]  196 	jp	00109$
   00CF                     197 00107$:
                            198 ;./engine/breakable.c:66: PSGSFXPlay (SFX_BREAKH, 2);
   00CF 11r00r00      [10]  199 	ld	de,#_s_13_breakh3_psg
   00D2 3E 02         [ 7]  200 	ld	a,#0x02
   00D4 F5            [11]  201 	push	af
   00D5 33            [ 6]  202 	inc	sp
   00D6 D5            [11]  203 	push	de
   00D7 CDr00r00      [17]  204 	call	_PSGSFXPlay
   00DA F1            [10]  205 	pop	af
   00DB 33            [ 6]  206 	inc	sp
                            207 ;./engine/breakable.c:69: gpit = BREAKABLE_MAX; while (gpit --) {
   00DC 21r00r00      [10]  208 	ld	hl,#_gpit + 0
   00DF 36 04         [10]  209 	ld	(hl), #0x04
   00E1                     210 00103$:
   00E1 3Ar00r00      [13]  211 	ld	a,(#_gpit + 0)
   00E4 DD 77 FD      [19]  212 	ld	-3 (ix),a
   00E7 21r00r00      [10]  213 	ld	hl, #_gpit+0
   00EA 35            [11]  214 	dec	(hl)
   00EB DD 7E FD      [19]  215 	ld	a,-3 (ix)
   00EE B7            [ 4]  216 	or	a, a
   00EF 28 5D         [12]  217 	jr	Z,00109$
                            218 ;./engine/breakable.c:70: if (!brkf [gpit]) {
   00F1 3Er00         [ 7]  219 	ld	a,#<(_brkf)
   00F3 21r00r00      [10]  220 	ld	hl,#_gpit
   00F6 86            [ 7]  221 	add	a, (hl)
   00F7 DD 77 FD      [19]  222 	ld	-3 (ix),a
   00FA 3Es00         [ 7]  223 	ld	a,#>(_brkf)
   00FC CE 00         [ 7]  224 	adc	a, #0x00
   00FE DD 77 FE      [19]  225 	ld	-2 (ix),a
   0101 E1            [10]  226 	pop	hl
   0102 E5            [11]  227 	push	hl
   0103 7E            [ 7]  228 	ld	a,(hl)
   0104 DD 77 FF      [19]  229 	ld	-1 (ix), a
   0107 B7            [ 4]  230 	or	a, a
   0108 20 D7         [12]  231 	jr	NZ,00103$
                            232 ;./engine/breakable.c:71: do_process_breakable = 1;
   010A 21r00r00      [10]  233 	ld	hl,#_do_process_breakable + 0
   010D 36 01         [10]  234 	ld	(hl), #0x01
                            235 ;./engine/breakable.c:72: brkf [gpit] = 1;
   010F E1            [10]  236 	pop	hl
   0110 E5            [11]  237 	push	hl
   0111 36 01         [10]  238 	ld	(hl),#0x01
                            239 ;./engine/breakable.c:73: _x = brkx [gpit] = x;
   0113 11r00r00      [10]  240 	ld	de,#_brkx+0
   0116 2Ar00r00      [16]  241 	ld	hl,(_gpit)
   0119 26 00         [ 7]  242 	ld	h,#0x00
   011B 19            [11]  243 	add	hl,de
   011C DD 7E 04      [19]  244 	ld	a,4 (ix)
   011F 77            [ 7]  245 	ld	(hl),a
   0120 DD 7E 04      [19]  246 	ld	a,4 (ix)
   0123 32r00r00      [13]  247 	ld	(#__x + 0),a
                            248 ;./engine/breakable.c:74: _y = brky [gpit] = y;
   0126 11r00r00      [10]  249 	ld	de,#_brky+0
   0129 2Ar00r00      [16]  250 	ld	hl,(_gpit)
   012C 26 00         [ 7]  251 	ld	h,#0x00
   012E 19            [11]  252 	add	hl,de
   012F DD 7E 05      [19]  253 	ld	a,5 (ix)
   0132 77            [ 7]  254 	ld	(hl),a
   0133 DD 7E 05      [19]  255 	ld	a,5 (ix)
   0136 32r00r00      [13]  256 	ld	(#__y + 0),a
                            257 ;./engine/breakable.c:75: _t = BREAKABLE_BREAKING;
   0139 21r00r00      [10]  258 	ld	hl,#__t + 0
   013C 36 1C         [10]  259 	ld	(hl), #0x1C
                            260 ;./engine/breakable.c:76: map_set ();					// Break tile!
   013E CDr00r00      [17]  261 	call	_map_set
                            262 ;./engine/breakable.c:77: PSGSFXPlay (SFX_BREAKB, 2);
   0141 11r00r00      [10]  263 	ld	de,#_s_17_breakb3_psg
   0144 3E 02         [ 7]  264 	ld	a,#0x02
   0146 F5            [11]  265 	push	af
   0147 33            [ 6]  266 	inc	sp
   0148 D5            [11]  267 	push	de
   0149 CDr00r00      [17]  268 	call	_PSGSFXPlay
   014C F1            [10]  269 	pop	af
   014D 33            [ 6]  270 	inc	sp
                            271 ;./engine/breakable.c:78: break;						// HA HA HA
   014E                     272 00109$:
   014E DD F9         [10]  273 	ld	sp, ix
   0150 DD E1         [14]  274 	pop	ix
   0152 C9            [10]  275 	ret
                            276 	.area _CODE
                            277 	.area _INITIALIZER
                            278 	.area _CABS (ABS)
